
zephyr.elf:     file format elf32-littlearm


Disassembly of section rom_start:

00000000 <_vector_table>:
	return cb(str, strl, ctx);
}

int cbvprintf_package(void *packaged, size_t len, uint32_t flags,
		      const char *fmt, va_list ap)
{
   0:	f0 3f 00 20 91 21 00 00 5b 61 00 00 65 21 00 00     .?. .!..[a..e!..
	bool rws_pos_en = !!(flags & CBPRINTF_PACKAGE_ADD_RW_STR_POS);
	/* Get number of first read only strings present in the string.
	 * There is always at least 1 (fmt) but flags can indicate more, e.g
	 * fixed prefix appended to all strings.
	 */
	int fros_cnt = 1 + Z_CBPRINTF_PACKAGE_FIRST_RO_STR_CNT_GET(flags);
  10:	65 21 00 00 65 21 00 00 65 21 00 00 65 21 00 00     e!..e!..e!..e!..
	...

	/*
	 * Otherwise we must ensure we can store at least
	 * the pointer to the format string itself.
	 */
	if (buf0 != NULL && BUF_OFFSET + sizeof(char *) > len) {
  2c:	01 1d 00 00 65 21 00 00 00 00 00 00 65 21 00 00     ....e!......e!..
		buf += len % CBPRINTF_PACKAGE_ALIGNMENT;
  3c:	65 21 00 00                                         e!..

00000040 <_irq_vector_table>:
		len = CBPRINTF_PACKAGE_ALIGNMENT - (len % CBPRINTF_PACKAGE_ALIGNMENT);
  40:	61 1d 00 00 61 1d 00 00 61 1d 00 00 61 1d 00 00     a...a...a...a...
	int arg_idx	      = -1; /* Argument index. Preincremented thus starting from -1.*/
  50:	61 1d 00 00 61 1d 00 00 61 1d 00 00 61 1d 00 00     a...a...a...a...
		/* copy va_list data over to our buffer */
		if (is_str_arg) {
			s = va_arg(ap, char *);
process_string:
			if (buf0 != NULL) {
				*(const char **)buf = s;
  60:	61 1d 00 00 61 1d 00 00 61 1d 00 00 61 1d 00 00     a...a...a...a...
#else
	#define RO_START 0
	#define RO_END 0
#endif

	return (((const char *)addr >= (const char *)RO_START) &&
  70:	61 1d 00 00 61 1d 00 00 61 1d 00 00 61 1d 00 00     a...a...a...a...
			bool do_ro = !!(flags & CBPRINTF_PACKAGE_ADD_RO_STR_POS);

			if (is_ro && !do_ro) {
				/* nothing to do */
			} else {
				uint32_t s_ptr_idx = BUF_OFFSET / sizeof(int);
  80:	61 1d 00 00 61 1d 00 00 61 1d 00 00 61 1d 00 00     a...a...a...a...
				if (do_ro && s_ptr_idx > STR_POS_MASK) {
					__ASSERT(false, "String with too many arguments");
					return -EINVAL;
				}

				if (s_idx >= ARRAY_SIZE(str_ptr_pos)) {
  90:	61 1d 00 00 61 1d 00 00 61 1d 00 00 61 1d 00 00     a...a...a...a...
					/*
					 * Remember string pointer location.
					 * We will append non-ro strings later.
					 */
					str_ptr_pos[s_idx] = s_ptr_idx;
					str_ptr_arg[s_idx] = arg_idx;
  a0:	61 1d 00 00 61 1d 00 00 61 1d 00 00 61 1d 00 00     a...a...a...a...
					if (is_ro) {
						/* flag read-only string. */
						str_ptr_pos[s_idx] |= STR_POS_RO_FLAG;
						s_ro_cnt++;
					} else {
						s_rw_cnt++;
  b0:	61 1d 00 00 61 1d 00 00 61 1d 00 00 61 1d 00 00     a...a...a...a...
			switch (*fmt) {
  c0:	61 1d 00 00 61 1d 00 00 61 1d 00 00 61 1d 00 00     a...a...a...a...
  d0:	61 1d 00 00 61 1d 00 00 61 1d 00 00 61 1d 00 00     a...a...a...a...
  e0:	61 1d 00 00 61 1d 00 00 61 1d 00 00 61 1d 00 00     a...a...a...a...
  f0:	61 1d 00 00 61 1d 00 00 61 1d 00 00 61 1d 00 00     a...a...a...a...
 100:	61 1d 00 00 61 1d 00 00 61 1d 00 00 61 1d 00 00     a...a...a...a...
 110:	61 1d 00 00 61 1d 00 00 61 1d 00 00 61 1d 00 00     a...a...a...a...
				align = VA_STACK_ALIGN(void *);
 120:	61 1d 00 00 61 1d 00 00 61 1d 00 00 61 1d 00 00     a...a...a...a...
			switch (*fmt) {
 130:	61 1d 00 00 61 1d 00 00 61 1d 00 00 61 1d 00 00     a...a...a...a...
 140:	61 1d 00 00                                         a...

Disassembly of section text:

00000144 <__aeabi_uldivmod>:
		buf = (void *) ROUND_UP(buf, align);
     144:	b953      	cbnz	r3, 15c <__aeabi_uldivmod+0x18>
     146:	b94a      	cbnz	r2, 15c <__aeabi_uldivmod+0x18>
     148:	2900      	cmp	r1, #0
     14a:	bf08      	it	eq
     14c:	2800      	cmpeq	r0, #0
		if (buf0 != NULL && BUF_OFFSET + size > len) {
     14e:	bf1c      	itt	ne
     150:	f04f 31ff 	movne.w	r1, #4294967295	; 0xffffffff
     154:	f04f 30ff 	movne.w	r0, #4294967295	; 0xffffffff
     158:	f000 b80c 	b.w	174 <__aeabi_idiv0>
     15c:	f1ad 0c08 	sub.w	ip, sp, #8
		if (is_str_arg) {
     160:	e96d ce04 	strd	ip, lr, [sp, #-16]!
				s_idx++;
			}
			buf += sizeof(char *);

			is_str_arg = false;
		} else if (size == sizeof(int)) {
     164:	f000 f808 	bl	178 <__udivmoddi4>
			int v = va_arg(ap, int);
     168:	f8dd e004 	ldr.w	lr, [sp, #4]

			if (buf0 != NULL) {
				*(int *)buf = v;
			}
			buf += sizeof(int);
     16c:	e9dd 2302 	ldrd	r2, r3, [sp, #8]
     170:	b004      	add	sp, #16
				arg_idx--;
     172:	4770      	bx	lr

00000174 <__aeabi_idiv0>:
     174:	4770      	bx	lr
     176:	bf00      	nop

00000178 <__udivmoddi4>:
				parsing = false;
     178:	e92d 47f0 	stmdb	sp!, {r4, r5, r6, r7, r8, r9, sl, lr}
				continue;
     17c:	4686      	mov	lr, r0
				if (fmt[-1] == 'l') {
     17e:	468c      	mov	ip, r1
     180:	4608      	mov	r0, r1
     182:	9e08      	ldr	r6, [sp, #32]
     184:	4615      	mov	r5, r2
					if (fmt[-2] == 'l') {
     186:	4674      	mov	r4, lr
     188:	4619      	mov	r1, r3
     18a:	2b00      	cmp	r3, #0
				parsing = false;
     18c:	f040 80c1 	bne.w	312 <CONFIG_MCUBOOT_LOG_THREAD_STACK_SIZE+0x12>
					if (fmt[-2] == 'l') {
     190:	4285      	cmp	r5, r0
						align = VA_STACK_ALIGN(long long);
     192:	fab2 f282 	clz	r2, r2
				size = sizeof(void *);
     196:	d945      	bls.n	224 <CONFIG_PM_PARTITION_SIZE_MCUBOOT_PAD+0x24>
     198:	b14a      	cbz	r2, 1ae <__udivmoddi4+0x36>
					v.ld = va_arg(ap, long double);
     19a:	f1c2 0320 	rsb	r3, r2, #32
     19e:	fa00 fc02 	lsl.w	ip, r0, r2
				buf = (void *) ROUND_UP(buf, align);
     1a2:	4095      	lsls	r5, r2
     1a4:	4094      	lsls	r4, r2
     1a6:	fa2e f303 	lsr.w	r3, lr, r3
					v.ld = va_arg(ap, long double);
     1aa:	ea43 0c0c 	orr.w	ip, r3, ip
					if (BUF_OFFSET + size > len) {
     1ae:	ea4f 4e15 	mov.w	lr, r5, lsr #16
     1b2:	b2a8      	uxth	r0, r5
     1b4:	0c23      	lsrs	r3, r4, #16
     1b6:	fbbc f8fe 	udiv	r8, ip, lr
						*(long double *)buf = v.ld;
     1ba:	fb0e cc18 	mls	ip, lr, r8, ip
				parsing = false;
     1be:	fb08 f900 	mul.w	r9, r8, r0
			switch (*fmt) {
     1c2:	ea43 430c 	orr.w	r3, r3, ip, lsl #16
     1c6:	4599      	cmp	r9, r3
			if (*++fmt == '\0') {
     1c8:	d928      	bls.n	21c <CONFIG_PM_PARTITION_SIZE_MCUBOOT_PAD+0x1c>
     1ca:	18eb      	adds	r3, r5, r3
     1cc:	f108 37ff 	add.w	r7, r8, #4294967295	; 0xffffffff
			if (!parsing) {
     1d0:	d204      	bcs.n	1dc <__udivmoddi4+0x64>
     1d2:	4599      	cmp	r9, r3
     1d4:	d902      	bls.n	1dc <__udivmoddi4+0x64>
     1d6:	f1a8 0702 	sub.w	r7, r8, #2
				if (*fmt == '%') {
     1da:	442b      	add	r3, r5
					parsing = true;
     1dc:	eba3 0309 	sub.w	r3, r3, r9
					arg_idx++;
     1e0:	b2a4      	uxth	r4, r4
     1e2:	fbb3 fcfe 	udiv	ip, r3, lr
				align = VA_STACK_ALIGN(size_t);
     1e6:	fb0e 331c 	mls	r3, lr, ip, r3
     1ea:	fb0c f000 	mul.w	r0, ip, r0
			switch (*fmt) {
     1ee:	ea44 4403 	orr.w	r4, r4, r3, lsl #16
				parsing = false;
     1f2:	42a0      	cmp	r0, r4
     1f4:	d914      	bls.n	220 <CONFIG_PM_PARTITION_SIZE_MCUBOOT_PAD+0x20>

			if (buf0 != NULL) {
				*(long *)buf = v;
			}
			buf += sizeof(long);
		} else if (size == sizeof(long long)) {
     1f6:	192c      	adds	r4, r5, r4
     1f8:	f10c 33ff 	add.w	r3, ip, #4294967295	; 0xffffffff
					return -EINVAL;
     1fc:	d204      	bcs.n	208 <CONFIG_PM_PARTITION_SIZE_MCUBOOT_PAD+0x8>
     1fe:	42a0      	cmp	r0, r4
			long long v = va_arg(ap, long long);
     200:	d902      	bls.n	208 <CONFIG_PM_PARTITION_SIZE_MCUBOOT_PAD+0x8>
     202:	f1ac 0302 	sub.w	r3, ip, #2
     206:	442c      	add	r4, r5
     208:	1a24      	subs	r4, r4, r0
     20a:	ea43 4007 	orr.w	r0, r3, r7, lsl #16

			if (buf0 != NULL) {
				if (Z_CBPRINTF_VA_STACK_LL_DBL_MEMCPY) {
					memcpy(buf, &v, sizeof(long long));
				} else {
					*(long long *)buf = v;
     20e:	b11e      	cbz	r6, 218 <CONFIG_PM_PARTITION_SIZE_MCUBOOT_PAD+0x18>
				}
			}
			buf += sizeof(long long);
     210:	40d4      	lsrs	r4, r2
     212:	2300      	movs	r3, #0
     214:	6034      	str	r4, [r6, #0]
		if (is_str_arg) {
     216:	6073      	str	r3, [r6, #4]
		} else if (size == sizeof(int)) {
     218:	e8bd 87f0 	ldmia.w	sp!, {r4, r5, r6, r7, r8, r9, sl, pc}
			int v = va_arg(ap, int);
     21c:	4647      	mov	r7, r8
     21e:	e7dd      	b.n	1dc <__udivmoddi4+0x64>
			if (buf0 != NULL) {
     220:	4663      	mov	r3, ip
		} else if (size == sizeof(long long)) {
     222:	e7f1      	b.n	208 <CONFIG_PM_PARTITION_SIZE_MCUBOOT_PAD+0x8>
     224:	bb92      	cbnz	r2, 28c <CONFIG_PM_PARTITION_SIZE_PROVISION+0xc>
			long long v = va_arg(ap, long long);
     226:	1b43      	subs	r3, r0, r5
     228:	2101      	movs	r1, #1
     22a:	ea4f 4e15 	mov.w	lr, r5, lsr #16
     22e:	b2af      	uxth	r7, r5
     230:	0c20      	lsrs	r0, r4, #16
			if (buf0 != NULL) {
     232:	fbb3 fcfe 	udiv	ip, r3, lr
			bool is_ro = (fros_cnt-- > 0) ? true : ptr_in_rodata(s);
     236:	fb0e 331c 	mls	r3, lr, ip, r3
			s = va_arg(ap, char *);
     23a:	fb0c f807 	mul.w	r8, ip, r7
     23e:	ea40 4303 	orr.w	r3, r0, r3, lsl #16
			if (is_ro && !do_ro) {
     242:	4598      	cmp	r8, r3
     244:	d961      	bls.n	30a <CONFIG_MCUBOOT_LOG_THREAD_STACK_SIZE+0xa>
     246:	18eb      	adds	r3, r5, r3
			bool is_ro = (fros_cnt-- > 0) ? true : ptr_in_rodata(s);
     248:	f10c 30ff 	add.w	r0, ip, #4294967295	; 0xffffffff
				uint32_t s_ptr_idx = BUF_OFFSET / sizeof(int);
     24c:	d204      	bcs.n	258 <CONFIG_PM_PARTITION_SIZE_MCUBOOT_PAD+0x58>
     24e:	4598      	cmp	r8, r3
     250:	d902      	bls.n	258 <CONFIG_PM_PARTITION_SIZE_MCUBOOT_PAD+0x58>
     252:	f1ac 0002 	sub.w	r0, ip, #2
				if (do_ro && s_ptr_idx > STR_POS_MASK) {
     256:	442b      	add	r3, r5
     258:	eba3 0308 	sub.w	r3, r3, r8
				if (s_idx >= ARRAY_SIZE(str_ptr_pos)) {
     25c:	b2a4      	uxth	r4, r4
				if (buf0 != NULL) {
     25e:	fbb3 fcfe 	udiv	ip, r3, lr
					str_ptr_pos[s_idx] = s_ptr_idx;
     262:	fb0e 331c 	mls	r3, lr, ip, r3
     266:	fb0c f707 	mul.w	r7, ip, r7
     26a:	ea44 4403 	orr.w	r4, r4, r3, lsl #16
     26e:	42a7      	cmp	r7, r4
					str_ptr_arg[s_idx] = arg_idx;
     270:	d94d      	bls.n	30e <CONFIG_MCUBOOT_LOG_THREAD_STACK_SIZE+0xe>
     272:	192c      	adds	r4, r5, r4
					if (is_ro) {
     274:	f10c 33ff 	add.w	r3, ip, #4294967295	; 0xffffffff
     278:	d204      	bcs.n	284 <CONFIG_PM_PARTITION_SIZE_PROVISION+0x4>
     27a:	42a7      	cmp	r7, r4
						str_ptr_pos[s_idx] |= STR_POS_RO_FLAG;
     27c:	d902      	bls.n	284 <CONFIG_PM_PARTITION_SIZE_PROVISION+0x4>
     27e:	f1ac 0302 	sub.w	r3, ip, #2
     282:	442c      	add	r4, r5
						s_ro_cnt++;
     284:	1be4      	subs	r4, r4, r7
     286:	ea43 4000 	orr.w	r0, r3, r0, lsl #16
					if (BUF_OFFSET + size > len) {
     28a:	e7c0      	b.n	20e <CONFIG_PM_PARTITION_SIZE_MCUBOOT_PAD+0xe>
     28c:	f1c2 0320 	rsb	r3, r2, #32
			switch (*fmt) {
     290:	4095      	lsls	r5, r2
			buf += sizeof(char *);
     292:	4094      	lsls	r4, r2
					if (BUF_OFFSET + size > len) {
     294:	fa20 f103 	lsr.w	r1, r0, r3
			bool is_ro = (fros_cnt-- > 0) ? true : ptr_in_rodata(s);
     298:	fa2e f303 	lsr.w	r3, lr, r3
     29c:	ea4f 4e15 	mov.w	lr, r5, lsr #16
				} else if (is_ro) {
     2a0:	4090      	lsls	r0, r2
     2a2:	b2af      	uxth	r7, r5
					len += 1;
     2a4:	4303      	orrs	r3, r0
     2a6:	fbb1 fcfe 	udiv	ip, r1, lr
					len += 2;
     2aa:	fb0e 101c 	mls	r0, lr, ip, r1
				} else if (rws_pos_en) {
     2ae:	0c19      	lsrs	r1, r3, #16
					len += strlen(s) + 1 + 1;
     2b0:	fb0c f807 	mul.w	r8, ip, r7
     2b4:	ea41 4100 	orr.w	r1, r1, r0, lsl #16
     2b8:	4588      	cmp	r8, r1
     2ba:	d922      	bls.n	302 <CONFIG_MCUBOOT_LOG_THREAD_STACK_SIZE+0x2>
     2bc:	1869      	adds	r1, r5, r1
     2be:	f10c 30ff 	add.w	r0, ip, #4294967295	; 0xffffffff
	 * We remember the size of the argument list as a multiple of
	 * sizeof(int) and limit it to a 8-bit field. That means 1020 bytes
	 * worth of va_list, or about 127 arguments on a 64-bit system
	 * (twice that on 32-bit systems). That ought to be good enough.
	 */
	if (BUF_OFFSET / sizeof(int) > 255) {
     2c2:	d204      	bcs.n	2ce <CONFIG_PM_PARTITION_SIZE_PROVISION+0x4e>
     2c4:	4588      	cmp	r8, r1
     2c6:	d902      	bls.n	2ce <CONFIG_PM_PARTITION_SIZE_PROVISION+0x4e>
     2c8:	f1ac 0002 	sub.w	r0, ip, #2
	/*
	 * If all we wanted was to count required buffer size
	 * then we have it now.
	 */
	if (buf0 == NULL) {
		return BUF_OFFSET + len - CBPRINTF_PACKAGE_ALIGNMENT;
     2cc:	4429      	add	r1, r5
     2ce:	eba1 0108 	sub.w	r1, r1, r8
     2d2:	b29b      	uxth	r3, r3
     2d4:	fbb1 fcfe 	udiv	ip, r1, lr
     2d8:	fb0e 111c 	mls	r1, lr, ip, r1
	*(char **)buf0 = NULL;

	/* Record end of argument list. */
	pkg_hdr->desc.len = BUF_OFFSET / sizeof(int);

	if (rws_pos_en) {
     2dc:	fb0c f707 	mul.w	r7, ip, r7
	*(char **)buf0 = NULL;
     2e0:	ea43 4301 	orr.w	r3, r3, r1, lsl #16
		/* Strings are appended, update location counter. */
		pkg_hdr->desc.str_cnt = 0;
		pkg_hdr->desc.rw_str_cnt = s_rw_cnt;
     2e4:	429f      	cmp	r7, r3
     2e6:	d90e      	bls.n	306 <CONFIG_MCUBOOT_LOG_THREAD_STACK_SIZE+0x6>
	if (rws_pos_en) {
     2e8:	18eb      	adds	r3, r5, r3
		pkg_hdr->desc.rw_str_cnt = s_rw_cnt;
     2ea:	f10c 31ff 	add.w	r1, ip, #4294967295	; 0xffffffff
		/* Strings are appended, update append counter. */
		pkg_hdr->desc.str_cnt = s_rw_cnt;
		pkg_hdr->desc.rw_str_cnt = 0;
	}

	pkg_hdr->desc.ro_str_cnt = s_ro_cnt;
     2ee:	d204      	bcs.n	2fa <CONFIG_PM_PARTITION_SIZE_PROVISION+0x7a>
#ifdef CONFIG_CBPRINTF_PACKAGE_HEADER_STORE_CREATION_FLAGS
	pkg_hdr->desc.pkg_flags = flags;
#endif

	/* Store strings pointer locations of read only strings. */
	if (s_ro_cnt) {
     2f0:	429f      	cmp	r7, r3
     2f2:	d902      	bls.n	2fa <CONFIG_PM_PARTITION_SIZE_PROVISION+0x7a>
     2f4:	f1ac 0102 	sub.w	r1, ip, #2
		for (i = 0; i < s_idx; i++) {
     2f8:	442b      	add	r3, r5
			}

			uint8_t pos = str_ptr_pos[i] & STR_POS_MASK;

			/* make sure it fits */
			if (BUF_OFFSET + 1 > len) {
     2fa:	1bdb      	subs	r3, r3, r7
     2fc:	ea41 4100 	orr.w	r1, r1, r0, lsl #16
		for (i = 0; i < s_idx; i++) {
     300:	e793      	b.n	22a <CONFIG_PM_PARTITION_SIZE_MCUBOOT_PAD+0x2a>
			continue;
		}

		if (rws_pos_en) {
			size = 0;
			*buf++ = str_ptr_arg[i];
     302:	4660      	mov	r0, ip
     304:	e7e3      	b.n	2ce <CONFIG_PM_PARTITION_SIZE_PROVISION+0x4e>
			/* find the string length including terminating '\0' */
			size = strlen(s) + 1;
		}

		/* make sure it fits */
		if (BUF_OFFSET + 1 + size > len) {
     306:	4661      	mov	r1, ip
     308:	e7f7      	b.n	2fa <CONFIG_PM_PARTITION_SIZE_PROVISION+0x7a>
     30a:	4660      	mov	r0, ip
     30c:	e7a4      	b.n	258 <CONFIG_PM_PARTITION_SIZE_MCUBOOT_PAD+0x58>
     30e:	4663      	mov	r3, ip
			*buf++ = str_ptr_arg[i];
     310:	e7b8      	b.n	284 <CONFIG_PM_PARTITION_SIZE_PROVISION+0x4>
     312:	4283      	cmp	r3, r0
	for (i = 0; i < s_idx; i++) {
     314:	d906      	bls.n	324 <CONFIG_MCUBOOT_LOG_THREAD_STACK_SIZE+0x24>
     316:	b916      	cbnz	r6, 31e <CONFIG_MCUBOOT_LOG_THREAD_STACK_SIZE+0x1e>
	/*
	 * TODO: remove pointers for appended strings since they're useless.
	 * TODO: explore leveraging same mechanism to remove alignment padding
	 */

	return BUF_OFFSET;
     318:	2100      	movs	r1, #0
     31a:	4608      	mov	r0, r1
		pkg_hdr->desc.str_cnt = s_rw_cnt;
     31c:	e77c      	b.n	218 <CONFIG_PM_PARTITION_SIZE_MCUBOOT_PAD+0x18>
		pkg_hdr->desc.rw_str_cnt = 0;
     31e:	e9c6 e000 	strd	lr, r0, [r6]
			if (!(str_ptr_pos[i] & STR_POS_RO_FLAG)) {
     322:	e7f9      	b.n	318 <CONFIG_MCUBOOT_LOG_THREAD_STACK_SIZE+0x18>
     324:	fab3 f783 	clz	r7, r3
			if (BUF_OFFSET + 1 > len) {
     328:	b98f      	cbnz	r7, 34e <CONFIG_MCUBOOT_LOG_THREAD_STACK_SIZE+0x4e>
     32a:	4283      	cmp	r3, r0
     32c:	d301      	bcc.n	332 <CONFIG_MCUBOOT_LOG_THREAD_STACK_SIZE+0x32>
			uint8_t pos = str_ptr_pos[i] & STR_POS_MASK;
     32e:	4572      	cmp	r2, lr
     330:	d808      	bhi.n	344 <CONFIG_MCUBOOT_LOG_THREAD_STACK_SIZE+0x44>
			if (BUF_OFFSET + 1 > len) {
     332:	ebbe 0402 	subs.w	r4, lr, r2
			*buf++ = pos;
     336:	eb60 0303 	sbc.w	r3, r0, r3
		for (i = 0; i < s_idx; i++) {
     33a:	2001      	movs	r0, #1
     33c:	469c      	mov	ip, r3
		if (s_ro_cnt && str_ptr_pos[i] & STR_POS_RO_FLAG) {
     33e:	b91e      	cbnz	r6, 348 <CONFIG_MCUBOOT_LOG_THREAD_STACK_SIZE+0x48>
     340:	2100      	movs	r1, #0
     342:	e769      	b.n	218 <CONFIG_PM_PARTITION_SIZE_MCUBOOT_PAD+0x18>
     344:	4638      	mov	r0, r7
     346:	e7fa      	b.n	33e <CONFIG_MCUBOOT_LOG_THREAD_STACK_SIZE+0x3e>
     348:	e9c6 4c00 	strd	r4, ip, [r6]
		if (rws_pos_en) {
     34c:	e7f8      	b.n	340 <CONFIG_MCUBOOT_LOG_THREAD_STACK_SIZE+0x40>
     34e:	f1c7 0c20 	rsb	ip, r7, #32
			*buf++ = str_ptr_arg[i];
     352:	40bb      	lsls	r3, r7
     354:	fa0e f507 	lsl.w	r5, lr, r7
			size = 0;
     358:	fa22 f40c 	lsr.w	r4, r2, ip
		if (BUF_OFFSET + 1 + size > len) {
     35c:	fa2e f10c 	lsr.w	r1, lr, ip
     360:	40ba      	lsls	r2, r7
     362:	431c      	orrs	r4, r3
     364:	fa20 f30c 	lsr.w	r3, r0, ip
		*buf++ = str_ptr_pos[i];
     368:	40b8      	lsls	r0, r7
		memcpy(buf, s, size);
     36a:	ea4f 4914 	mov.w	r9, r4, lsr #16
		*buf++ = str_ptr_pos[i];
     36e:	4301      	orrs	r1, r0
		memcpy(buf, s, size);
     370:	fa1f fe84 	uxth.w	lr, r4
     374:	fbb3 f8f9 	udiv	r8, r3, r9
		buf += size;
     378:	fb09 3018 	mls	r0, r9, r8, r3
	for (i = 0; i < s_idx; i++) {
     37c:	0c0b      	lsrs	r3, r1, #16
     37e:	fb08 fa0e 	mul.w	sl, r8, lr
     382:	ea43 4300 	orr.w	r3, r3, r0, lsl #16
			s = *(char **)(buf0 + str_ptr_pos[i] * sizeof(int));
     386:	459a      	cmp	sl, r3
     388:	d940      	bls.n	40c <CONFIG_FLASH_SIZE+0xc>
     38a:	18e3      	adds	r3, r4, r3
     38c:	f108 30ff 	add.w	r0, r8, #4294967295	; 0xffffffff
			*(char **)(buf0 + str_ptr_pos[i] * sizeof(int)) = NULL;
     390:	d204      	bcs.n	39c <CONFIG_MCUBOOT_LOG_THREAD_STACK_SIZE+0x9c>
			size = strlen(s) + 1;
     392:	459a      	cmp	sl, r3
			*(char **)(buf0 + str_ptr_pos[i] * sizeof(int)) = NULL;
     394:	d902      	bls.n	39c <CONFIG_MCUBOOT_LOG_THREAD_STACK_SIZE+0x9c>
     396:	f1a8 0002 	sub.w	r0, r8, #2
			size = strlen(s) + 1;
     39a:	4423      	add	r3, r4
     39c:	eba3 030a 	sub.w	r3, r3, sl
		return -EFAULT;
     3a0:	b289      	uxth	r1, r1
     3a2:	fbb3 f8f9 	udiv	r8, r3, r9
     3a6:	fb09 3318 	mls	r3, r9, r8, r3
     3aa:	fb08 fe0e 	mul.w	lr, r8, lr
     3ae:	ea41 4103 	orr.w	r1, r1, r3, lsl #16
     3b2:	458e      	cmp	lr, r1
     3b4:	d92c      	bls.n	410 <CONFIG_FLASH_SIZE+0x10>
     3b6:	1861      	adds	r1, r4, r1
     3b8:	f108 33ff 	add.w	r3, r8, #4294967295	; 0xffffffff
     3bc:	d204      	bcs.n	3c8 <CONFIG_MCUBOOT_LOG_THREAD_STACK_SIZE+0xc8>
     3be:	458e      	cmp	lr, r1
     3c0:	d902      	bls.n	3c8 <CONFIG_MCUBOOT_LOG_THREAD_STACK_SIZE+0xc8>
     3c2:	f1a8 0302 	sub.w	r3, r8, #2
     3c6:	4421      	add	r1, r4
     3c8:	ea43 4000 	orr.w	r0, r3, r0, lsl #16
     3cc:	eba1 010e 	sub.w	r1, r1, lr
     3d0:	fba0 9802 	umull	r9, r8, r0, r2
     3d4:	4541      	cmp	r1, r8
     3d6:	46ce      	mov	lr, r9
     3d8:	4643      	mov	r3, r8
     3da:	d302      	bcc.n	3e2 <CONFIG_MCUBOOT_LOG_THREAD_STACK_SIZE+0xe2>
     3dc:	d106      	bne.n	3ec <CONFIG_MCUBOOT_LOG_THREAD_STACK_SIZE+0xec>
     3de:	454d      	cmp	r5, r9
     3e0:	d204      	bcs.n	3ec <CONFIG_MCUBOOT_LOG_THREAD_STACK_SIZE+0xec>
     3e2:	3801      	subs	r0, #1
     3e4:	ebb9 0e02 	subs.w	lr, r9, r2
     3e8:	eb68 0304 	sbc.w	r3, r8, r4
     3ec:	2e00      	cmp	r6, #0
     3ee:	d0a7      	beq.n	340 <CONFIG_MCUBOOT_LOG_THREAD_STACK_SIZE+0x40>
     3f0:	ebb5 020e 	subs.w	r2, r5, lr
     3f4:	eb61 0103 	sbc.w	r1, r1, r3
     3f8:	fa01 fc0c 	lsl.w	ip, r1, ip
     3fc:	fa22 f307 	lsr.w	r3, r2, r7
     400:	40f9      	lsrs	r1, r7
     402:	ea4c 0303 	orr.w	r3, ip, r3
     406:	e9c6 3100 	strd	r3, r1, [r6]
     40a:	e799      	b.n	340 <CONFIG_MCUBOOT_LOG_THREAD_STACK_SIZE+0x40>
     40c:	4640      	mov	r0, r8
     40e:	e7c5      	b.n	39c <CONFIG_MCUBOOT_LOG_THREAD_STACK_SIZE+0x9c>
     410:	4643      	mov	r3, r8
     412:	e7d9      	b.n	3c8 <CONFIG_MCUBOOT_LOG_THREAD_STACK_SIZE+0xc8>

00000414 <main>:
    return (bool)pin_active;
}
#endif

void main(void)
{
     414:	b5f0      	push	{r4, r5, r6, r7, lr}
}

NRF_STATIC_INLINE void nrf_wdt_reload_request_set(NRF_WDT_Type *        p_reg,
                                                  nrf_wdt_rr_register_t rr_register)
{
    p_reg->RR[rr_register] = NRF_WDT_RR_VALUE;
     416:	4b2f      	ldr	r3, [pc, #188]	; (4d4 <FIH_LABEL_FIH_CALL_END_235+0x86>)
     418:	4a2f      	ldr	r2, [pc, #188]	; (4d8 <FIH_LABEL_FIH_CALL_END_235+0x8a>)
    fih_int fih_rc = FIH_FAILURE;

    MCUBOOT_WATCHDOG_FEED();

#if !defined(MCUBOOT_DIRECT_XIP)
    BOOT_LOG_INF("Starting bootloader");
     41a:	2149      	movs	r1, #73	; 0x49
     41c:	f8c3 2600 	str.w	r2, [r3, #1536]	; 0x600
     420:	482e      	ldr	r0, [pc, #184]	; (4dc <FIH_LABEL_FIH_CALL_END_235+0x8e>)
     422:	f8c3 2604 	str.w	r2, [r3, #1540]	; 0x604
{
     426:	b085      	sub	sp, #20
     428:	f8c3 2608 	str.w	r2, [r3, #1544]	; 0x608
     42c:	f8c3 260c 	str.w	r2, [r3, #1548]	; 0x60c
     430:	f8c3 2610 	str.w	r2, [r3, #1552]	; 0x610
     434:	f8c3 2614 	str.w	r2, [r3, #1556]	; 0x614
     438:	f8c3 2618 	str.w	r2, [r3, #1560]	; 0x618
     43c:	f8c3 261c 	str.w	r2, [r3, #1564]	; 0x61c
    BOOT_LOG_INF("Starting bootloader");
     440:	f005 fe00 	bl	6044 <z_log_minimal_printk>
#ifdef CONFIG_MCUBOOT_INDICATION_LED
    /* LED init */
    led_init();
#endif

    os_heap_init();
     444:	f005 f9a7 	bl	5796 <os_heap_init>

00000448 <FIH_LABEL_FIH_CALL_START_223>:
    rc = boot_console_init();
    int timeout_in_ms = CONFIG_BOOT_SERIAL_WAIT_FOR_DFU_TIMEOUT;
    uint32_t start = k_uptime_get_32();
#endif

    FIH_CALL(boot_go, fih_rc, &rsp);
     448:	a801      	add	r0, sp, #4
     44a:	f000 fc7f 	bl	d4c <boot_go>

0000044e <FIH_LABEL_FIH_CALL_END_235>:
        timeout_in_ms = 1;
    }
    boot_serial_check_start(&boot_funcs,timeout_in_ms);
#endif

    if (fih_not_eq(fih_rc, FIH_SUCCESS)) {
     44e:	4b24      	ldr	r3, [pc, #144]	; (4e0 <FIH_LABEL_FIH_CALL_END_235+0x92>)
     450:	681b      	ldr	r3, [r3, #0]
     452:	4283      	cmp	r3, r0
     454:	d004      	beq.n	460 <FIH_LABEL_FIH_CALL_END_235+0x12>
        BOOT_LOG_ERR("Unable to find bootable image");
     456:	2145      	movs	r1, #69	; 0x45
     458:	4822      	ldr	r0, [pc, #136]	; (4e4 <FIH_LABEL_FIH_CALL_END_235+0x96>)
     45a:	f005 fdf3 	bl	6044 <z_log_minimal_printk>

        mcuboot_status_change(MCUBOOT_STATUS_NO_BOOTABLE_IMAGE_FOUND);

        FIH_PANIC;
     45e:	e7fe      	b.n	45e <FIH_LABEL_FIH_CALL_END_235+0x10>
    }

    BOOT_LOG_INF("Bootloader chainload address offset: 0x%x",
     460:	9a03      	ldr	r2, [sp, #12]
     462:	2149      	movs	r1, #73	; 0x49
     464:	4820      	ldr	r0, [pc, #128]	; (4e8 <CONFIG_NRF_MODEM_SHMEM_CTRL_SIZE>)
     466:	f005 fded 	bl	6044 <z_log_minimal_printk>
                 rsp.br_image_off);

#if defined(MCUBOOT_DIRECT_XIP)
    BOOT_LOG_INF("Jumping to the image slot");
#else
    BOOT_LOG_INF("Jumping to the first image slot");
     46a:	2149      	movs	r1, #73	; 0x49
     46c:	481f      	ldr	r0, [pc, #124]	; (4ec <CONFIG_NRF_MODEM_SHMEM_CTRL_SIZE+0x4>)
     46e:	f005 fde9 	bl	6044 <z_log_minimal_printk>
/* There is only one instance of MCUBoot */
#define PROTECT_SIZE (PM_MCUBOOT_PRIMARY_ADDRESS - PM_MCUBOOT_ADDRESS)
#define PROTECT_ADDR PM_MCUBOOT_ADDRESS
#endif

    rc = fprotect_area(PROTECT_ADDR, PROTECT_SIZE);
     472:	f44f 3180 	mov.w	r1, #65536	; 0x10000
     476:	2000      	movs	r0, #0
     478:	f002 fe58 	bl	312c <fprotect_area>

    if (rc != 0) {
     47c:	4604      	mov	r4, r0
     47e:	b120      	cbz	r0, 48a <FIH_LABEL_FIH_CALL_END_235+0x3c>
        BOOT_LOG_ERR("Protect mcuboot flash failed, cancel startup.");
     480:	2145      	movs	r1, #69	; 0x45
     482:	481b      	ldr	r0, [pc, #108]	; (4f0 <CONFIG_NRF_MODEM_SHMEM_CTRL_SIZE+0x8>)
     484:	f005 fdde 	bl	6044 <z_log_minimal_printk>
        while (1)
     488:	e7fe      	b.n	488 <FIH_LABEL_FIH_CALL_END_235+0x3a>
    rc = flash_device_base(rsp->br_flash_dev_id, &flash_base);
     48a:	4669      	mov	r1, sp
     48c:	f89d 0008 	ldrb.w	r0, [sp, #8]
     490:	f000 f832 	bl	4f8 <flash_device_base>
    vt = (struct arm_vector_table *)(flash_base +
     494:	9b00      	ldr	r3, [sp, #0]
     496:	9d03      	ldr	r5, [sp, #12]
     498:	441d      	add	r5, r3
                                     rsp->br_hdr->ih_hdr_size);
     49a:	9b01      	ldr	r3, [sp, #4]
     49c:	891e      	ldrh	r6, [r3, #8]
    nrf_cleanup_peripheral();
     49e:	f000 ff5b 	bl	1358 <nrf_cleanup_peripheral>
                                     rsp->br_image_off +
     4a2:	19af      	adds	r7, r5, r6
    cleanup_arm_nvic(); /* cleanup NVIC registers */
     4a4:	f000 ff3c 	bl	1320 <cleanup_arm_nvic>
    z_arm_clear_arm_mpu_config();
     4a8:	f001 feb4 	bl	2214 <z_arm_clear_arm_mpu_config>
#if (!(defined (__ARM_ARCH_8M_MAIN__ ) && (__ARM_ARCH_8M_MAIN__ == 1)) && \
    (!defined (__ARM_FEATURE_CMSE) || (__ARM_FEATURE_CMSE < 3)))
  // without main extensions, the non-secure PSPLIM is RAZ/WI
  (void)ProcStackPtrLimit;
#else
  __ASM volatile ("MSR psplim, %0" : : "r" (ProcStackPtrLimit));
     4ac:	f384 880b 	msr	PSPLIM, r4
#if (!(defined (__ARM_ARCH_8M_MAIN__ ) && (__ARM_ARCH_8M_MAIN__ == 1)) && \
    (!defined (__ARM_FEATURE_CMSE) || (__ARM_FEATURE_CMSE < 3)))
  // without main extensions, the non-secure MSPLIM is RAZ/WI
  (void)MainStackPtrLimit;
#else
  __ASM volatile ("MSR msplim, %0" : : "r" (MainStackPtrLimit));
     4b0:	f384 880a 	msr	MSPLIM, r4
  __ASM volatile ("MSR msp, %0" : : "r" (topOfMainStack) : );
     4b4:	59ab      	ldr	r3, [r5, r6]
     4b6:	f383 8808 	msr	MSP, r3
  __ASM volatile ("MSR control, %0" : : "r" (control) : "memory");
     4ba:	f384 8814 	msr	CONTROL, r4
  __ASM volatile ("isb 0xF":::"memory");
     4be:	f3bf 8f6f 	isb	sy
     4c2:	f3bf 8f6f 	isb	sy
    ((void (*)(void))vt->reset)();
     4c6:	687b      	ldr	r3, [r7, #4]
     4c8:	4798      	blx	r3

    do_boot(&rsp);

    mcuboot_status_change(MCUBOOT_STATUS_BOOT_FAILED);

    BOOT_LOG_ERR("Never should get here");
     4ca:	2145      	movs	r1, #69	; 0x45
     4cc:	4809      	ldr	r0, [pc, #36]	; (4f4 <CONFIG_NRF_MODEM_SHMEM_CTRL_SIZE+0xc>)
     4ce:	f005 fdb9 	bl	6044 <z_log_minimal_printk>
    while (1)
     4d2:	e7fe      	b.n	4d2 <FIH_LABEL_FIH_CALL_END_235+0x84>
     4d4:	50018000 	.word	0x50018000
     4d8:	6e524635 	.word	0x6e524635
     4dc:	00007030 	.word	0x00007030
     4e0:	200001d0 	.word	0x200001d0
     4e4:	00007049 	.word	0x00007049
     4e8:	0000706c 	.word	0x0000706c
     4ec:	0000709b 	.word	0x0000709b
     4f0:	000070c0 	.word	0x000070c0
     4f4:	000070f3 	.word	0x000070f3

000004f8 <flash_device_base>:

static const struct device *flash_dev = DEVICE_DT_GET(FLASH_DEVICE_NODE);

int flash_device_base(uint8_t fd_id, uintptr_t *ret)
{
    if (fd_id != FLASH_DEVICE_ID) {
     4f8:	4602      	mov	r2, r0
{
     4fa:	b508      	push	{r3, lr}
    if (fd_id != FLASH_DEVICE_ID) {
     4fc:	b138      	cbz	r0, 50e <flash_device_base+0x16>
        BOOT_LOG_ERR("invalid flash ID %d; expected %d",
     4fe:	4805      	ldr	r0, [pc, #20]	; (514 <flash_device_base+0x1c>)
     500:	2300      	movs	r3, #0
     502:	2145      	movs	r1, #69	; 0x45
     504:	f005 fd9e 	bl	6044 <z_log_minimal_printk>
                     fd_id, FLASH_DEVICE_ID);
        return -EINVAL;
     508:	f06f 0015 	mvn.w	r0, #21
    }
    *ret = FLASH_DEVICE_BASE;
    return 0;
}
     50c:	bd08      	pop	{r3, pc}
    *ret = FLASH_DEVICE_BASE;
     50e:	6008      	str	r0, [r1, #0]
    return 0;
     510:	e7fc      	b.n	50c <flash_device_base+0x14>
     512:	bf00      	nop
     514:	00007116 	.word	0x00007116

00000518 <flash_area_sector_from_off>:
    return -EINVAL;
}
#endif

int flash_area_sector_from_off(off_t off, struct flash_sector *sector)
{
     518:	b51f      	push	{r0, r1, r2, r3, r4, lr}
     51a:	460c      	mov	r4, r1
		union { uintptr_t x; struct flash_pages_info * val; } parm2 = { .val = info };
		return (int) arch_syscall_invoke3(parm0.x, parm1.x, parm2.x, K_SYSCALL_FLASH_GET_PAGE_INFO_BY_OFFS);
	}
#endif
	compiler_barrier();
	return z_impl_flash_get_page_info_by_offs(dev, offset, info);
     51c:	4601      	mov	r1, r0
     51e:	aa01      	add	r2, sp, #4
     520:	4804      	ldr	r0, [pc, #16]	; (534 <flash_area_sector_from_off+0x1c>)
     522:	f005 ff70 	bl	6406 <z_impl_flash_get_page_info_by_offs>
    int rc;
    struct flash_pages_info page;

    rc = flash_get_page_info_by_offs(flash_dev, off, &page);
    if (rc) {
     526:	b918      	cbnz	r0, 530 <flash_area_sector_from_off+0x18>
        return rc;
    }

    sector->fs_off = page.start_offset;
     528:	9b01      	ldr	r3, [sp, #4]
     52a:	6023      	str	r3, [r4, #0]
    sector->fs_size = page.size;
     52c:	9b02      	ldr	r3, [sp, #8]
     52e:	6063      	str	r3, [r4, #4]

    return rc;
}
     530:	b004      	add	sp, #16
     532:	bd10      	pop	{r4, pc}
     534:	000069f8 	.word	0x000069f8

00000538 <bootutil_img_validate>:
fih_int
bootutil_img_validate(struct enc_key_data *enc_state, int image_index,
                      struct image_header *hdr, const struct flash_area *fap,
                      uint8_t *tmp_buf, uint32_t tmp_buf_sz, uint8_t *seed,
                      int seed_len, uint8_t *out_hash)
{
     538:	e92d 4ff0 	stmdb	sp!, {r4, r5, r6, r7, r8, r9, sl, fp, lr}
     53c:	461e      	mov	r6, r3
    uint32_t off;
    uint16_t len;
    uint16_t type;
    int sha256_valid = 0;
#ifdef EXPECTED_SIG_TLV
    fih_int valid_signature = FIH_FAILURE;
     53e:	4b83      	ldr	r3, [pc, #524]	; (74c <FIH_LABEL_FIH_CALL_END_1023+0x20>)
{
     540:	b0db      	sub	sp, #364	; 0x16c
     542:	4614      	mov	r4, r2
     544:	e9dd 5766 	ldrd	r5, r7, [sp, #408]	; 0x198
    fih_int valid_signature = FIH_FAILURE;
     548:	f8d3 8000 	ldr.w	r8, [r3]
{
     54c:	f8dd b1a0 	ldr.w	fp, [sp, #416]	; 0x1a0
}

/* Enable and disable cc310 to reduce power consumption */
static inline void cc310_sha256_init(nrf_cc310_bl_hash_context_sha256_t * ctx)
{
    cc310_init();
     550:	f000 feb0 	bl	12b4 <cc310_init>
    NRF_CRYPTOCELL->ENABLE=1;
     554:	2201      	movs	r2, #1
     556:	4b7e      	ldr	r3, [pc, #504]	; (750 <FIH_LABEL_FIH_CALL_END_1023+0x24>)
    nrf_cc310_enable();
    nrf_cc310_bl_hash_sha256_init(ctx);
     558:	a83a      	add	r0, sp, #232	; 0xe8
    NRF_CRYPTOCELL->ENABLE=1;
     55a:	f8c3 2500 	str.w	r2, [r3, #1280]	; 0x500
    nrf_cc310_bl_hash_sha256_init(ctx);
     55e:	f004 f849 	bl	45f4 <nrf_cc310_bl_hash_sha256_init>
    if (seed && (seed_len > 0)) {
     562:	b135      	cbz	r5, 572 <bootutil_img_validate+0x3a>
     564:	2f00      	cmp	r7, #0
     566:	dd04      	ble.n	572 <bootutil_img_validate+0x3a>

static inline int bootutil_sha256_update(bootutil_sha256_context *ctx,
                                          const void *data,
                                          uint32_t data_len)
{
    cc310_sha256_update(ctx, data, data_len);
     568:	463a      	mov	r2, r7
     56a:	4629      	mov	r1, r5
     56c:	a83a      	add	r0, sp, #232	; 0xe8
     56e:	f005 fc64 	bl	5e3a <cc310_sha256_update>
    for (off = 0; off < size; off += blk_sz) {
     572:	f04f 0900 	mov.w	r9, #0
    size += hdr->ih_protect_tlv_size;
     576:	8963      	ldrh	r3, [r4, #10]
    size = hdr_size = hdr->ih_hdr_size;
     578:	8927      	ldrh	r7, [r4, #8]
     57a:	441f      	add	r7, r3
    size += hdr->ih_protect_tlv_size;
     57c:	68e3      	ldr	r3, [r4, #12]
     57e:	441f      	add	r7, r3
    for (off = 0; off < size; off += blk_sz) {
     580:	454f      	cmp	r7, r9
     582:	d825      	bhi.n	5d0 <bootutil_img_validate+0x98>
}

static inline void cc310_sha256_finalize(bootutil_sha256_context *ctx,
                                          uint8_t *output)
{
    nrf_cc310_bl_hash_sha256_finalize(ctx,
     584:	a90d      	add	r1, sp, #52	; 0x34
     586:	a83a      	add	r0, sp, #232	; 0xe8
     588:	f004 f8a6 	bl	46d8 <nrf_cc310_bl_hash_sha256_finalize>
    NRF_CRYPTOCELL->ENABLE=0;
     58c:	2200      	movs	r2, #0
     58e:	4b70      	ldr	r3, [pc, #448]	; (750 <FIH_LABEL_FIH_CALL_END_1023+0x24>)
     590:	f8c3 2500 	str.w	r2, [r3, #1280]	; 0x500
     594:	f8c3 2500 	str.w	r2, [r3, #1280]	; 0x500
            tmp_buf_sz, hash, seed, seed_len);
    if (rc) {
        goto out;
    }

    if (out_hash) {
     598:	f1bb 0f00 	cmp.w	fp, #0
     59c:	d004      	beq.n	5a8 <bootutil_img_validate+0x70>
        memcpy(out_hash, hash, 32);
     59e:	2220      	movs	r2, #32
     5a0:	4658      	mov	r0, fp
     5a2:	a90d      	add	r1, sp, #52	; 0x34
     5a4:	f005 fdf7 	bl	6196 <memcpy>
    }

    rc = bootutil_tlv_iter_begin(&it, hdr, fap, IMAGE_TLV_ANY, false);
     5a8:	2300      	movs	r3, #0
     5aa:	4632      	mov	r2, r6
     5ac:	9300      	str	r3, [sp, #0]
     5ae:	4621      	mov	r1, r4
     5b0:	f64f 73ff 	movw	r3, #65535	; 0xffff
     5b4:	a807      	add	r0, sp, #28
     5b6:	f005 f8ef 	bl	5798 <bootutil_tlv_iter_begin>
    if (rc) {
     5ba:	4605      	mov	r5, r0
     5bc:	b9d0      	cbnz	r0, 5f4 <bootutil_img_validate+0xbc>
        goto out;
    }

    if (it.tlv_end > bootutil_max_image_size(fap)) {
     5be:	4630      	mov	r0, r6
     5c0:	9c0c      	ldr	r4, [sp, #48]	; 0x30
     5c2:	f000 f983 	bl	8cc <bootutil_max_image_size>
     5c6:	4284      	cmp	r4, r0
     5c8:	d91f      	bls.n	60a <bootutil_img_validate+0xd2>
        rc = -1;
     5ca:	f04f 35ff 	mov.w	r5, #4294967295	; 0xffffffff
     5ce:	e011      	b.n	5f4 <bootutil_img_validate+0xbc>
        if (blk_sz > tmp_buf_sz) {
     5d0:	9b65      	ldr	r3, [sp, #404]	; 0x194
        blk_sz = size - off;
     5d2:	eba7 0a09 	sub.w	sl, r7, r9
     5d6:	459a      	cmp	sl, r3
     5d8:	bf28      	it	cs
     5da:	469a      	movcs	sl, r3
        rc = flash_area_read(fap, off, tmp_buf, blk_sz);
     5dc:	4649      	mov	r1, r9
     5de:	4653      	mov	r3, sl
     5e0:	4630      	mov	r0, r6
     5e2:	9a64      	ldr	r2, [sp, #400]	; 0x190
     5e4:	f005 fd3c 	bl	6060 <flash_area_read>
        if (rc) {
     5e8:	4605      	mov	r5, r0
     5ea:	b138      	cbz	r0, 5fc <bootutil_img_validate+0xc4>
     5ec:	2200      	movs	r2, #0
     5ee:	4b58      	ldr	r3, [pc, #352]	; (750 <FIH_LABEL_FIH_CALL_END_1023+0x24>)
     5f0:	f8c3 2500 	str.w	r2, [r3, #1280]	; 0x500
    if (rc) {
        fih_rc = fih_int_encode(rc);
    }

    FIH_RET(fih_rc);
}
     5f4:	4628      	mov	r0, r5
     5f6:	b05b      	add	sp, #364	; 0x16c
     5f8:	e8bd 8ff0 	ldmia.w	sp!, {r4, r5, r6, r7, r8, r9, sl, fp, pc}
     5fc:	4652      	mov	r2, sl
     5fe:	9964      	ldr	r1, [sp, #400]	; 0x190
     600:	a83a      	add	r0, sp, #232	; 0xe8
     602:	f005 fc1a 	bl	5e3a <cc310_sha256_update>
    for (off = 0; off < size; off += blk_sz) {
     606:	44d1      	add	r9, sl
     608:	e7ba      	b.n	580 <bootutil_img_validate+0x48>
    int key_id = -1;
     60a:	f04f 37ff 	mov.w	r7, #4294967295	; 0xffffffff
            if (key_id < 0 || key_id >= bootutil_key_cnt) {
     60e:	f8df b14c 	ldr.w	fp, [pc, #332]	; 75c <FIH_LABEL_FIH_CALL_END_1023+0x30>
     612:	f8df 913c 	ldr.w	r9, [pc, #316]	; 750 <FIH_LABEL_FIH_CALL_END_1023+0x24>
        rc = bootutil_tlv_iter_next(&it, &off, &len, &type);
     616:	f10d 0316 	add.w	r3, sp, #22
     61a:	aa05      	add	r2, sp, #20
     61c:	a906      	add	r1, sp, #24
     61e:	a807      	add	r0, sp, #28
     620:	f005 f908 	bl	5834 <bootutil_tlv_iter_next>
        if (rc < 0) {
     624:	1e04      	subs	r4, r0, #0
     626:	f2c0 808f 	blt.w	748 <FIH_LABEL_FIH_CALL_END_1023+0x1c>
        } else if (rc > 0) {
     62a:	f040 8082 	bne.w	732 <FIH_LABEL_FIH_CALL_END_1023+0x6>
        if (type == IMAGE_TLV_SHA256) {
     62e:	f8bd a016 	ldrh.w	sl, [sp, #22]
     632:	f1ba 0f10 	cmp.w	sl, #16
     636:	d118      	bne.n	66a <FIH_LABEL_FIH_CALL_END_703+0xc>
            if (len != sizeof(hash)) {
     638:	f8bd 5014 	ldrh.w	r5, [sp, #20]
     63c:	2d20      	cmp	r5, #32
     63e:	d1c4      	bne.n	5ca <bootutil_img_validate+0x92>
            rc = LOAD_IMAGE_DATA(hdr, fap, off, buf, sizeof(hash));
     640:	462b      	mov	r3, r5
     642:	4630      	mov	r0, r6
     644:	9906      	ldr	r1, [sp, #24]
     646:	aa3a      	add	r2, sp, #232	; 0xe8
     648:	f005 fd0a 	bl	6060 <flash_area_read>
            if (rc) {
     64c:	4604      	mov	r4, r0
     64e:	2800      	cmp	r0, #0
     650:	d17a      	bne.n	748 <FIH_LABEL_FIH_CALL_END_1023+0x1c>

00000652 <FIH_LABEL_FIH_CALL_START_686>:
            FIH_CALL(boot_fih_memequal, fih_rc, hash, buf, sizeof(hash));
     652:	462a      	mov	r2, r5
     654:	a93a      	add	r1, sp, #232	; 0xe8
     656:	a80d      	add	r0, sp, #52	; 0x34
     658:	f005 f964 	bl	5924 <boot_fih_memequal>
     65c:	4605      	mov	r5, r0

0000065e <FIH_LABEL_FIH_CALL_END_703>:
            if (fih_not_eq(fih_rc, FIH_SUCCESS)) {
     65e:	4b3d      	ldr	r3, [pc, #244]	; (754 <FIH_LABEL_FIH_CALL_END_1023+0x28>)
     660:	681b      	ldr	r3, [r3, #0]
     662:	4283      	cmp	r3, r0
     664:	d1c6      	bne.n	5f4 <bootutil_img_validate+0xbc>
            sha256_valid = 1;
     666:	2501      	movs	r5, #1
     668:	e7d5      	b.n	616 <bootutil_img_validate+0xde>
        } else if (type == IMAGE_TLV_KEYHASH) {
     66a:	f1ba 0f01 	cmp.w	sl, #1
     66e:	d13e      	bne.n	6ee <FIH_LABEL_FIH_CALL_END_703+0x90>
            if (len > 32) {
     670:	f8bd 3014 	ldrh.w	r3, [sp, #20]
     674:	2b20      	cmp	r3, #32
     676:	d8a8      	bhi.n	5ca <bootutil_img_validate+0x92>
            rc = LOAD_IMAGE_DATA(hdr, fap, off, buf, len);
     678:	4630      	mov	r0, r6
     67a:	9906      	ldr	r1, [sp, #24]
     67c:	aa3a      	add	r2, sp, #232	; 0xe8
     67e:	f005 fcef 	bl	6060 <flash_area_read>
            if (rc) {
     682:	4604      	mov	r4, r0
     684:	2800      	cmp	r0, #0
     686:	d15f      	bne.n	748 <FIH_LABEL_FIH_CALL_END_1023+0x1c>
            key_id = bootutil_find_key(buf, len);
     688:	f89d 3014 	ldrb.w	r3, [sp, #20]
    if (keyhash_len > 32) {
     68c:	2b20      	cmp	r3, #32
            key_id = bootutil_find_key(buf, len);
     68e:	9302      	str	r3, [sp, #8]
    if (keyhash_len > 32) {
     690:	d809      	bhi.n	6a6 <FIH_LABEL_FIH_CALL_END_703+0x48>
    for (i = 0; i < bootutil_key_cnt; i++) {
     692:	f8db 3000 	ldr.w	r3, [fp]
     696:	4f30      	ldr	r7, [pc, #192]	; (758 <FIH_LABEL_FIH_CALL_END_1023+0x2c>)
     698:	9303      	str	r3, [sp, #12]
     69a:	9b03      	ldr	r3, [sp, #12]
     69c:	429c      	cmp	r4, r3
     69e:	db05      	blt.n	6ac <FIH_LABEL_FIH_CALL_END_703+0x4e>
     6a0:	2300      	movs	r3, #0
     6a2:	f8c9 3500 	str.w	r3, [r9, #1280]	; 0x500
        return -1;
     6a6:	f04f 34ff 	mov.w	r4, #4294967295	; 0xffffffff
     6aa:	e01c      	b.n	6e6 <FIH_LABEL_FIH_CALL_END_703+0x88>
    cc310_init();
     6ac:	f000 fe02 	bl	12b4 <cc310_init>
    NRF_CRYPTOCELL->ENABLE=1;
     6b0:	f8c9 a500 	str.w	sl, [r9, #1280]	; 0x500
    nrf_cc310_bl_hash_sha256_init(ctx);
     6b4:	a81d      	add	r0, sp, #116	; 0x74
     6b6:	f003 ff9d 	bl	45f4 <nrf_cc310_bl_hash_sha256_init>
        bootutil_sha256_update(&sha256_ctx, key->key, *key->len);
     6ba:	687a      	ldr	r2, [r7, #4]
     6bc:	a81d      	add	r0, sp, #116	; 0x74
     6be:	6812      	ldr	r2, [r2, #0]
     6c0:	f857 1b08 	ldr.w	r1, [r7], #8
     6c4:	f005 fbb9 	bl	5e3a <cc310_sha256_update>
    nrf_cc310_bl_hash_sha256_finalize(ctx,
     6c8:	a915      	add	r1, sp, #84	; 0x54
     6ca:	a81d      	add	r0, sp, #116	; 0x74
     6cc:	f004 f804 	bl	46d8 <nrf_cc310_bl_hash_sha256_finalize>
    NRF_CRYPTOCELL->ENABLE=0;
     6d0:	2200      	movs	r2, #0
     6d2:	f8c9 2500 	str.w	r2, [r9, #1280]	; 0x500
        if (!memcmp(hash, keyhash, keyhash_len)) {
     6d6:	9a02      	ldr	r2, [sp, #8]
     6d8:	a93a      	add	r1, sp, #232	; 0xe8
     6da:	a815      	add	r0, sp, #84	; 0x54
     6dc:	f005 fd4b 	bl	6176 <memcmp>
     6e0:	b918      	cbnz	r0, 6ea <FIH_LABEL_FIH_CALL_END_703+0x8c>
     6e2:	f8c9 0500 	str.w	r0, [r9, #1280]	; 0x500
            key_id = bootutil_find_key(buf, len);
     6e6:	4627      	mov	r7, r4
     6e8:	e795      	b.n	616 <bootutil_img_validate+0xde>
    for (i = 0; i < bootutil_key_cnt; i++) {
     6ea:	3401      	adds	r4, #1
     6ec:	e7d5      	b.n	69a <FIH_LABEL_FIH_CALL_END_703+0x3c>
        } else if (type == EXPECTED_SIG_TLV) {
     6ee:	f1ba 0f22 	cmp.w	sl, #34	; 0x22
     6f2:	d190      	bne.n	616 <bootutil_img_validate+0xde>
            if (key_id < 0 || key_id >= bootutil_key_cnt) {
     6f4:	1c7b      	adds	r3, r7, #1
     6f6:	d08e      	beq.n	616 <bootutil_img_validate+0xde>
     6f8:	f8db 3000 	ldr.w	r3, [fp]
     6fc:	42bb      	cmp	r3, r7
     6fe:	dd15      	ble.n	72c <FIH_LABEL_FIH_CALL_END_1023>
            if (!EXPECTED_SIG_LEN(len) || len > sizeof(buf)) {
     700:	f8bd 3014 	ldrh.w	r3, [sp, #20]
     704:	2b80      	cmp	r3, #128	; 0x80
     706:	f63f af60 	bhi.w	5ca <bootutil_img_validate+0x92>
            rc = LOAD_IMAGE_DATA(hdr, fap, off, buf, len);
     70a:	4630      	mov	r0, r6
     70c:	9906      	ldr	r1, [sp, #24]
     70e:	aa3a      	add	r2, sp, #232	; 0xe8
     710:	f005 fca6 	bl	6060 <flash_area_read>
            if (rc) {
     714:	4604      	mov	r4, r0
     716:	b9b8      	cbnz	r0, 748 <FIH_LABEL_FIH_CALL_END_1023+0x1c>

00000718 <FIH_LABEL_FIH_CALL_START_1002>:
            FIH_CALL(bootutil_verify_sig, valid_signature, hash, sizeof(hash),
     718:	b2ff      	uxtb	r7, r7
     71a:	2120      	movs	r1, #32
     71c:	f8bd 3014 	ldrh.w	r3, [sp, #20]
     720:	9700      	str	r7, [sp, #0]
     722:	aa3a      	add	r2, sp, #232	; 0xe8
     724:	a80d      	add	r0, sp, #52	; 0x34
     726:	f000 f81b 	bl	760 <bootutil_verify_sig>
     72a:	4680      	mov	r8, r0

0000072c <FIH_LABEL_FIH_CALL_END_1023>:
            key_id = -1;
     72c:	f04f 37ff 	mov.w	r7, #4294967295	; 0xffffffff
     730:	e771      	b.n	616 <bootutil_img_validate+0xde>
    if (rc) {
     732:	b145      	cbz	r5, 746 <FIH_LABEL_FIH_CALL_END_1023+0x1a>
    fih_rc = fih_int_encode_zero_equality(fih_not_eq(valid_signature,
     734:	4b07      	ldr	r3, [pc, #28]	; (754 <FIH_LABEL_FIH_CALL_END_1023+0x28>)
 * value that is not FIH_SUCCESS
 */
__attribute__((always_inline)) inline
fih_int fih_int_encode_zero_equality(int x)
{
    if (x) {
     736:	681b      	ldr	r3, [r3, #0]
     738:	4543      	cmp	r3, r8
        return FIH_FAILURE;
     73a:	bf1c      	itt	ne
     73c:	4b03      	ldrne	r3, [pc, #12]	; (74c <FIH_LABEL_FIH_CALL_END_1023+0x20>)
     73e:	f8d3 8000 	ldrne.w	r8, [r3]
        return -1;
     742:	4645      	mov	r5, r8
     744:	e756      	b.n	5f4 <bootutil_img_validate+0xbc>
    rc = !sha256_valid;
     746:	2401      	movs	r4, #1
        return -1;
     748:	4625      	mov	r5, r4
     74a:	e753      	b.n	5f4 <bootutil_img_validate+0xbc>
     74c:	20000000 	.word	0x20000000
     750:	50840000 	.word	0x50840000
     754:	200001d0 	.word	0x200001d0
     758:	00006cbc 	.word	0x00006cbc
     75c:	00006cb8 	.word	0x00006cb8

00000760 <bootutil_verify_sig>:
#endif /* not MCUBOOT_ECDSA_NEED_ASN1_SIG */

int
bootutil_verify_sig(uint8_t *hash, uint32_t hlen, uint8_t *sig, size_t slen,
  uint8_t key_id)
{
     760:	e92d 41f0 	stmdb	sp!, {r4, r5, r6, r7, r8, lr}
     764:	b096      	sub	sp, #88	; 0x58
     766:	4617      	mov	r7, r2
     768:	461d      	mov	r5, r3
     76a:	f89d 2070 	ldrb.w	r2, [sp, #112]	; 0x70

#ifndef MCUBOOT_ECDSA_NEED_ASN1_SIG
    uint8_t signature[2 * NUM_ECC_BYTES];
#endif

    pubkey = (uint8_t *)bootutil_keys[key_id].key;
     76e:	4b35      	ldr	r3, [pc, #212]	; (844 <CONFIG_ISR_STACK_SIZE+0x44>)
{
     770:	460e      	mov	r6, r1
    pubkey = (uint8_t *)bootutil_keys[key_id].key;
     772:	f853 1032 	ldr.w	r1, [r3, r2, lsl #3]
    end = pubkey + *bootutil_keys[key_id].len;
     776:	eb03 03c2 	add.w	r3, r3, r2, lsl #3
     77a:	685b      	ldr	r3, [r3, #4]
    pubkey = (uint8_t *)bootutil_keys[key_id].key;
     77c:	9101      	str	r1, [sp, #4]
{
     77e:	4680      	mov	r8, r0
    end = pubkey + *bootutil_keys[key_id].len;
     780:	6818      	ldr	r0, [r3, #0]
    if (mbedtls_asn1_get_tag(cp, end, &len,
     782:	aa02      	add	r2, sp, #8
     784:	4401      	add	r1, r0
     786:	2330      	movs	r3, #48	; 0x30
     788:	a801      	add	r0, sp, #4
     78a:	f005 fae4 	bl	5d56 <mbedtls_asn1_get_tag>
     78e:	b120      	cbz	r0, 79a <bootutil_verify_sig+0x3a>
    rc = bootutil_parse_eckey(&ctx, &pubkey, end);
#else
    rc = bootutil_import_key(&pubkey, end);
#endif
    if (rc) {
        return -1;
     790:	f04f 30ff 	mov.w	r0, #4294967295	; 0xffffffff
#endif /* CY_MBEDTLS_HW_ACCELERATION */

    bootutil_ecdsa_p256_drop(&ctx);

    return rc;
}
     794:	b016      	add	sp, #88	; 0x58
     796:	e8bd 81f0 	ldmia.w	sp!, {r4, r5, r6, r7, r8, pc}
    end = *cp + len;
     79a:	e9dd 4301 	ldrd	r4, r3, [sp, #4]
     79e:	441c      	add	r4, r3
    if (mbedtls_asn1_get_alg(cp, end, &alg, &param)) {
     7a0:	4621      	mov	r1, r4
     7a2:	ab06      	add	r3, sp, #24
     7a4:	aa03      	add	r2, sp, #12
     7a6:	a801      	add	r0, sp, #4
     7a8:	f005 fafd 	bl	5da6 <mbedtls_asn1_get_alg>
     7ac:	2800      	cmp	r0, #0
     7ae:	d1ef      	bne.n	790 <bootutil_verify_sig+0x30>
    if (alg.MBEDTLS_CONTEXT_MEMBER(len) != sizeof(ec_pubkey_oid) - 1 ||
     7b0:	9a04      	ldr	r2, [sp, #16]
     7b2:	2a07      	cmp	r2, #7
     7b4:	d1ec      	bne.n	790 <bootutil_verify_sig+0x30>
        memcmp(alg.MBEDTLS_CONTEXT_MEMBER(p), ec_pubkey_oid, sizeof(ec_pubkey_oid) - 1)) {
     7b6:	4924      	ldr	r1, [pc, #144]	; (848 <CONFIG_ISR_STACK_SIZE+0x48>)
     7b8:	9805      	ldr	r0, [sp, #20]
     7ba:	f005 fcdc 	bl	6176 <memcmp>
    if (alg.MBEDTLS_CONTEXT_MEMBER(len) != sizeof(ec_pubkey_oid) - 1 ||
     7be:	2800      	cmp	r0, #0
     7c0:	d1e6      	bne.n	790 <bootutil_verify_sig+0x30>
    if (param.MBEDTLS_CONTEXT_MEMBER(len) != sizeof(ec_secp256r1_oid) - 1 ||
     7c2:	9a07      	ldr	r2, [sp, #28]
     7c4:	2a08      	cmp	r2, #8
     7c6:	d1e3      	bne.n	790 <bootutil_verify_sig+0x30>
        memcmp(param.MBEDTLS_CONTEXT_MEMBER(p), ec_secp256r1_oid, sizeof(ec_secp256r1_oid) - 1)) {
     7c8:	4920      	ldr	r1, [pc, #128]	; (84c <CONFIG_ISR_STACK_SIZE+0x4c>)
     7ca:	9808      	ldr	r0, [sp, #32]
     7cc:	f005 fcd3 	bl	6176 <memcmp>
    if (param.MBEDTLS_CONTEXT_MEMBER(len) != sizeof(ec_secp256r1_oid) - 1 ||
     7d0:	2800      	cmp	r0, #0
     7d2:	d1dd      	bne.n	790 <bootutil_verify_sig+0x30>
    if (mbedtls_asn1_get_bitstring_null(cp, end, &len)) {
     7d4:	4621      	mov	r1, r4
     7d6:	aa02      	add	r2, sp, #8
     7d8:	a801      	add	r0, sp, #4
     7da:	f005 fad0 	bl	5d7e <mbedtls_asn1_get_bitstring_null>
     7de:	2800      	cmp	r0, #0
     7e0:	d1d6      	bne.n	790 <bootutil_verify_sig+0x30>
    if (*cp + len != end) {
     7e2:	e9dd 3201 	ldrd	r3, r2, [sp, #4]
     7e6:	4413      	add	r3, r2
     7e8:	429c      	cmp	r4, r3
     7ea:	d1d1      	bne.n	790 <bootutil_verify_sig+0x30>
    if (len != 2 * NUM_ECC_BYTES + 1) {
     7ec:	2a41      	cmp	r2, #65	; 0x41
     7ee:	d1cf      	bne.n	790 <bootutil_verify_sig+0x30>
    rc = bootutil_decode_sig(signature, sig, sig + slen);
     7f0:	443d      	add	r5, r7
    rc = mbedtls_asn1_get_tag(&cp, end, &len,
     7f2:	2330      	movs	r3, #48	; 0x30
     7f4:	4629      	mov	r1, r5
     7f6:	aa03      	add	r2, sp, #12
     7f8:	a802      	add	r0, sp, #8
     7fa:	9702      	str	r7, [sp, #8]
     7fc:	f005 faab 	bl	5d56 <mbedtls_asn1_get_tag>
    if (rc) {
     800:	2800      	cmp	r0, #0
     802:	d1c5      	bne.n	790 <bootutil_verify_sig+0x30>
    if (cp + len > end) {
     804:	e9dd 3202 	ldrd	r3, r2, [sp, #8]
     808:	4413      	add	r3, r2
     80a:	429d      	cmp	r5, r3
     80c:	d3c0      	bcc.n	790 <bootutil_verify_sig+0x30>
    rc = bootutil_read_bigint(signature, &cp, end);
     80e:	462a      	mov	r2, r5
     810:	a902      	add	r1, sp, #8
     812:	a806      	add	r0, sp, #24
     814:	f005 f85a 	bl	58cc <bootutil_read_bigint>
    if (rc) {
     818:	2800      	cmp	r0, #0
     81a:	d1b9      	bne.n	790 <bootutil_verify_sig+0x30>
    rc = bootutil_read_bigint(signature + NUM_ECC_BYTES, &cp, end);
     81c:	462a      	mov	r2, r5
     81e:	a902      	add	r1, sp, #8
     820:	a80e      	add	r0, sp, #56	; 0x38
     822:	f005 f853 	bl	58cc <bootutil_read_bigint>
    if (rc) {
     826:	2800      	cmp	r0, #0
     828:	d1b2      	bne.n	790 <bootutil_verify_sig+0x30>
    if (hlen != NUM_ECC_BYTES) {
     82a:	2e20      	cmp	r6, #32
     82c:	d1b0      	bne.n	790 <bootutil_verify_sig+0x30>
    rc = bootutil_ecdsa_p256_verify(&ctx, pubkey, end - pubkey, hash, signature,
     82e:	9901      	ldr	r1, [sp, #4]
    (void)ctx;
    (void)pk_len;
    (void)sig_len;

    /* Only support uncompressed keys. */
    if (pk[0] != 0x04) {
     830:	780b      	ldrb	r3, [r1, #0]
     832:	2b04      	cmp	r3, #4
     834:	d1ac      	bne.n	790 <bootutil_verify_sig+0x30>
        return -1;
    }
    pk++;

    return cc310_ecdsa_verify_secp256r1(hash, pk, sig, BOOTUTIL_CRYPTO_ECDSA_P256_HASH_SIZE);
     836:	4633      	mov	r3, r6
     838:	4640      	mov	r0, r8
     83a:	aa06      	add	r2, sp, #24
     83c:	3101      	adds	r1, #1
     83e:	f000 fd51 	bl	12e4 <cc310_ecdsa_verify_secp256r1>
     842:	e7a7      	b.n	794 <bootutil_verify_sig+0x34>
     844:	00006cbc 	.word	0x00006cbc
     848:	00007145 	.word	0x00007145
     84c:	0000713c 	.word	0x0000713c

00000850 <boot_read_swap_size>:
    return -1;
}

int
boot_read_swap_size(int image_index, uint32_t *swap_size)
{
     850:	e92d 41f0 	stmdb	sp!, {r4, r5, r6, r7, r8, lr}
    uint8_t areas[2] = {
     854:	2303      	movs	r3, #3
{
     856:	b086      	sub	sp, #24
     858:	460d      	mov	r5, r1
     85a:	466f      	mov	r7, sp
    for (i = 0; i < sizeof(areas) / sizeof(areas[0]); i++) {
     85c:	2600      	movs	r6, #0
    if (memcmp(magic, BOOT_IMG_MAGIC, BOOT_MAGIC_SZ) == 0) {
     85e:	f8df 8068 	ldr.w	r8, [pc, #104]	; 8c8 <boot_read_swap_size+0x78>
    uint8_t areas[2] = {
     862:	f8ad 3000 	strh.w	r3, [sp]
        rc = flash_area_open(areas[i], fap);
     866:	f817 0b01 	ldrb.w	r0, [r7], #1
     86a:	a901      	add	r1, sp, #4
     86c:	f001 f938 	bl	1ae0 <flash_area_open>
        if (rc != 0) {
     870:	4604      	mov	r4, r0
     872:	b9a0      	cbnz	r0, 89e <boot_read_swap_size+0x4e>
        off = boot_magic_off(*fap);
     874:	9801      	ldr	r0, [sp, #4]
        rc = flash_area_read(*fap, off, magic, BOOT_MAGIC_SZ);
     876:	2310      	movs	r3, #16
    return flash_area_get_size(fap) - BOOT_MAGIC_SZ;
     878:	6881      	ldr	r1, [r0, #8]
        rc = flash_area_read(*fap, off, magic, BOOT_MAGIC_SZ);
     87a:	aa02      	add	r2, sp, #8
     87c:	3910      	subs	r1, #16
     87e:	f005 fbef 	bl	6060 <flash_area_read>
     882:	4604      	mov	r4, r0
        flash_area_close(*fap);
     884:	9801      	ldr	r0, [sp, #4]
     886:	f005 fbea 	bl	605e <flash_area_close>
        if (rc != 0) {
     88a:	b944      	cbnz	r4, 89e <boot_read_swap_size+0x4e>
    if (memcmp(magic, BOOT_IMG_MAGIC, BOOT_MAGIC_SZ) == 0) {
     88c:	2210      	movs	r2, #16
     88e:	4641      	mov	r1, r8
     890:	a802      	add	r0, sp, #8
     892:	f005 fc70 	bl	6176 <memcmp>
     896:	b140      	cbz	r0, 8aa <boot_read_swap_size+0x5a>
    for (i = 0; i < sizeof(areas) / sizeof(areas[0]); i++) {
     898:	b12e      	cbz	r6, 8a6 <boot_read_swap_size+0x56>
    return -1;
     89a:	f04f 34ff 	mov.w	r4, #4294967295	; 0xffffffff
        rc = flash_area_read(fap, off, swap_size, sizeof *swap_size);
        flash_area_close(fap);
    }

    return rc;
}
     89e:	4620      	mov	r0, r4
     8a0:	b006      	add	sp, #24
     8a2:	e8bd 81f0 	ldmia.w	sp!, {r4, r5, r6, r7, r8, pc}
    for (i = 0; i < sizeof(areas) / sizeof(areas[0]); i++) {
     8a6:	2601      	movs	r6, #1
     8a8:	e7dd      	b.n	866 <boot_read_swap_size+0x16>
    return boot_swap_info_off(fap) - BOOT_MAX_ALIGN;
     8aa:	9801      	ldr	r0, [sp, #4]
     8ac:	f005 fe8f 	bl	65ce <boot_swap_info_off>
        rc = flash_area_read(fap, off, swap_size, sizeof *swap_size);
     8b0:	2304      	movs	r3, #4
     8b2:	f1a0 0108 	sub.w	r1, r0, #8
     8b6:	462a      	mov	r2, r5
     8b8:	9801      	ldr	r0, [sp, #4]
     8ba:	f005 fbd1 	bl	6060 <flash_area_read>
     8be:	4604      	mov	r4, r0
        flash_area_close(fap);
     8c0:	9801      	ldr	r0, [sp, #4]
     8c2:	f005 fbcc 	bl	605e <flash_area_close>
     8c6:	e7ea      	b.n	89e <boot_read_swap_size+0x4e>
     8c8:	00007020 	.word	0x00007020

000008cc <bootutil_max_image_size>:
    return 0;
}
#endif

uint32_t bootutil_max_image_size(const struct flash_area *fap)
{
     8cc:	b507      	push	{r0, r1, r2, lr}
#if defined(MCUBOOT_SWAP_USING_SCRATCH)
    return boot_status_off(fap);
#elif defined(MCUBOOT_SWAP_USING_MOVE)
    struct flash_sector sector;
    /* get the last sector offset */
    int rc = flash_area_sector_from_off(boot_status_off(fap), &sector);
     8ce:	f005 f83d 	bl	594c <boot_status_off>
     8d2:	4669      	mov	r1, sp
     8d4:	f7ff fe20 	bl	518 <flash_area_sector_from_off>
    if (rc) {
     8d8:	b138      	cbz	r0, 8ea <bootutil_max_image_size+0x1e>
        BOOT_LOG_ERR("Unable to determine flash sector of the image trailer");
     8da:	4805      	ldr	r0, [pc, #20]	; (8f0 <bootutil_max_image_size+0x24>)
     8dc:	2145      	movs	r1, #69	; 0x45
     8de:	f005 fbb1 	bl	6044 <z_log_minimal_printk>
        return 0; /* Returning of zero here should cause any check which uses
     8e2:	2000      	movs	r0, #0
#elif defined(MCUBOOT_DIRECT_XIP)
    return boot_swap_info_off(fap);
#elif defined(MCUBOOT_RAM_LOAD)
    return boot_swap_info_off(fap);
#endif
}
     8e4:	b003      	add	sp, #12
     8e6:	f85d fb04 	ldr.w	pc, [sp], #4
 */
uint8_t flash_area_erased_val(const struct flash_area *fap);

static inline uint32_t flash_sector_get_off(const struct flash_sector *fs)
{
	return fs->fs_off;
     8ea:	9800      	ldr	r0, [sp, #0]
    return flash_sector_get_off(&sector);
     8ec:	e7fa      	b.n	8e4 <bootutil_max_image_size+0x18>
     8ee:	bf00      	nop
     8f0:	0000714d 	.word	0x0000714d

000008f4 <boot_validate_slot.isra.0>:
 *         FIH_SUCCESS                      if image was successfully validated
 *         1 (or its fih_int encoded form)  if no bootloable image was found
 *         FIH_FAILURE                      on any errors
 */
static fih_int
boot_validate_slot(struct boot_loader_state *state, int slot,
     8f4:	e92d 41f0 	stmdb	sp!, {r4, r5, r6, r7, r8, lr}
                   struct boot_status *bs)
{
    const struct flash_area *fap;
    struct image_header *hdr;
    int area_id;
    fih_int fih_rc = FIH_FAILURE;
     8f8:	4b35      	ldr	r3, [pc, #212]	; (9d0 <FIH_LABEL_FIH_CALL_END_437+0x76>)
boot_validate_slot(struct boot_loader_state *state, int slot,
     8fa:	b088      	sub	sp, #32
     8fc:	4606      	mov	r6, r0
    int rc;

    area_id = flash_area_id_from_multi_image_slot(BOOT_CURR_IMG(state), slot);
     8fe:	2000      	movs	r0, #0
boot_validate_slot(struct boot_loader_state *state, int slot,
     900:	460c      	mov	r4, r1
    fih_int fih_rc = FIH_FAILURE;
     902:	681d      	ldr	r5, [r3, #0]
    area_id = flash_area_id_from_multi_image_slot(BOOT_CURR_IMG(state), slot);
     904:	f004 ff3c 	bl	5780 <flash_area_id_from_multi_image_slot>
    rc = flash_area_open(area_id, &fap);
     908:	a906      	add	r1, sp, #24
     90a:	b2c0      	uxtb	r0, r0
     90c:	f001 f8e8 	bl	1ae0 <flash_area_open>
    if (rc != 0) {
     910:	2800      	cmp	r0, #0
     912:	d157      	bne.n	9c4 <FIH_LABEL_FIH_CALL_END_437+0x6a>
    area_id = flash_area_id_from_multi_image_slot(BOOT_CURR_IMG(state), slot);
     914:	4621      	mov	r1, r4
     916:	f004 ff33 	bl	5780 <flash_area_id_from_multi_image_slot>
     ((swap_type) == BOOT_SWAP_TYPE_PERM))

static inline struct image_header*
boot_img_hdr(struct boot_loader_state *state, size_t slot)
{
    return &BOOT_IMG(state, slot).hdr;
     91a:	252c      	movs	r5, #44	; 0x2c
    rc = flash_area_open(area_id, &fap);
     91c:	a907      	add	r1, sp, #28
     91e:	b2c0      	uxtb	r0, r0
     920:	fb05 6504 	mla	r5, r5, r4, r6
     924:	f001 f8dc 	bl	1ae0 <flash_area_open>
    if (rc != 0) {
     928:	2800      	cmp	r0, #0
     92a:	d033      	beq.n	994 <FIH_LABEL_FIH_CALL_END_437+0x3a>
        FIH_RET(fih_rc);
    }

    hdr = boot_img_hdr(state, slot);
    if (boot_check_header_erased(state, slot) == 0 ||
        (hdr->ih_flags & IMAGE_F_NON_BOOTABLE)) {
     92c:	272c      	movs	r7, #44	; 0x2c
     92e:	4367      	muls	r7, r4
     930:	eb06 0807 	add.w	r8, r6, r7
     934:	f8d8 1010 	ldr.w	r1, [r8, #16]
#endif
    BOOT_HOOK_CALL_FIH(boot_image_check_hook, fih_int_encode(BOOT_HOOK_REGULAR),
                       fih_rc, BOOT_CURR_IMG(state), slot);
    if (fih_eq(fih_rc, fih_int_encode(BOOT_HOOK_REGULAR)))
    {
        FIH_CALL(boot_image_check, fih_rc, state, hdr, fap, bs);
     938:	9b06      	ldr	r3, [sp, #24]
    if (boot_check_header_erased(state, slot) == 0 ||
     93a:	f011 0110 	ands.w	r1, r1, #16
     93e:	d138      	bne.n	9b2 <FIH_LABEL_FIH_CALL_END_437+0x58>

00000940 <FIH_LABEL_FIH_CALL_START_388>:
    FIH_CALL(bootutil_img_validate, fih_rc, BOOT_CURR_ENC(state), image_index,
     940:	f44f 7280 	mov.w	r2, #256	; 0x100
     944:	9201      	str	r2, [sp, #4]
     946:	4a23      	ldr	r2, [pc, #140]	; (9d4 <FIH_LABEL_FIH_CALL_END_437+0x7a>)
     948:	4608      	mov	r0, r1
     94a:	9200      	str	r2, [sp, #0]
     94c:	e9cd 1103 	strd	r1, r1, [sp, #12]
     950:	462a      	mov	r2, r5
     952:	9102      	str	r1, [sp, #8]
     954:	f7ff fdf0 	bl	538 <bootutil_img_validate>
     958:	4605      	mov	r5, r0

0000095a <FIH_LABEL_FIH_CALL_END_437>:
    if (hdr->ih_magic != IMAGE_MAGIC) {
     95a:	4b1f      	ldr	r3, [pc, #124]	; (9d8 <FIH_LABEL_FIH_CALL_END_437+0x7e>)
     95c:	59f2      	ldr	r2, [r6, r7]
    }
    if (!boot_is_header_valid(hdr, fap) || fih_not_eq(fih_rc, FIH_SUCCESS)) {
     95e:	9806      	ldr	r0, [sp, #24]
    if (hdr->ih_magic != IMAGE_MAGIC) {
     960:	429a      	cmp	r2, r3
     962:	d10c      	bne.n	97e <FIH_LABEL_FIH_CALL_END_437+0x24>
    if (!boot_u32_safe_add(&size, hdr->ih_img_size, hdr->ih_hdr_size)) {
     964:	f8d8 200c 	ldr.w	r2, [r8, #12]
     968:	f8b8 3008 	ldrh.w	r3, [r8, #8]
    if (a > UINT32_MAX - b) {
     96c:	189b      	adds	r3, r3, r2
     96e:	d206      	bcs.n	97e <FIH_LABEL_FIH_CALL_END_437+0x24>
    if (size >= flash_area_get_size(fap)) {
     970:	6882      	ldr	r2, [r0, #8]
     972:	4293      	cmp	r3, r2
     974:	d203      	bcs.n	97e <FIH_LABEL_FIH_CALL_END_437+0x24>
    if (!boot_is_header_valid(hdr, fap) || fih_not_eq(fih_rc, FIH_SUCCESS)) {
     976:	4b19      	ldr	r3, [pc, #100]	; (9dc <FIH_LABEL_FIH_CALL_END_437+0x82>)
     978:	681b      	ldr	r3, [r3, #0]
     97a:	42ab      	cmp	r3, r5
     97c:	d01f      	beq.n	9be <FIH_LABEL_FIH_CALL_END_437+0x64>
        if ((slot != BOOT_PRIMARY_SLOT) || ARE_SLOTS_EQUIVALENT()) {
     97e:	b32c      	cbz	r4, 9cc <FIH_LABEL_FIH_CALL_END_437+0x72>
            flash_area_erase(fap, 0, flash_area_get_size(fap));
     980:	6882      	ldr	r2, [r0, #8]
     982:	2100      	movs	r1, #0
     984:	f005 fb96 	bl	60b4 <flash_area_erase>
            /* Image is invalid, erase it to prevent further unnecessary
             * attempts to validate and boot it.
             */
        }
#if !defined(__BOOTSIM__)
        BOOT_LOG_ERR("Image in the %s slot is not valid!",
     988:	4a15      	ldr	r2, [pc, #84]	; (9e0 <FIH_LABEL_FIH_CALL_END_437+0x86>)
     98a:	2145      	movs	r1, #69	; 0x45
     98c:	4815      	ldr	r0, [pc, #84]	; (9e4 <FIH_LABEL_FIH_CALL_END_437+0x8a>)
     98e:	f005 fb59 	bl	6044 <z_log_minimal_printk>
                     (slot == BOOT_PRIMARY_SLOT) ? "primary" : "secondary");
#endif
        fih_rc = fih_int_encode(1);
        goto out;
     992:	e013      	b.n	9bc <FIH_LABEL_FIH_CALL_END_437+0x62>
    erased_val = flash_area_erased_val(fap);
     994:	9807      	ldr	r0, [sp, #28]
     996:	f005 fbaa 	bl	60ee <flash_area_erased_val>
     99a:	4607      	mov	r7, r0
    flash_area_close(fap);
     99c:	9807      	ldr	r0, [sp, #28]
     99e:	f005 fb5e 	bl	605e <flash_area_close>
    for (i = 0; i < len; i++) {
     9a2:	1e6b      	subs	r3, r5, #1
     9a4:	1cea      	adds	r2, r5, #3
        if (val != p[i]) {
     9a6:	f813 1f01 	ldrb.w	r1, [r3, #1]!
     9aa:	42b9      	cmp	r1, r7
     9ac:	d1be      	bne.n	92c <boot_validate_slot.isra.0+0x38>
    for (i = 0; i < len; i++) {
     9ae:	4293      	cmp	r3, r2
     9b0:	d1f9      	bne.n	9a6 <FIH_LABEL_FIH_CALL_END_437+0x4c>
        if (slot != BOOT_PRIMARY_SLOT) {
     9b2:	b11c      	cbz	r4, 9bc <FIH_LABEL_FIH_CALL_END_437+0x62>
            swap_erase_trailer_sectors(state, fap);
     9b4:	4630      	mov	r0, r6
     9b6:	9906      	ldr	r1, [sp, #24]
     9b8:	f005 f8ac 	bl	5b14 <swap_erase_trailer_sectors>
        fih_rc = fih_int_encode(1);
     9bc:	2501      	movs	r5, #1
        }
    }
#endif

out:
    flash_area_close(fap);
     9be:	9806      	ldr	r0, [sp, #24]
     9c0:	f005 fb4d 	bl	605e <flash_area_close>

    FIH_RET(fih_rc);
}
     9c4:	4628      	mov	r0, r5
     9c6:	b008      	add	sp, #32
     9c8:	e8bd 81f0 	ldmia.w	sp!, {r4, r5, r6, r7, r8, pc}
        BOOT_LOG_ERR("Image in the %s slot is not valid!",
     9cc:	4a06      	ldr	r2, [pc, #24]	; (9e8 <FIH_LABEL_FIH_CALL_END_437+0x8e>)
     9ce:	e7dc      	b.n	98a <FIH_LABEL_FIH_CALL_END_437+0x30>
     9d0:	20000000 	.word	0x20000000
     9d4:	20000ee4 	.word	0x20000ee4
     9d8:	96f3b83d 	.word	0x96f3b83d
     9dc:	200001d0 	.word	0x200001d0
     9e0:	00007190 	.word	0x00007190
     9e4:	0000719a 	.word	0x0000719a
     9e8:	00007188 	.word	0x00007188

000009ec <boot_swap_image>:
 *
 * @return                      0 on success; nonzero on failure.
 */
static int
boot_swap_image(struct boot_loader_state *state, struct boot_status *bs)
{
     9ec:	b573      	push	{r0, r1, r4, r5, r6, lr}
     9ee:	460d      	mov	r5, r1
    uint8_t image_index;
    int rc;

    /* FIXME: just do this if asked by user? */

    size = copy_size = 0;
     9f0:	2100      	movs	r1, #0
{
     9f2:	4604      	mov	r4, r0
    image_index = BOOT_CURR_IMG(state);

    if (boot_status_is_reset(bs)) {
     9f4:	4628      	mov	r0, r5
    size = copy_size = 0;
     9f6:	e9cd 1100 	strd	r1, r1, [sp]
    if (boot_status_is_reset(bs)) {
     9fa:	f005 f84a 	bl	5a92 <boot_status_is_reset>
     9fe:	b330      	cbz	r0, a4e <boot_swap_image+0x62>
        /*
         * No swap ever happened, so need to find the largest image which
         * will be used to determine the amount of sectors to swap.
         */
        hdr = boot_img_hdr(state, BOOT_PRIMARY_SLOT);
        if (hdr->ih_magic == IMAGE_MAGIC) {
     a00:	4e16      	ldr	r6, [pc, #88]	; (a5c <boot_swap_image+0x70>)
     a02:	6823      	ldr	r3, [r4, #0]
     a04:	42b3      	cmp	r3, r6
     a06:	d103      	bne.n	a10 <boot_swap_image+0x24>
            rc = boot_read_image_size(state, BOOT_PRIMARY_SLOT, &copy_size);
     a08:	4620      	mov	r0, r4
     a0a:	aa01      	add	r2, sp, #4
     a0c:	f004 ffd6 	bl	59bc <boot_read_image_size.constprop.0.isra.0>
            memset(bs->enckey[0], 0xff, BOOT_ENC_KEY_ALIGN_SIZE);
        }
#endif

        hdr = boot_img_hdr(state, BOOT_SECONDARY_SLOT);
        if (hdr->ih_magic == IMAGE_MAGIC) {
     a10:	6ae3      	ldr	r3, [r4, #44]	; 0x2c
     a12:	42b3      	cmp	r3, r6
     a14:	d104      	bne.n	a20 <boot_swap_image+0x34>
            rc = boot_read_image_size(state, BOOT_SECONDARY_SLOT, &size);
     a16:	466a      	mov	r2, sp
     a18:	2101      	movs	r1, #1
     a1a:	4620      	mov	r0, r4
     a1c:	f004 ffce 	bl	59bc <boot_read_image_size.constprop.0.isra.0>
        } else {
            memset(bs->enckey[1], 0xff, BOOT_ENC_KEY_ALIGN_SIZE);
        }
#endif

        if (size > copy_size) {
     a20:	e9dd 3200 	ldrd	r3, r2, [sp]
     a24:	4293      	cmp	r3, r2
            copy_size = size;
     a26:	bf88      	it	hi
     a28:	9301      	strhi	r3, [sp, #4]
        }

        bs->swap_size = copy_size;
     a2a:	9b01      	ldr	r3, [sp, #4]
     a2c:	60ab      	str	r3, [r5, #8]
            }
        }
#endif
    }

    swap_run(state, bs, copy_size);
     a2e:	9a01      	ldr	r2, [sp, #4]
     a30:	4629      	mov	r1, r5
     a32:	4620      	mov	r0, r4
     a34:	f000 fb34 	bl	10a0 <swap_run>

#ifdef MCUBOOT_VALIDATE_PRIMARY_SLOT
    extern int boot_status_fails;
    if (boot_status_fails > 0) {
     a38:	4b09      	ldr	r3, [pc, #36]	; (a60 <boot_swap_image+0x74>)
     a3a:	681a      	ldr	r2, [r3, #0]
     a3c:	2a00      	cmp	r2, #0
     a3e:	dd03      	ble.n	a48 <boot_swap_image+0x5c>
        BOOT_LOG_WRN("%d status write fails performing the swap",
     a40:	2157      	movs	r1, #87	; 0x57
     a42:	4808      	ldr	r0, [pc, #32]	; (a64 <boot_swap_image+0x78>)
     a44:	f005 fafe 	bl	6044 <z_log_minimal_printk>
#endif
    rc = BOOT_HOOK_CALL(boot_copy_region_post_hook, 0, BOOT_CURR_IMG(state),
                        BOOT_IMG_AREA(state, BOOT_PRIMARY_SLOT), size);

    return 0;
}
     a48:	2000      	movs	r0, #0
     a4a:	b002      	add	sp, #8
     a4c:	bd70      	pop	{r4, r5, r6, pc}
        rc = boot_read_swap_size(image_index, &bs->swap_size);
     a4e:	f105 0108 	add.w	r1, r5, #8
     a52:	f7ff fefd 	bl	850 <boot_read_swap_size>
        copy_size = bs->swap_size;
     a56:	68ab      	ldr	r3, [r5, #8]
     a58:	9301      	str	r3, [sp, #4]
     a5a:	e7e8      	b.n	a2e <boot_swap_image+0x42>
     a5c:	96f3b83d 	.word	0x96f3b83d
     a60:	20000e34 	.word	0x20000e34
     a64:	000071c2 	.word	0x000071c2

00000a68 <boot_copy_region>:
{
     a68:	e92d 4ff8 	stmdb	sp!, {r3, r4, r5, r6, r7, r8, r9, sl, fp, lr}
     a6c:	4688      	mov	r8, r1
     a6e:	4691      	mov	r9, r2
     a70:	469a      	mov	sl, r3
    bytes_copied = 0;
     a72:	2600      	movs	r6, #0
        rc = flash_area_read(fap_src, off_src + bytes_copied, buf, chunk_sz);
     a74:	f8df b070 	ldr.w	fp, [pc, #112]	; ae8 <boot_copy_region+0x80>
     a78:	4c19      	ldr	r4, [pc, #100]	; (ae0 <boot_copy_region+0x78>)
     a7a:	4d1a      	ldr	r5, [pc, #104]	; (ae4 <boot_copy_region+0x7c>)
    while (bytes_copied < sz) {
     a7c:	9b0b      	ldr	r3, [sp, #44]	; 0x2c
     a7e:	429e      	cmp	r6, r3
     a80:	d301      	bcc.n	a86 <boot_copy_region+0x1e>
    return 0;
     a82:	2000      	movs	r0, #0
     a84:	e00f      	b.n	aa6 <boot_copy_region+0x3e>
        if (sz - bytes_copied > sizeof buf) {
     a86:	9b0b      	ldr	r3, [sp, #44]	; 0x2c
        rc = flash_area_read(fap_src, off_src + bytes_copied, buf, chunk_sz);
     a88:	4640      	mov	r0, r8
        if (sz - bytes_copied > sizeof buf) {
     a8a:	1b9f      	subs	r7, r3, r6
     a8c:	f5b7 6f80 	cmp.w	r7, #1024	; 0x400
     a90:	bf28      	it	cs
     a92:	f44f 6780 	movcs.w	r7, #1024	; 0x400
        rc = flash_area_read(fap_src, off_src + bytes_copied, buf, chunk_sz);
     a96:	4a14      	ldr	r2, [pc, #80]	; (ae8 <boot_copy_region+0x80>)
     a98:	463b      	mov	r3, r7
     a9a:	eb06 010a 	add.w	r1, r6, sl
     a9e:	f005 fadf 	bl	6060 <flash_area_read>
        if (rc != 0) {
     aa2:	b110      	cbz	r0, aaa <boot_copy_region+0x42>
            return BOOT_EFLASH;
     aa4:	2001      	movs	r0, #1
}
     aa6:	e8bd 8ff8 	ldmia.w	sp!, {r3, r4, r5, r6, r7, r8, r9, sl, fp, pc}
        rc = flash_area_write(fap_dst, off_dst + bytes_copied, buf, chunk_sz);
     aaa:	990a      	ldr	r1, [sp, #40]	; 0x28
     aac:	463b      	mov	r3, r7
     aae:	465a      	mov	r2, fp
     ab0:	4648      	mov	r0, r9
     ab2:	1871      	adds	r1, r6, r1
     ab4:	f005 fae9 	bl	608a <flash_area_write>
        if (rc != 0) {
     ab8:	2800      	cmp	r0, #0
     aba:	d1f3      	bne.n	aa4 <boot_copy_region+0x3c>
     abc:	f8c4 5600 	str.w	r5, [r4, #1536]	; 0x600
        bytes_copied += chunk_sz;
     ac0:	443e      	add	r6, r7
     ac2:	f8c4 5604 	str.w	r5, [r4, #1540]	; 0x604
     ac6:	f8c4 5608 	str.w	r5, [r4, #1544]	; 0x608
     aca:	f8c4 560c 	str.w	r5, [r4, #1548]	; 0x60c
     ace:	f8c4 5610 	str.w	r5, [r4, #1552]	; 0x610
     ad2:	f8c4 5614 	str.w	r5, [r4, #1556]	; 0x614
     ad6:	f8c4 5618 	str.w	r5, [r4, #1560]	; 0x618
     ada:	f8c4 561c 	str.w	r5, [r4, #1564]	; 0x61c
        MCUBOOT_WATCHDOG_FEED();
     ade:	e7cd      	b.n	a7c <boot_copy_region+0x14>
     ae0:	50018000 	.word	0x50018000
     ae4:	6e524635 	.word	0x6e524635
     ae8:	200009d4 	.word	0x200009d4

00000aec <context_boot_go>:
#endif
}

fih_int
context_boot_go(struct boot_loader_state *state, struct boot_rsp *rsp)
{
     aec:	e92d 41ff 	stmdb	sp!, {r0, r1, r2, r3, r4, r5, r6, r7, r8, lr}
     af0:	460e      	mov	r6, r1

        /* Open primary and secondary image areas for the duration
         * of this call.
         */
        for (slot = 0; slot < BOOT_NUM_SLOTS; slot++) {
            fa_id = flash_area_id_from_multi_image_slot(image_index, slot);
     af2:	2100      	movs	r1, #0
        BOOT_IMG(state, BOOT_PRIMARY_SLOT).sectors =
     af4:	4b8e      	ldr	r3, [pc, #568]	; (d30 <FIH_LABEL_FIH_CALL_END_2283+0x42>)
{
     af6:	4604      	mov	r4, r0
        BOOT_IMG(state, BOOT_PRIMARY_SLOT).sectors =
     af8:	6243      	str	r3, [r0, #36]	; 0x24
        BOOT_IMG(state, BOOT_SECONDARY_SLOT).sectors =
     afa:	4b8e      	ldr	r3, [pc, #568]	; (d34 <FIH_LABEL_FIH_CALL_END_2283+0x46>)
     afc:	6503      	str	r3, [r0, #80]	; 0x50
            fa_id = flash_area_id_from_multi_image_slot(image_index, slot);
     afe:	4608      	mov	r0, r1
     b00:	f004 fe3e 	bl	5780 <flash_area_id_from_multi_image_slot>
            rc = flash_area_open(fa_id, &BOOT_IMG_AREA(state, slot));
     b04:	f104 0120 	add.w	r1, r4, #32
     b08:	b2c0      	uxtb	r0, r0
     b0a:	f000 ffe9 	bl	1ae0 <flash_area_open>
            fa_id = flash_area_id_from_multi_image_slot(image_index, slot);
     b0e:	2101      	movs	r1, #1
     b10:	2000      	movs	r0, #0
     b12:	f004 fe35 	bl	5780 <flash_area_id_from_multi_image_slot>
            rc = flash_area_open(fa_id, &BOOT_IMG_AREA(state, slot));
     b16:	f104 014c 	add.w	r1, r4, #76	; 0x4c
     b1a:	b2c0      	uxtb	r0, r0
     b1c:	f000 ffe0 	bl	1ae0 <flash_area_open>
     b20:	4605      	mov	r5, r0
    rc = boot_read_sectors(state);
     b22:	4620      	mov	r0, r4
     b24:	f004 ff8b 	bl	5a3e <boot_read_sectors>
    if (rc != 0) {
     b28:	4607      	mov	r7, r0
     b2a:	b968      	cbnz	r0, b48 <context_boot_go+0x5c>
    rc = boot_read_image_headers(state, false, NULL);
     b2c:	2200      	movs	r2, #0
     b2e:	4620      	mov	r0, r4
     b30:	4611      	mov	r1, r2
     b32:	f004 ff2d 	bl	5990 <boot_read_image_headers>
    if (rc != 0) {
     b36:	4607      	mov	r7, r0
     b38:	b300      	cbz	r0, b7c <context_boot_go+0x90>
        BOOT_LOG_WRN("Failed reading image headers; Image=%u",
     b3a:	2200      	movs	r2, #0
     b3c:	2157      	movs	r1, #87	; 0x57
     b3e:	487e      	ldr	r0, [pc, #504]	; (d38 <FIH_LABEL_FIH_CALL_END_2283+0x4a>)
            BOOT_LOG_WRN("Failed reading boot status; Image=%u",
     b40:	f005 fa80 	bl	6044 <z_log_minimal_printk>
        BOOT_SWAP_TYPE(state) = BOOT_SWAP_TYPE_NONE;
     b44:	2301      	movs	r3, #1
     b46:	e08f      	b.n	c68 <FIH_LABEL_FIH_CALL_END_2032+0xe>
        BOOT_LOG_WRN("Failed reading sectors; BOOT_MAX_IMG_SECTORS=%d"
     b48:	2280      	movs	r2, #128	; 0x80
     b4a:	2157      	movs	r1, #87	; 0x57
     b4c:	487b      	ldr	r0, [pc, #492]	; (d3c <FIH_LABEL_FIH_CALL_END_2283+0x4e>)
     b4e:	f005 fa79 	bl	6044 <z_log_minimal_printk>
        BOOT_SWAP_TYPE(state) = BOOT_SWAP_TYPE_NONE;
     b52:	2301      	movs	r3, #1
        if (rc == BOOT_EFLASH)
     b54:	429f      	cmp	r7, r3
        BOOT_SWAP_TYPE(state) = BOOT_SWAP_TYPE_NONE;
     b56:	f884 3058 	strb.w	r3, [r4, #88]	; 0x58
        if (rc == BOOT_EFLASH)
     b5a:	d1e7      	bne.n	b2c <context_boot_go+0x40>
#endif

        /* Determine swap type and complete swap if it has been aborted. */
        boot_prepare_image_for_update(state, &bs);

        if (BOOT_IS_UPGRADE(BOOT_SWAP_TYPE(state))) {
     b5c:	f894 3058 	ldrb.w	r3, [r4, #88]	; 0x58
#endif /* (BOOT_IMAGE_NUMBER > 1) */

        /* Set the previously determined swap type */
        bs.swap_type = BOOT_SWAP_TYPE(state);

        switch (BOOT_SWAP_TYPE(state)) {
     b60:	2b04      	cmp	r3, #4
        bs.swap_type = BOOT_SWAP_TYPE(state);
     b62:	f88d 3007 	strb.w	r3, [sp, #7]
        switch (BOOT_SWAP_TYPE(state)) {
     b66:	f200 8082 	bhi.w	c6e <FIH_LABEL_FIH_CALL_END_2032+0x14>
     b6a:	2b01      	cmp	r3, #1
     b6c:	f200 8085 	bhi.w	c7a <FIH_LABEL_FIH_CALL_END_2032+0x20>
     b70:	f000 809c 	beq.w	cac <FIH_LABEL_FIH_CALL_END_2032+0x52>
            }
#endif /* !MCUBOOT_OVERWRITE_ONLY */
            break;

        default:
            BOOT_SWAP_TYPE(state) = BOOT_SWAP_TYPE_PANIC;
     b74:	23ff      	movs	r3, #255	; 0xff
     b76:	f884 3058 	strb.w	r3, [r4, #88]	; 0x58
     b7a:	e097      	b.n	cac <FIH_LABEL_FIH_CALL_END_2032+0x52>
    if (boot_slots_compatible(state)) {
     b7c:	4620      	mov	r0, r4
     b7e:	f000 f9a7 	bl	ed0 <boot_slots_compatible>
     b82:	2800      	cmp	r0, #0
     b84:	d0de      	beq.n	b44 <context_boot_go+0x58>
        boot_status_reset(bs);
     b86:	4668      	mov	r0, sp
     b88:	f004 ff7a 	bl	5a80 <boot_status_reset>
        rc = swap_read_status(state, bs);
     b8c:	4669      	mov	r1, sp
     b8e:	4620      	mov	r0, r4
     b90:	f005 f815 	bl	5bbe <swap_read_status>
        if (rc != 0) {
     b94:	b118      	cbz	r0, b9e <context_boot_go+0xb2>
            BOOT_LOG_WRN("Failed reading boot status; Image=%u",
     b96:	463a      	mov	r2, r7
     b98:	2157      	movs	r1, #87	; 0x57
     b9a:	4869      	ldr	r0, [pc, #420]	; (d40 <FIH_LABEL_FIH_CALL_END_2283+0x52>)
     b9c:	e7d0      	b.n	b40 <context_boot_go+0x54>
        rc = boot_read_image_headers(state, !boot_status_is_reset(bs), bs);
     b9e:	4668      	mov	r0, sp
     ba0:	f004 ff77 	bl	5a92 <boot_status_is_reset>
     ba4:	f080 0101 	eor.w	r1, r0, #1
     ba8:	466a      	mov	r2, sp
     baa:	4620      	mov	r0, r4
     bac:	b2c9      	uxtb	r1, r1
     bae:	f004 feef 	bl	5990 <boot_read_image_headers>
        if (rc != 0) {
     bb2:	4602      	mov	r2, r0
     bb4:	2800      	cmp	r0, #0
     bb6:	d1c0      	bne.n	b3a <context_boot_go+0x4e>
        if (!boot_status_is_reset(bs)) {
     bb8:	4668      	mov	r0, sp
     bba:	f004 ff6a 	bl	5a92 <boot_status_is_reset>
     bbe:	4607      	mov	r7, r0
     bc0:	bb60      	cbnz	r0, c1c <context_boot_go+0x130>
    rc = boot_swap_image(state, bs);
     bc2:	4669      	mov	r1, sp
     bc4:	4620      	mov	r0, r4
     bc6:	f7ff ff11 	bl	9ec <boot_swap_image>
    BOOT_SWAP_TYPE(state) = bs->swap_type;
     bca:	f89d 3007 	ldrb.w	r3, [sp, #7]
     bce:	f884 3058 	strb.w	r3, [r4, #88]	; 0x58
    if (bs->swap_type == BOOT_SWAP_TYPE_REVERT ||
     bd2:	3b03      	subs	r3, #3
     bd4:	2b01      	cmp	r3, #1
     bd6:	d806      	bhi.n	be6 <context_boot_go+0xfa>
        rc = swap_set_image_ok(BOOT_CURR_IMG(state));
     bd8:	4638      	mov	r0, r7
     bda:	f005 f83f 	bl	5c5c <swap_set_image_ok>
        if (rc != 0) {
     bde:	b110      	cbz	r0, be6 <context_boot_go+0xfa>
            BOOT_SWAP_TYPE(state) = BOOT_SWAP_TYPE_PANIC;
     be0:	23ff      	movs	r3, #255	; 0xff
     be2:	f884 3058 	strb.w	r3, [r4, #88]	; 0x58
    if (BOOT_IS_UPGRADE(bs->swap_type)) {
     be6:	f89d 3007 	ldrb.w	r3, [sp, #7]
     bea:	3b02      	subs	r3, #2
     bec:	2b02      	cmp	r3, #2
     bee:	d80b      	bhi.n	c08 <context_boot_go+0x11c>
        rc = swap_set_copy_done(BOOT_CURR_IMG(state));
     bf0:	2000      	movs	r0, #0
     bf2:	f005 f821 	bl	5c38 <swap_set_copy_done>
        if (rc != 0) {
     bf6:	b138      	cbz	r0, c08 <context_boot_go+0x11c>
            BOOT_SWAP_TYPE(state) = BOOT_SWAP_TYPE_PANIC;
     bf8:	23ff      	movs	r3, #255	; 0xff
     bfa:	f884 3058 	strb.w	r3, [r4, #88]	; 0x58
        BOOT_LOG_ERR("panic!");
     bfe:	2145      	movs	r1, #69	; 0x45
     c00:	4850      	ldr	r0, [pc, #320]	; (d44 <FIH_LABEL_FIH_CALL_END_2283+0x56>)
     c02:	f005 fa1f 	bl	6044 <z_log_minimal_printk>
        while (1) {}
     c06:	e7fe      	b.n	c06 <context_boot_go+0x11a>
    if (BOOT_SWAP_TYPE(state) == BOOT_SWAP_TYPE_PANIC) {
     c08:	f894 3058 	ldrb.w	r3, [r4, #88]	; 0x58
     c0c:	2bff      	cmp	r3, #255	; 0xff
     c0e:	d0f6      	beq.n	bfe <context_boot_go+0x112>
            rc = boot_read_image_headers(state, false, bs);
     c10:	466a      	mov	r2, sp
     c12:	2100      	movs	r1, #0
     c14:	4620      	mov	r0, r4
     c16:	f004 febb 	bl	5990 <boot_read_image_headers>
            BOOT_SWAP_TYPE(state) = BOOT_SWAP_TYPE_NONE;
     c1a:	e793      	b.n	b44 <context_boot_go+0x58>
            if (bs->swap_type == BOOT_SWAP_TYPE_NONE) {
     c1c:	f89d 8007 	ldrb.w	r8, [sp, #7]
     c20:	f1b8 0f01 	cmp.w	r8, #1
     c24:	d115      	bne.n	c52 <FIH_LABEL_FIH_CALL_START_2017>
    swap_type = boot_swap_type_multi(BOOT_CURR_IMG(state));
     c26:	4610      	mov	r0, r2
     c28:	f002 fb1e 	bl	3268 <boot_swap_type_multi>
    if (BOOT_IS_UPGRADE(swap_type)) {
     c2c:	1e83      	subs	r3, r0, #2
     c2e:	2b02      	cmp	r3, #2
    swap_type = boot_swap_type_multi(BOOT_CURR_IMG(state));
     c30:	4607      	mov	r7, r0
    if (BOOT_IS_UPGRADE(swap_type)) {
     c32:	d80b      	bhi.n	c4c <FIH_LABEL_FIH_CALL_END_1981+0x10>

00000c34 <FIH_LABEL_FIH_CALL_START_1966>:
        FIH_CALL(boot_validate_slot, fih_rc, state, BOOT_SECONDARY_SLOT, bs);
     c34:	4641      	mov	r1, r8
     c36:	4620      	mov	r0, r4
     c38:	f7ff fe5c 	bl	8f4 <boot_validate_slot.isra.0>

00000c3c <FIH_LABEL_FIH_CALL_END_1981>:
        if (fih_not_eq(fih_rc, FIH_SUCCESS)) {
     c3c:	4b42      	ldr	r3, [pc, #264]	; (d48 <FIH_LABEL_FIH_CALL_END_2283+0x5a>)
     c3e:	681b      	ldr	r3, [r3, #0]
     c40:	4298      	cmp	r0, r3
     c42:	d003      	beq.n	c4c <FIH_LABEL_FIH_CALL_END_1981+0x10>
                swap_type = BOOT_SWAP_TYPE_NONE;
     c44:	2801      	cmp	r0, #1
     c46:	bf14      	ite	ne
     c48:	2705      	movne	r7, #5
     c4a:	2701      	moveq	r7, #1
                BOOT_SWAP_TYPE(state) = boot_validated_swap_type(state, bs);
     c4c:	f884 7058 	strb.w	r7, [r4, #88]	; 0x58
     c50:	e784      	b.n	b5c <context_boot_go+0x70>

00000c52 <FIH_LABEL_FIH_CALL_START_2017>:
                FIH_CALL(boot_validate_slot, fih_rc,
     c52:	2101      	movs	r1, #1
     c54:	4620      	mov	r0, r4
     c56:	f7ff fe4d 	bl	8f4 <boot_validate_slot.isra.0>

00000c5a <FIH_LABEL_FIH_CALL_END_2032>:
                if (fih_not_eq(fih_rc, FIH_SUCCESS)) {
     c5a:	4b3b      	ldr	r3, [pc, #236]	; (d48 <FIH_LABEL_FIH_CALL_END_2283+0x5a>)
     c5c:	681b      	ldr	r3, [r3, #0]
     c5e:	4298      	cmp	r0, r3
                    BOOT_SWAP_TYPE(state) = BOOT_SWAP_TYPE_FAIL;
     c60:	bf14      	ite	ne
     c62:	2305      	movne	r3, #5
                    BOOT_SWAP_TYPE(state) = bs->swap_type;
     c64:	f89d 3007 	ldrbeq.w	r3, [sp, #7]
        BOOT_SWAP_TYPE(state) = BOOT_SWAP_TYPE_NONE;
     c68:	f884 3058 	strb.w	r3, [r4, #88]	; 0x58
     c6c:	e776      	b.n	b5c <context_boot_go+0x70>
        switch (BOOT_SWAP_TYPE(state)) {
     c6e:	2b05      	cmp	r3, #5
     c70:	d180      	bne.n	b74 <context_boot_go+0x88>
            rc = swap_set_image_ok(BOOT_CURR_IMG(state));
     c72:	2000      	movs	r0, #0
     c74:	f004 fff2 	bl	5c5c <swap_set_image_ok>
     c78:	e013      	b.n	ca2 <FIH_LABEL_FIH_CALL_END_2032+0x48>
        rc = boot_swap_image(state, bs);
     c7a:	4669      	mov	r1, sp
     c7c:	4620      	mov	r0, r4
     c7e:	f7ff feb5 	bl	9ec <boot_swap_image>
    swap_type = BOOT_SWAP_TYPE(state);
     c82:	f894 3058 	ldrb.w	r3, [r4, #88]	; 0x58
        rc = boot_swap_image(state, bs);
     c86:	4605      	mov	r5, r0
    if (swap_type == BOOT_SWAP_TYPE_REVERT ||
     c88:	1eda      	subs	r2, r3, #3
     c8a:	2a01      	cmp	r2, #1
     c8c:	d80c      	bhi.n	ca8 <FIH_LABEL_FIH_CALL_END_2032+0x4e>
        rc = swap_set_image_ok(BOOT_CURR_IMG(state));
     c8e:	2000      	movs	r0, #0
     c90:	f004 ffe4 	bl	5c5c <swap_set_image_ok>
        if (rc != 0) {
     c94:	4605      	mov	r5, r0
     c96:	2800      	cmp	r0, #0
     c98:	f47f af6c 	bne.w	b74 <context_boot_go+0x88>
        rc = swap_set_copy_done(BOOT_CURR_IMG(state));
     c9c:	2000      	movs	r0, #0
     c9e:	f004 ffcb 	bl	5c38 <swap_set_copy_done>
            if (rc != 0) {
     ca2:	4605      	mov	r5, r0
     ca4:	b110      	cbz	r0, cac <FIH_LABEL_FIH_CALL_END_2032+0x52>
     ca6:	e765      	b.n	b74 <context_boot_go+0x88>
    if (BOOT_IS_UPGRADE(swap_type)) {
     ca8:	2b02      	cmp	r3, #2
     caa:	d0f7      	beq.n	c9c <FIH_LABEL_FIH_CALL_END_2032+0x42>
        }

        if (BOOT_SWAP_TYPE(state) == BOOT_SWAP_TYPE_PANIC) {
     cac:	f894 3058 	ldrb.w	r3, [r4, #88]	; 0x58
     cb0:	2bff      	cmp	r3, #255	; 0xff
     cb2:	d104      	bne.n	cbe <FIH_LABEL_FIH_CALL_END_2032+0x64>
            BOOT_LOG_ERR("panic!");
     cb4:	2145      	movs	r1, #69	; 0x45
     cb6:	4823      	ldr	r0, [pc, #140]	; (d44 <FIH_LABEL_FIH_CALL_END_2283+0x56>)
     cb8:	f005 f9c4 	bl	6044 <z_log_minimal_printk>
            assert(0);

            /* Loop forever... */
            FIH_PANIC;
     cbc:	e7fe      	b.n	cbc <FIH_LABEL_FIH_CALL_END_2032+0x62>
#if BOOT_IMAGE_NUMBER > 1
        if (state->img_mask[BOOT_CURR_IMG(state)]) {
            continue;
        }
#endif
        if (BOOT_SWAP_TYPE(state) != BOOT_SWAP_TYPE_NONE) {
     cbe:	2b01      	cmp	r3, #1
     cc0:	d010      	beq.n	ce4 <FIH_LABEL_FIH_CALL_START_2268>
            /* Attempt to read an image header from each slot. Ensure that image
             * headers in slots are aligned with headers in boot_data.
             */
            rc = boot_read_image_headers(state, false, &bs);
     cc2:	466a      	mov	r2, sp
     cc4:	2100      	movs	r1, #0
     cc6:	4620      	mov	r0, r4
     cc8:	f004 fe62 	bl	5990 <boot_read_image_headers>
            if (rc != 0) {
     ccc:	4605      	mov	r5, r0
     cce:	b148      	cbz	r0, ce4 <FIH_LABEL_FIH_CALL_START_2268>
            flash_area_close(BOOT_IMG_AREA(state, BOOT_NUM_SLOTS - 1 - slot));
     cd0:	6ce0      	ldr	r0, [r4, #76]	; 0x4c
     cd2:	f005 f9c4 	bl	605e <flash_area_close>
     cd6:	6a20      	ldr	r0, [r4, #32]
     cd8:	f005 f9c1 	bl	605e <flash_area_close>
    if (rc) {
        fih_rc = fih_int_encode(rc);
    }

    FIH_RET(fih_rc);
}
     cdc:	4628      	mov	r0, r5
     cde:	b004      	add	sp, #16
     ce0:	e8bd 81f0 	ldmia.w	sp!, {r4, r5, r6, r7, r8, pc}

00000ce4 <FIH_LABEL_FIH_CALL_START_2268>:
            FIH_CALL(boot_validate_slot, fih_rc, state, BOOT_PRIMARY_SLOT, NULL);
     ce4:	2100      	movs	r1, #0
     ce6:	4620      	mov	r0, r4
     ce8:	f7ff fe04 	bl	8f4 <boot_validate_slot.isra.0>
     cec:	4607      	mov	r7, r0

00000cee <FIH_LABEL_FIH_CALL_END_2283>:
            if (fih_not_eq(fih_rc, FIH_SUCCESS)) {
     cee:	f8df 8058 	ldr.w	r8, [pc, #88]	; d48 <FIH_LABEL_FIH_CALL_END_2283+0x5a>
     cf2:	f8d8 3000 	ldr.w	r3, [r8]
     cf6:	4298      	cmp	r0, r3
     cf8:	d10f      	bne.n	d1a <FIH_LABEL_FIH_CALL_END_2283+0x2c>
    memset(&bs, 0, sizeof(struct boot_status));
     cfa:	2210      	movs	r2, #16
     cfc:	2100      	movs	r1, #0
     cfe:	4668      	mov	r0, sp
     d00:	f005 fa54 	bl	61ac <memset>
    rsp->br_flash_dev_id = flash_area_get_device_id(BOOT_IMG_AREA(state, active_slot));
     d04:	6a20      	ldr	r0, [r4, #32]
     d06:	f004 fd44 	bl	5792 <flash_area_get_device_id>
     d0a:	7130      	strb	r0, [r6, #4]
	return (uint32_t)fa->fa_off;
     d0c:	6a23      	ldr	r3, [r4, #32]
    rsp->br_image_off = boot_img_slot_off(state, active_slot);
     d0e:	685b      	ldr	r3, [r3, #4]
    rsp->br_hdr = boot_img_hdr(state, active_slot);
     d10:	6034      	str	r4, [r6, #0]
    fih_rc = FIH_SUCCESS;
     d12:	f8d8 5000 	ldr.w	r5, [r8]
    rsp->br_image_off = boot_img_slot_off(state, active_slot);
     d16:	60b3      	str	r3, [r6, #8]
    fih_rc = FIH_SUCCESS;
     d18:	e7da      	b.n	cd0 <FIH_LABEL_FIH_CALL_END_2032+0x76>
            flash_area_close(BOOT_IMG_AREA(state, BOOT_NUM_SLOTS - 1 - slot));
     d1a:	6ce0      	ldr	r0, [r4, #76]	; 0x4c
     d1c:	f005 f99f 	bl	605e <flash_area_close>
     d20:	6a20      	ldr	r0, [r4, #32]
     d22:	f005 f99c 	bl	605e <flash_area_close>
    if (rc) {
     d26:	2d00      	cmp	r5, #0
     d28:	bf08      	it	eq
     d2a:	463d      	moveq	r5, r7
     d2c:	e7d6      	b.n	cdc <FIH_LABEL_FIH_CALL_END_2032+0x82>
     d2e:	bf00      	nop
     d30:	200005d4 	.word	0x200005d4
     d34:	200001d4 	.word	0x200001d4
     d38:	00007233 	.word	0x00007233
     d3c:	000071f1 	.word	0x000071f1
     d40:	0000725f 	.word	0x0000725f
     d44:	00007289 	.word	0x00007289
     d48:	200001d0 	.word	0x200001d0

00000d4c <boot_go>:
 *
 * @return                      FIH_SUCCESS on success; nonzero on failure.
 */
fih_int
boot_go(struct boot_rsp *rsp)
{
     d4c:	b538      	push	{r3, r4, r5, lr}
void boot_state_clear(struct boot_loader_state *state)
{
    if (state != NULL) {
        memset(state, 0, sizeof(struct boot_loader_state));
    } else {
        memset(&boot_data, 0, sizeof(struct boot_loader_state));
     d4e:	4d06      	ldr	r5, [pc, #24]	; (d68 <FIH_LABEL_FIH_CALL_END_2905+0x4>)
{
     d50:	4604      	mov	r4, r0
        memset(&boot_data, 0, sizeof(struct boot_loader_state));
     d52:	2260      	movs	r2, #96	; 0x60
     d54:	2100      	movs	r1, #0
     d56:	4628      	mov	r0, r5
     d58:	f005 fa28 	bl	61ac <memset>

00000d5c <FIH_LABEL_FIH_CALL_START_2891>:
    FIH_CALL(context_boot_go, fih_rc, &boot_data, rsp);
     d5c:	4621      	mov	r1, r4
     d5e:	4628      	mov	r0, r5
     d60:	f7ff fec4 	bl	aec <context_boot_go>

00000d64 <FIH_LABEL_FIH_CALL_END_2905>:
}
     d64:	bd38      	pop	{r3, r4, r5, pc}
     d66:	bf00      	nop
     d68:	20000dd4 	.word	0x20000dd4

00000d6c <boot_read_image_header>:
static uint32_t g_last_idx = UINT32_MAX;

int
boot_read_image_header(struct boot_loader_state *state, int slot,
                       struct image_header *out_hdr, struct boot_status *bs)
{
     d6c:	b573      	push	{r0, r1, r4, r5, r6, lr}
     d6e:	4616      	mov	r6, r2
#if (BOOT_IMAGE_NUMBER == 1)
    (void)state;
#endif

    off = 0;
    if (bs) {
     d70:	461d      	mov	r5, r3
     d72:	b143      	cbz	r3, d86 <boot_read_image_header+0x1a>
        sz = boot_img_sector_size(state, BOOT_PRIMARY_SLOT, 0);
        if (bs->op == BOOT_STATUS_OP_MOVE) {
     d74:	795b      	ldrb	r3, [r3, #5]
     d76:	2b01      	cmp	r3, #1
     d78:	d107      	bne.n	d8a <boot_read_image_header+0x1e>
            if (slot == 0 && bs->idx > g_last_idx) {
     d7a:	b921      	cbnz	r1, d86 <boot_read_image_header+0x1a>
     d7c:	4b20      	ldr	r3, [pc, #128]	; (e00 <boot_read_image_header+0x94>)
     d7e:	682a      	ldr	r2, [r5, #0]
     d80:	681b      	ldr	r3, [r3, #0]
     d82:	429a      	cmp	r2, r3
     d84:	d817      	bhi.n	db6 <boot_read_image_header+0x4a>
    off = 0;
     d86:	2400      	movs	r4, #0
     d88:	e018      	b.n	dbc <boot_read_image_header+0x50>
                /* second sector */
                off = sz;
            }
        } else if (bs->op == BOOT_STATUS_OP_SWAP) {
     d8a:	2b02      	cmp	r3, #2
     d8c:	d1fb      	bne.n	d86 <boot_read_image_header+0x1a>
            if (bs->idx > 1 && bs->idx <= g_last_idx) {
     d8e:	682b      	ldr	r3, [r5, #0]
     d90:	2b01      	cmp	r3, #1
     d92:	d907      	bls.n	da4 <boot_read_image_header+0x38>
     d94:	4a1a      	ldr	r2, [pc, #104]	; (e00 <boot_read_image_header+0x94>)
     d96:	6812      	ldr	r2, [r2, #0]
     d98:	4293      	cmp	r3, r2
     d9a:	d8f4      	bhi.n	d86 <boot_read_image_header+0x1a>
                if (slot == 0) {
     d9c:	fab1 f181 	clz	r1, r1
     da0:	0949      	lsrs	r1, r1, #5
     da2:	e7f0      	b.n	d86 <boot_read_image_header+0x1a>
                    slot = 1;
                } else {
                    slot = 0;
                }
            } else if (bs->idx == 1) {
     da4:	d1ef      	bne.n	d86 <boot_read_image_header+0x1a>
                if (slot == 0) {
     da6:	b131      	cbz	r1, db6 <boot_read_image_header+0x4a>
                    off = sz;
                }
                if (slot == 1 && bs->state == 2) {
     da8:	2901      	cmp	r1, #1
     daa:	d1ec      	bne.n	d86 <boot_read_image_header+0x1a>
     dac:	7929      	ldrb	r1, [r5, #4]
     dae:	3902      	subs	r1, #2
     db0:	bf18      	it	ne
     db2:	2101      	movne	r1, #1
     db4:	e7e7      	b.n	d86 <boot_read_image_header+0x1a>
}

static inline uint32_t flash_sector_get_size(const struct flash_sector *fs)
{
	return fs->fs_size;
     db6:	2100      	movs	r1, #0
     db8:	6a43      	ldr	r3, [r0, #36]	; 0x24
     dba:	685c      	ldr	r4, [r3, #4]
                }
            }
        }
    }

    area_id = flash_area_id_from_multi_image_slot(BOOT_CURR_IMG(state), slot);
     dbc:	2000      	movs	r0, #0
     dbe:	f004 fcdf 	bl	5780 <flash_area_id_from_multi_image_slot>
    rc = flash_area_open(area_id, &fap);
     dc2:	a901      	add	r1, sp, #4
     dc4:	b2c0      	uxtb	r0, r0
     dc6:	f000 fe8b 	bl	1ae0 <flash_area_open>
    if (rc != 0) {
     dca:	b130      	cbz	r0, dda <boot_read_image_header+0x6e>
        rc = BOOT_EFLASH;
     dcc:	2401      	movs	r4, #1
    }

    rc = 0;

done:
    flash_area_close(fap);
     dce:	9801      	ldr	r0, [sp, #4]
     dd0:	f005 f945 	bl	605e <flash_area_close>
    return rc;
}
     dd4:	4620      	mov	r0, r4
     dd6:	b002      	add	sp, #8
     dd8:	bd70      	pop	{r4, r5, r6, pc}
    rc = flash_area_read(fap, off, out_hdr, sizeof *out_hdr);
     dda:	4621      	mov	r1, r4
     ddc:	2320      	movs	r3, #32
     dde:	4632      	mov	r2, r6
     de0:	9801      	ldr	r0, [sp, #4]
     de2:	f005 f93d 	bl	6060 <flash_area_read>
    if (rc != 0) {
     de6:	4604      	mov	r4, r0
     de8:	2800      	cmp	r0, #0
     dea:	d1ef      	bne.n	dcc <boot_read_image_header+0x60>
    if (bs != NULL && out_hdr->ih_magic != IMAGE_MAGIC) {
     dec:	2d00      	cmp	r5, #0
     dee:	d0ee      	beq.n	dce <boot_read_image_header+0x62>
     df0:	6834      	ldr	r4, [r6, #0]
     df2:	4b04      	ldr	r3, [pc, #16]	; (e04 <boot_read_image_header+0x98>)
     df4:	1ae4      	subs	r4, r4, r3
     df6:	bf18      	it	ne
     df8:	f04f 34ff 	movne.w	r4, #4294967295	; 0xffffffff
     dfc:	e7e7      	b.n	dce <boot_read_image_header+0x62>
     dfe:	bf00      	nop
     e00:	20000004 	.word	0x20000004
     e04:	96f3b83d 	.word	0x96f3b83d

00000e08 <swap_read_status_bytes>:

int
swap_read_status_bytes(const struct flash_area *fap,
        struct boot_loader_state *state, struct boot_status *bs)
{
     e08:	e92d 4ff0 	stmdb	sp!, {r4, r5, r6, r7, r8, r9, sl, fp, lr}
     e0c:	4607      	mov	r7, r0
     e0e:	460c      	mov	r4, r1
     e10:	b085      	sub	sp, #20
    int rc;
    int last_rc;
    int erased_sections;
    int i;

    max_entries = boot_status_entries(BOOT_CURR_IMG(state), fap);
     e12:	4601      	mov	r1, r0
     e14:	2000      	movs	r0, #0
{
     e16:	4616      	mov	r6, r2
    max_entries = boot_status_entries(BOOT_CURR_IMG(state), fap);
     e18:	f004 fd8b 	bl	5932 <boot_status_entries>
    if (max_entries < 0) {
     e1c:	1e05      	subs	r5, r0, #0
     e1e:	db50      	blt.n	ec2 <swap_read_status_bytes+0xba>
    erased_sections = 0;
    found_idx = -1;
    /* skip erased sectors at the end */
    last_rc = 1;
    write_sz = BOOT_WRITE_SZ(state);
    off = boot_status_off(fap);
     e20:	4638      	mov	r0, r7
    write_sz = BOOT_WRITE_SZ(state);
     e22:	6de4      	ldr	r4, [r4, #92]	; 0x5c
    off = boot_status_off(fap);
     e24:	f004 fd92 	bl	594c <boot_status_off>
    for (i = max_entries; i > 0; i--) {
     e28:	fa5f f984 	uxtb.w	r9, r4
    erased_sections = 0;
     e2c:	f04f 0a00 	mov.w	sl, #0
    last_rc = 1;
     e30:	f04f 0b01 	mov.w	fp, #1
    found_idx = -1;
     e34:	f04f 34ff 	mov.w	r4, #4294967295	; 0xffffffff
     e38:	1e6b      	subs	r3, r5, #1
     e3a:	fb09 0803 	mla	r8, r9, r3, r0
    for (i = max_entries; i > 0; i--) {
     e3e:	b99d      	cbnz	r5, e68 <swap_read_status_bytes+0x60>
            }
        }
        last_rc = rc;
    }

    if (erased_sections > 1) {
     e40:	f1ba 0f01 	cmp.w	sl, #1
     e44:	dd03      	ble.n	e4e <swap_read_status_bytes+0x46>
        /* This means there was an error writing status on the last
         * swap. Tell user and move on to validation!
         */
#if !defined(__BOOTSIM__)
        BOOT_LOG_ERR("Detected inconsistent status!");
     e46:	2145      	movs	r1, #69	; 0x45
     e48:	4820      	ldr	r0, [pc, #128]	; (ecc <swap_read_status_bytes+0xc4>)
     e4a:	f005 f8fb 	bl	6044 <z_log_minimal_printk>
        assert(0);
#endif
    }

    move_entries = BOOT_MAX_IMG_SECTORS * BOOT_STATUS_MOVE_STATE_COUNT;
    if (found_idx == -1) {
     e4e:	1c63      	adds	r3, r4, #1
     e50:	d006      	beq.n	e60 <swap_read_status_bytes+0x58>
        /* no swap status found; nothing to do */
    } else if (found_idx < move_entries) {
     e52:	2c7f      	cmp	r4, #127	; 0x7f
     e54:	dc2a      	bgt.n	eac <swap_read_status_bytes+0xa4>
        bs->op = BOOT_STATUS_OP_MOVE;
        bs->idx = (found_idx  / BOOT_STATUS_MOVE_STATE_COUNT) + BOOT_STATUS_IDX_0;
        bs->state = (found_idx % BOOT_STATUS_MOVE_STATE_COUNT) + BOOT_STATUS_STATE_0;;
     e56:	f240 1301 	movw	r3, #257	; 0x101
        bs->idx = (found_idx  / BOOT_STATUS_MOVE_STATE_COUNT) + BOOT_STATUS_IDX_0;
     e5a:	3401      	adds	r4, #1
     e5c:	6034      	str	r4, [r6, #0]
        bs->state = (found_idx % BOOT_STATUS_MOVE_STATE_COUNT) + BOOT_STATUS_STATE_0;;
     e5e:	80b3      	strh	r3, [r6, #4]
        bs->idx = ((found_idx - move_entries) / BOOT_STATUS_SWAP_STATE_COUNT) + BOOT_STATUS_IDX_0;
        bs->state = ((found_idx - move_entries) % BOOT_STATUS_SWAP_STATE_COUNT) + BOOT_STATUS_STATE_0;
    }

    return 0;
}
     e60:	4628      	mov	r0, r5
     e62:	b005      	add	sp, #20
     e64:	e8bd 8ff0 	ldmia.w	sp!, {r4, r5, r6, r7, r8, r9, sl, fp, pc}
        rc = flash_area_read(fap, off + (i - 1) * write_sz, &status, 1);
     e68:	1e6b      	subs	r3, r5, #1
     e6a:	9300      	str	r3, [sp, #0]
     e6c:	4641      	mov	r1, r8
     e6e:	2301      	movs	r3, #1
     e70:	4638      	mov	r0, r7
     e72:	f10d 020f 	add.w	r2, sp, #15
     e76:	f005 f8f3 	bl	6060 <flash_area_read>
        if (rc < 0) {
     e7a:	1e03      	subs	r3, r0, #0
     e7c:	9301      	str	r3, [sp, #4]
     e7e:	db22      	blt.n	ec6 <swap_read_status_bytes+0xbe>
        if (bootutil_buffer_is_erased(fap, &status, 1)) {
     e80:	2201      	movs	r2, #1
     e82:	4638      	mov	r0, r7
     e84:	f10d 010f 	add.w	r1, sp, #15
     e88:	f005 fbb5 	bl	65f6 <bootutil_buffer_is_erased>
     e8c:	9b01      	ldr	r3, [sp, #4]
     e8e:	b140      	cbz	r0, ea2 <swap_read_status_bytes+0x9a>
            if (rc != last_rc) {
     e90:	455b      	cmp	r3, fp
     e92:	d001      	beq.n	e98 <swap_read_status_bytes+0x90>
                erased_sections++;
     e94:	f10a 0a01 	add.w	sl, sl, #1
            if (found_idx == -1) {
     e98:	469b      	mov	fp, r3
     e9a:	9d00      	ldr	r5, [sp, #0]
     e9c:	eba8 0809 	sub.w	r8, r8, r9
     ea0:	e7cd      	b.n	e3e <swap_read_status_bytes+0x36>
     ea2:	f1b4 3fff 	cmp.w	r4, #4294967295	; 0xffffffff
     ea6:	bf08      	it	eq
     ea8:	462c      	moveq	r4, r5
     eaa:	e7f5      	b.n	e98 <swap_read_status_bytes+0x90>
        bs->op = BOOT_STATUS_OP_SWAP;
     eac:	2302      	movs	r3, #2
        bs->idx = ((found_idx - move_entries) / BOOT_STATUS_SWAP_STATE_COUNT) + BOOT_STATUS_IDX_0;
     eae:	3c80      	subs	r4, #128	; 0x80
        bs->op = BOOT_STATUS_OP_SWAP;
     eb0:	7173      	strb	r3, [r6, #5]
        bs->idx = ((found_idx - move_entries) / BOOT_STATUS_SWAP_STATE_COUNT) + BOOT_STATUS_IDX_0;
     eb2:	1063      	asrs	r3, r4, #1
        bs->state = ((found_idx - move_entries) % BOOT_STATUS_SWAP_STATE_COUNT) + BOOT_STATUS_STATE_0;
     eb4:	f004 0401 	and.w	r4, r4, #1
        bs->idx = ((found_idx - move_entries) / BOOT_STATUS_SWAP_STATE_COUNT) + BOOT_STATUS_IDX_0;
     eb8:	3301      	adds	r3, #1
        bs->state = ((found_idx - move_entries) % BOOT_STATUS_SWAP_STATE_COUNT) + BOOT_STATUS_STATE_0;
     eba:	3401      	adds	r4, #1
        bs->idx = ((found_idx - move_entries) / BOOT_STATUS_SWAP_STATE_COUNT) + BOOT_STATUS_IDX_0;
     ebc:	6033      	str	r3, [r6, #0]
        bs->state = ((found_idx - move_entries) % BOOT_STATUS_SWAP_STATE_COUNT) + BOOT_STATUS_STATE_0;
     ebe:	7134      	strb	r4, [r6, #4]
     ec0:	e7ce      	b.n	e60 <swap_read_status_bytes+0x58>
        return BOOT_EBADARGS;
     ec2:	2507      	movs	r5, #7
     ec4:	e7cc      	b.n	e60 <swap_read_status_bytes+0x58>
            return BOOT_EFLASH;
     ec6:	2501      	movs	r5, #1
     ec8:	e7ca      	b.n	e60 <swap_read_status_bytes+0x58>
     eca:	bf00      	nop
     ecc:	00007295 	.word	0x00007295

00000ed0 <boot_slots_compatible>:
    return off;
}

int
boot_slots_compatible(struct boot_loader_state *state)
{
     ed0:	b538      	push	{r3, r4, r5, lr}
}

static inline size_t
boot_img_num_sectors(const struct boot_loader_state *state, size_t slot)
{
    return BOOT_IMG(state, slot).num_sectors;
     ed2:	6a81      	ldr	r1, [r0, #40]	; 0x28
     ed4:	6d42      	ldr	r2, [r0, #84]	; 0x54
    size_t sector_sz_sec = 0;
    size_t i;

    num_sectors_pri = boot_img_num_sectors(state, BOOT_PRIMARY_SLOT);
    num_sectors_sec = boot_img_num_sectors(state, BOOT_SECONDARY_SLOT);
    if ((num_sectors_pri != num_sectors_sec) &&
     ed6:	4291      	cmp	r1, r2
     ed8:	d008      	beq.n	eec <boot_slots_compatible+0x1c>
            (num_sectors_pri != (num_sectors_sec + 1))) {
     eda:	1c53      	adds	r3, r2, #1
    if ((num_sectors_pri != num_sectors_sec) &&
     edc:	428b      	cmp	r3, r1
     ede:	d005      	beq.n	eec <boot_slots_compatible+0x1c>
        BOOT_LOG_WRN("Cannot upgrade: not a compatible amount of sectors");
     ee0:	2157      	movs	r1, #87	; 0x57
     ee2:	4813      	ldr	r0, [pc, #76]	; (f30 <boot_slots_compatible+0x60>)
        return 0;
    }

    if (num_sectors_pri > BOOT_MAX_IMG_SECTORS) {
        BOOT_LOG_WRN("Cannot upgrade: more sectors than allowed");
     ee4:	f005 f8ae 	bl	6044 <z_log_minimal_printk>
        return 0;
     ee8:	2000      	movs	r0, #0
        }
    }

    return 1;
#endif /* PM_S1_ADDRESS */
}
     eea:	bd38      	pop	{r3, r4, r5, pc}
    if (num_sectors_pri > BOOT_MAX_IMG_SECTORS) {
     eec:	2980      	cmp	r1, #128	; 0x80
     eee:	d91c      	bls.n	f2a <boot_slots_compatible+0x5a>
        BOOT_LOG_WRN("Cannot upgrade: more sectors than allowed");
     ef0:	2157      	movs	r1, #87	; 0x57
     ef2:	4810      	ldr	r0, [pc, #64]	; (f34 <boot_slots_compatible+0x64>)
     ef4:	e7f6      	b.n	ee4 <boot_slots_compatible+0x14>
     ef6:	6a44      	ldr	r4, [r0, #36]	; 0x24
     ef8:	6d05      	ldr	r5, [r0, #80]	; 0x50
     efa:	eb04 04c3 	add.w	r4, r4, r3, lsl #3
     efe:	eb05 05c3 	add.w	r5, r5, r3, lsl #3
     f02:	6864      	ldr	r4, [r4, #4]
        if (sector_sz_pri != sector_sz_sec) {
     f04:	686d      	ldr	r5, [r5, #4]
     f06:	42ac      	cmp	r4, r5
     f08:	d002      	beq.n	f10 <boot_slots_compatible+0x40>
            BOOT_LOG_WRN("Cannot upgrade: not same sector layout");
     f0a:	2157      	movs	r1, #87	; 0x57
     f0c:	480a      	ldr	r0, [pc, #40]	; (f38 <boot_slots_compatible+0x68>)
     f0e:	e7e9      	b.n	ee4 <boot_slots_compatible+0x14>
    for (i = 0; i < num_sectors_sec; i++) {
     f10:	3301      	adds	r3, #1
     f12:	429a      	cmp	r2, r3
     f14:	d1ef      	bne.n	ef6 <boot_slots_compatible+0x26>
    if (num_sectors_pri > num_sectors_sec) {
     f16:	4291      	cmp	r1, r2
     f18:	d905      	bls.n	f26 <boot_slots_compatible+0x56>
     f1a:	6a43      	ldr	r3, [r0, #36]	; 0x24
     f1c:	eb03 03c2 	add.w	r3, r3, r2, lsl #3
        if (sector_sz_pri != boot_img_sector_size(state, BOOT_PRIMARY_SLOT, i)) {
     f20:	685b      	ldr	r3, [r3, #4]
     f22:	42a3      	cmp	r3, r4
     f24:	d1f1      	bne.n	f0a <boot_slots_compatible+0x3a>
    return 1;
     f26:	2001      	movs	r0, #1
     f28:	e7df      	b.n	eea <boot_slots_compatible+0x1a>
    for (i = 0; i < num_sectors_sec; i++) {
     f2a:	2300      	movs	r3, #0
    size_t sector_sz_pri = 0;
     f2c:	461c      	mov	r4, r3
     f2e:	e7f0      	b.n	f12 <boot_slots_compatible+0x42>
     f30:	000072b8 	.word	0x000072b8
     f34:	000072f0 	.word	0x000072f0
     f38:	0000731f 	.word	0x0000731f

00000f3c <swap_status_source>:
                 (state)->copy_done,                                \
                 (state)->image_ok)

int
swap_status_source(struct boot_loader_state *state)
{
     f3c:	b500      	push	{lr}
     f3e:	b089      	sub	sp, #36	; 0x24
    (void)state;
#endif

    image_index = BOOT_CURR_IMG(state);

    rc = boot_read_swap_state_by_id(FLASH_AREA_IMAGE_PRIMARY(image_index),
     f40:	2003      	movs	r0, #3
     f42:	a904      	add	r1, sp, #16
     f44:	f005 fbc9 	bl	66da <boot_read_swap_state_by_id>
            &state_primary_slot);
    assert(rc == 0);

    BOOT_LOG_SWAP_STATE("Primary image", &state_primary_slot);
     f48:	f89d 2010 	ldrb.w	r2, [sp, #16]
     f4c:	2a01      	cmp	r2, #1
     f4e:	d041      	beq.n	fd4 <swap_status_source+0x98>
     f50:	4b25      	ldr	r3, [pc, #148]	; (fe8 <swap_status_source+0xac>)
     f52:	4926      	ldr	r1, [pc, #152]	; (fec <swap_status_source+0xb0>)
     f54:	2a03      	cmp	r2, #3
     f56:	bf08      	it	eq
     f58:	460b      	moveq	r3, r1
     f5a:	f89d 2013 	ldrb.w	r2, [sp, #19]
     f5e:	2149      	movs	r1, #73	; 0x49
     f60:	9202      	str	r2, [sp, #8]
     f62:	f89d 2012 	ldrb.w	r2, [sp, #18]
     f66:	4822      	ldr	r0, [pc, #136]	; (ff0 <swap_status_source+0xb4>)
     f68:	9201      	str	r2, [sp, #4]
     f6a:	f89d 2011 	ldrb.w	r2, [sp, #17]
     f6e:	9200      	str	r2, [sp, #0]
     f70:	4a20      	ldr	r2, [pc, #128]	; (ff4 <swap_status_source+0xb8>)
     f72:	f005 f867 	bl	6044 <z_log_minimal_printk>

    rc = boot_read_swap_state_by_id(FLASH_AREA_IMAGE_SECONDARY(image_index),
     f76:	2009      	movs	r0, #9
     f78:	a906      	add	r1, sp, #24
     f7a:	f005 fbae 	bl	66da <boot_read_swap_state_by_id>
            &state_secondary_slot);
    assert(rc == 0);

    BOOT_LOG_SWAP_STATE("Secondary image", &state_secondary_slot);
     f7e:	f89d 2018 	ldrb.w	r2, [sp, #24]
     f82:	2a01      	cmp	r2, #1
     f84:	d028      	beq.n	fd8 <swap_status_source+0x9c>
     f86:	4b18      	ldr	r3, [pc, #96]	; (fe8 <swap_status_source+0xac>)
     f88:	4918      	ldr	r1, [pc, #96]	; (fec <swap_status_source+0xb0>)
     f8a:	2a03      	cmp	r2, #3
     f8c:	bf08      	it	eq
     f8e:	460b      	moveq	r3, r1
     f90:	f89d 201b 	ldrb.w	r2, [sp, #27]
     f94:	2149      	movs	r1, #73	; 0x49
     f96:	9202      	str	r2, [sp, #8]
     f98:	f89d 201a 	ldrb.w	r2, [sp, #26]
     f9c:	4814      	ldr	r0, [pc, #80]	; (ff0 <swap_status_source+0xb4>)
     f9e:	9201      	str	r2, [sp, #4]
     fa0:	f89d 2019 	ldrb.w	r2, [sp, #25]
     fa4:	9200      	str	r2, [sp, #0]
     fa6:	4a14      	ldr	r2, [pc, #80]	; (ff8 <swap_status_source+0xbc>)
     fa8:	f005 f84c 	bl	6044 <z_log_minimal_printk>

    if (state_primary_slot.magic == BOOT_MAGIC_GOOD &&
     fac:	f89d 3010 	ldrb.w	r3, [sp, #16]
     fb0:	2b01      	cmp	r3, #1
     fb2:	d113      	bne.n	fdc <swap_status_source+0xa0>
     fb4:	f89d 3012 	ldrb.w	r3, [sp, #18]
     fb8:	2b03      	cmp	r3, #3
     fba:	d10f      	bne.n	fdc <swap_status_source+0xa0>
            state_primary_slot.copy_done == BOOT_FLAG_UNSET &&
     fbc:	f89d 3018 	ldrb.w	r3, [sp, #24]
     fc0:	2b01      	cmp	r3, #1
     fc2:	d00b      	beq.n	fdc <swap_status_source+0xa0>
            state_secondary_slot.magic != BOOT_MAGIC_GOOD) {

        source = BOOT_STATUS_SOURCE_PRIMARY_SLOT;

        BOOT_LOG_INF("Boot source: primary slot");
     fc4:	480d      	ldr	r0, [pc, #52]	; (ffc <swap_status_source+0xc0>)
     fc6:	2149      	movs	r1, #73	; 0x49
     fc8:	f005 f83c 	bl	6044 <z_log_minimal_printk>
        return source;
     fcc:	2002      	movs	r0, #2
    }

    BOOT_LOG_INF("Boot source: none");
    return BOOT_STATUS_SOURCE_NONE;
}
     fce:	b009      	add	sp, #36	; 0x24
     fd0:	f85d fb04 	ldr.w	pc, [sp], #4
    BOOT_LOG_SWAP_STATE("Primary image", &state_primary_slot);
     fd4:	4b0a      	ldr	r3, [pc, #40]	; (1000 <CONFIG_NORDIC_QSPI_NOR_FLASH_LAYOUT_PAGE_SIZE>)
     fd6:	e7c0      	b.n	f5a <swap_status_source+0x1e>
    BOOT_LOG_SWAP_STATE("Secondary image", &state_secondary_slot);
     fd8:	4b09      	ldr	r3, [pc, #36]	; (1000 <CONFIG_NORDIC_QSPI_NOR_FLASH_LAYOUT_PAGE_SIZE>)
     fda:	e7d9      	b.n	f90 <swap_status_source+0x54>
    BOOT_LOG_INF("Boot source: none");
     fdc:	4809      	ldr	r0, [pc, #36]	; (1004 <CONFIG_NORDIC_QSPI_NOR_FLASH_LAYOUT_PAGE_SIZE+0x4>)
     fde:	2149      	movs	r1, #73	; 0x49
     fe0:	f005 f830 	bl	6044 <z_log_minimal_printk>
    return BOOT_STATUS_SOURCE_NONE;
     fe4:	2000      	movs	r0, #0
     fe6:	e7f2      	b.n	fce <swap_status_source+0x92>
     fe8:	0000734b 	.word	0x0000734b
     fec:	00007354 	.word	0x00007354
     ff0:	00007368 	.word	0x00007368
     ff4:	0000735a 	.word	0x0000735a
     ff8:	000073a9 	.word	0x000073a9
     ffc:	000073b9 	.word	0x000073b9
    1000:	0000734f 	.word	0x0000734f
    1004:	000073d8 	.word	0x000073d8

00001008 <fixup_revert>:
 * upgrade (by initializing the secondary slot).
 */
void
fixup_revert(const struct boot_loader_state *state, struct boot_status *bs,
        const struct flash_area *fap_sec)
{
    1008:	b570      	push	{r4, r5, r6, lr}
#if (BOOT_IMAGE_NUMBER == 1)
    (void)state;
#endif

    /* No fixup required */
    if (bs->swap_type != BOOT_SWAP_TYPE_REVERT ||
    100a:	684b      	ldr	r3, [r1, #4]
{
    100c:	4614      	mov	r4, r2
    if (bs->swap_type != BOOT_SWAP_TYPE_REVERT ||
    100e:	4a1e      	ldr	r2, [pc, #120]	; (1088 <fixup_revert+0x80>)
    1010:	f003 23ff 	and.w	r3, r3, #4278255360	; 0xff00ff00
    1014:	4293      	cmp	r3, r2
{
    1016:	4606      	mov	r6, r0
    1018:	460d      	mov	r5, r1
    101a:	b086      	sub	sp, #24
    if (bs->swap_type != BOOT_SWAP_TYPE_REVERT ||
    101c:	d12f      	bne.n	107e <fixup_revert+0x76>
        bs->op != BOOT_STATUS_OP_MOVE ||
    101e:	680b      	ldr	r3, [r1, #0]
    1020:	2b01      	cmp	r3, #1
    1022:	d12c      	bne.n	107e <fixup_revert+0x76>
        bs->idx != BOOT_STATUS_IDX_0) {
        return;
    }

    rc = boot_read_swap_state(fap_sec, &swap_state);
    1024:	4620      	mov	r0, r4
    1026:	a904      	add	r1, sp, #16
    1028:	f002 f8c8 	bl	31bc <boot_read_swap_state>
    assert(rc == 0);

    BOOT_LOG_SWAP_STATE("Secondary image", &swap_state);
    102c:	f89d 2010 	ldrb.w	r2, [sp, #16]
    1030:	2a01      	cmp	r2, #1
    1032:	d026      	beq.n	1082 <fixup_revert+0x7a>
    1034:	4b15      	ldr	r3, [pc, #84]	; (108c <fixup_revert+0x84>)
    1036:	4916      	ldr	r1, [pc, #88]	; (1090 <fixup_revert+0x88>)
    1038:	2a03      	cmp	r2, #3
    103a:	bf08      	it	eq
    103c:	460b      	moveq	r3, r1
    103e:	f89d 2013 	ldrb.w	r2, [sp, #19]
    1042:	2149      	movs	r1, #73	; 0x49
    1044:	9202      	str	r2, [sp, #8]
    1046:	f89d 2012 	ldrb.w	r2, [sp, #18]
    104a:	4812      	ldr	r0, [pc, #72]	; (1094 <fixup_revert+0x8c>)
    104c:	9201      	str	r2, [sp, #4]
    104e:	f89d 2011 	ldrb.w	r2, [sp, #17]
    1052:	9200      	str	r2, [sp, #0]
    1054:	4a10      	ldr	r2, [pc, #64]	; (1098 <fixup_revert+0x90>)
    1056:	f004 fff5 	bl	6044 <z_log_minimal_printk>

    if (swap_state.magic == BOOT_MAGIC_UNSET) {
    105a:	f89d 3010 	ldrb.w	r3, [sp, #16]
    105e:	2b03      	cmp	r3, #3
    1060:	d10d      	bne.n	107e <fixup_revert+0x76>
        rc = swap_erase_trailer_sectors(state, fap_sec);
    1062:	4621      	mov	r1, r4
    1064:	4630      	mov	r0, r6
    1066:	f004 fd55 	bl	5b14 <swap_erase_trailer_sectors>
        assert(rc == 0);

        rc = boot_write_image_ok(fap_sec);
    106a:	4620      	mov	r0, r4
    106c:	f005 fb28 	bl	66c0 <boot_write_image_ok>
        assert(rc == 0);

        rc = boot_write_swap_size(fap_sec, bs->swap_size);
    1070:	4620      	mov	r0, r4
    1072:	68a9      	ldr	r1, [r5, #8]
    1074:	f004 fc7d 	bl	5972 <boot_write_swap_size>
        assert(rc == 0);

        rc = boot_write_magic(fap_sec);
    1078:	4620      	mov	r0, r4
    107a:	f002 f87f 	bl	317c <boot_write_magic>
        assert(rc == 0);
    }
}
    107e:	b006      	add	sp, #24
    1080:	bd70      	pop	{r4, r5, r6, pc}
    BOOT_LOG_SWAP_STATE("Secondary image", &swap_state);
    1082:	4b06      	ldr	r3, [pc, #24]	; (109c <fixup_revert+0x94>)
    1084:	e7db      	b.n	103e <fixup_revert+0x36>
    1086:	bf00      	nop
    1088:	04000100 	.word	0x04000100
    108c:	0000734b 	.word	0x0000734b
    1090:	00007354 	.word	0x00007354
    1094:	00007368 	.word	0x00007368
    1098:	000073a9 	.word	0x000073a9
    109c:	0000734f 	.word	0x0000734f

000010a0 <swap_run>:

void
swap_run(struct boot_loader_state *state, struct boot_status *bs,
         uint32_t copy_size)
{
    10a0:	e92d 4ff0 	stmdb	sp!, {r4, r5, r6, r7, r8, r9, sl, fp, lr}
    10a4:	4605      	mov	r5, r0
    10a6:	460c      	mov	r4, r1
    uint8_t image_index;
    const struct flash_area *fap_pri;
    const struct flash_area *fap_sec;
    int rc;

    BOOT_LOG_INF("Starting swap using move algorithm.");
    10a8:	487d      	ldr	r0, [pc, #500]	; (12a0 <swap_run+0x200>)
    10aa:	2149      	movs	r1, #73	; 0x49
{
    10ac:	b089      	sub	sp, #36	; 0x24
    10ae:	4617      	mov	r7, r2
    BOOT_LOG_INF("Starting swap using move algorithm.");
    10b0:	f004 ffc8 	bl	6044 <z_log_minimal_printk>
    10b4:	6a6b      	ldr	r3, [r5, #36]	; 0x24
    10b6:	2201      	movs	r2, #1
    10b8:	685e      	ldr	r6, [r3, #4]

    sz = 0;
    10ba:	2300      	movs	r3, #0
    g_last_idx = 0;

    sector_sz = boot_img_sector_size(state, BOOT_PRIMARY_SLOT, 0);
    while (1) {
        sz += sector_sz;
    10bc:	4433      	add	r3, r6
        /* Skip to next sector because all sectors will be moved up. */
        g_last_idx++;
        if (sz >= copy_size) {
    10be:	42bb      	cmp	r3, r7
    10c0:	4611      	mov	r1, r2
    10c2:	f102 0201 	add.w	r2, r2, #1
    10c6:	d3f9      	bcc.n	10bc <swap_run+0x1c>
    10c8:	4f76      	ldr	r7, [pc, #472]	; (12a4 <swap_run+0x204>)
    }

    /*
     * When starting a new swap upgrade, check that there is enough space.
     */
    if (boot_status_is_reset(bs)) {
    10ca:	4620      	mov	r0, r4
    10cc:	6039      	str	r1, [r7, #0]
    10ce:	f004 fce0 	bl	5a92 <boot_status_is_reset>
    10d2:	b308      	cbz	r0, 1118 <swap_run+0x78>
        sz = 0;
        trailer_sz = boot_trailer_sz(BOOT_WRITE_SZ(state));
    10d4:	6de8      	ldr	r0, [r5, #92]	; 0x5c
    10d6:	f004 fc27 	bl	5928 <boot_trailer_sz>
        first_trailer_idx = boot_img_num_sectors(state, BOOT_PRIMARY_SLOT) - 1;
    10da:	6aab      	ldr	r3, [r5, #40]	; 0x28
    10dc:	f103 38ff 	add.w	r8, r3, #4294967295	; 0xffffffff
        sz = 0;
    10e0:	2300      	movs	r3, #0

        while (1) {
            sz += sector_sz;
    10e2:	4433      	add	r3, r6
            if  (sz >= trailer_sz) {
    10e4:	4283      	cmp	r3, r0
    10e6:	d202      	bcs.n	10ee <swap_run+0x4e>
                break;
            }
            first_trailer_idx--;
    10e8:	f108 38ff 	add.w	r8, r8, #4294967295	; 0xffffffff
            sz += sector_sz;
    10ec:	e7f9      	b.n	10e2 <swap_run+0x42>
        }

        if (g_last_idx >= first_trailer_idx) {
    10ee:	683b      	ldr	r3, [r7, #0]
    10f0:	4543      	cmp	r3, r8
    10f2:	d311      	bcc.n	1118 <swap_run+0x78>
            BOOT_LOG_WRN("Not enough free space to run swap upgrade");
    10f4:	2157      	movs	r1, #87	; 0x57
    10f6:	486c      	ldr	r0, [pc, #432]	; (12a8 <swap_run+0x208>)
    10f8:	f004 ffa4 	bl	6044 <z_log_minimal_printk>
            BOOT_LOG_WRN("required %d bytes but only %d are available",
    10fc:	683a      	ldr	r2, [r7, #0]
    10fe:	fb08 f306 	mul.w	r3, r8, r6
    1102:	2157      	movs	r1, #87	; 0x57
    1104:	fb02 6206 	mla	r2, r2, r6, r6
    1108:	4868      	ldr	r0, [pc, #416]	; (12ac <swap_run+0x20c>)
    110a:	f004 ff9b 	bl	6044 <z_log_minimal_printk>
                         (g_last_idx + 1) * sector_sz ,
                         first_trailer_idx * sector_sz);
            bs->swap_type = BOOT_SWAP_TYPE_NONE;
    110e:	2301      	movs	r3, #1
    1110:	71e3      	strb	r3, [r4, #7]
        idx++;
    }

    flash_area_close(fap_pri);
    flash_area_close(fap_sec);
}
    1112:	b009      	add	sp, #36	; 0x24
    1114:	e8bd 8ff0 	ldmia.w	sp!, {r4, r5, r6, r7, r8, r9, sl, fp, pc}
    rc = flash_area_open(FLASH_AREA_IMAGE_PRIMARY(image_index), &fap_pri);
    1118:	a906      	add	r1, sp, #24
    111a:	2003      	movs	r0, #3
    111c:	f000 fce0 	bl	1ae0 <flash_area_open>
    rc = flash_area_open(FLASH_AREA_IMAGE_SECONDARY(image_index), &fap_sec);
    1120:	a907      	add	r1, sp, #28
    1122:	2009      	movs	r0, #9
    1124:	f000 fcdc 	bl	1ae0 <flash_area_open>
    fixup_revert(state, bs, fap_sec);
    1128:	4621      	mov	r1, r4
    112a:	4628      	mov	r0, r5
    112c:	9a07      	ldr	r2, [sp, #28]
    112e:	f7ff ff6b 	bl	1008 <fixup_revert>
    if (bs->op == BOOT_STATUS_OP_MOVE) {
    1132:	7963      	ldrb	r3, [r4, #5]
    1134:	2b01      	cmp	r3, #1
    1136:	d10b      	bne.n	1150 <swap_run+0xb0>
        idx = g_last_idx;
    1138:	f8d7 8000 	ldr.w	r8, [r7]
    BOOT_STATUS_ASSERT(rc == 0);
    113c:	f8df b170 	ldr.w	fp, [pc, #368]	; 12b0 <swap_run+0x210>
            if (idx <= (g_last_idx - bs->idx + 1)) {
    1140:	683b      	ldr	r3, [r7, #0]
                boot_move_sector_up(idx, sector_sz, state, bs, fap_pri, fap_sec);
    1142:	f8dd 9018 	ldr.w	r9, [sp, #24]
        while (idx > 0) {
    1146:	f1b8 0f00 	cmp.w	r8, #0
    114a:	d111      	bne.n	1170 <swap_run+0xd0>
        bs->idx = BOOT_STATUS_IDX_0;
    114c:	2301      	movs	r3, #1
    114e:	6023      	str	r3, [r4, #0]
    bs->op = BOOT_STATUS_OP_SWAP;
    1150:	2302      	movs	r3, #2
    idx = 1;
    1152:	f04f 0801 	mov.w	r8, #1
    bs->op = BOOT_STATUS_OP_SWAP;
    1156:	7163      	strb	r3, [r4, #5]
    while (idx <= g_last_idx) {
    1158:	683b      	ldr	r3, [r7, #0]
            boot_swap_sectors(idx, sector_sz, state, bs, fap_pri, fap_sec);
    115a:	f8dd a018 	ldr.w	sl, [sp, #24]
    while (idx <= g_last_idx) {
    115e:	4598      	cmp	r8, r3
    1160:	d949      	bls.n	11f6 <swap_run+0x156>
    flash_area_close(fap_pri);
    1162:	4650      	mov	r0, sl
    1164:	f004 ff7b 	bl	605e <flash_area_close>
    flash_area_close(fap_sec);
    1168:	9807      	ldr	r0, [sp, #28]
    116a:	f004 ff78 	bl	605e <flash_area_close>
    116e:	e7d0      	b.n	1112 <swap_run+0x72>
            if (idx <= (g_last_idx - bs->idx + 1)) {
    1170:	6822      	ldr	r2, [r4, #0]
    1172:	3301      	adds	r3, #1
    1174:	1a9b      	subs	r3, r3, r2
    1176:	4598      	cmp	r8, r3
    1178:	d83a      	bhi.n	11f0 <swap_run+0x150>

static inline uint32_t
boot_img_sector_off(const struct boot_loader_state *state, size_t slot,
                    size_t sector)
{
    return flash_sector_get_off(&BOOT_IMG(state, slot).sectors[sector]) -
    117a:	6a6b      	ldr	r3, [r5, #36]	; 0x24
    if (bs->idx == BOOT_STATUS_IDX_0) {
    117c:	2a01      	cmp	r2, #1
	return fs->fs_off;
    117e:	6819      	ldr	r1, [r3, #0]
    1180:	f853 0038 	ldr.w	r0, [r3, r8, lsl #3]
    1184:	eb03 03c8 	add.w	r3, r3, r8, lsl #3
    1188:	f853 3c08 	ldr.w	r3, [r3, #-8]
    118c:	eba0 0a01 	sub.w	sl, r0, r1
    1190:	eba3 0301 	sub.w	r3, r3, r1
    1194:	9304      	str	r3, [sp, #16]
    1196:	d111      	bne.n	11bc <swap_run+0x11c>
                boot_move_sector_up(idx, sector_sz, state, bs, fap_pri, fap_sec);
    1198:	9b07      	ldr	r3, [sp, #28]
    119a:	9303      	str	r3, [sp, #12]
        if (bs->source != BOOT_STATUS_SOURCE_PRIMARY_SLOT) {
    119c:	68e3      	ldr	r3, [r4, #12]
    119e:	2b02      	cmp	r3, #2
    11a0:	d008      	beq.n	11b4 <swap_run+0x114>
            rc = swap_erase_trailer_sectors(state, fap_pri);
    11a2:	4649      	mov	r1, r9
    11a4:	4628      	mov	r0, r5
    11a6:	f004 fcb5 	bl	5b14 <swap_erase_trailer_sectors>
            rc = swap_status_init(state, fap_pri, bs);
    11aa:	4622      	mov	r2, r4
    11ac:	4649      	mov	r1, r9
    11ae:	4628      	mov	r0, r5
    11b0:	f004 fce6 	bl	5b80 <swap_status_init>
        rc = swap_erase_trailer_sectors(state, fap_sec);
    11b4:	4628      	mov	r0, r5
    11b6:	9903      	ldr	r1, [sp, #12]
    11b8:	f004 fcac 	bl	5b14 <swap_erase_trailer_sectors>
    rc = boot_erase_region(fap_pri, new_off, sz);
    11bc:	4632      	mov	r2, r6
    11be:	4651      	mov	r1, sl
    11c0:	4648      	mov	r0, r9
    11c2:	f004 fca5 	bl	5b10 <boot_erase_region>
    rc = boot_copy_region(state, fap_pri, fap_pri, old_off, new_off, sz);
    11c6:	9b04      	ldr	r3, [sp, #16]
    11c8:	464a      	mov	r2, r9
    11ca:	4649      	mov	r1, r9
    11cc:	4628      	mov	r0, r5
    11ce:	e9cd a600 	strd	sl, r6, [sp]
    11d2:	f7ff fc49 	bl	a68 <boot_copy_region>
    rc = boot_write_status(state, bs);
    11d6:	4621      	mov	r1, r4
    11d8:	4628      	mov	r0, r5
    11da:	f004 fc67 	bl	5aac <boot_write_status>
    bs->idx++;
    11de:	6823      	ldr	r3, [r4, #0]
    11e0:	3301      	adds	r3, #1
    11e2:	6023      	str	r3, [r4, #0]
    BOOT_STATUS_ASSERT(rc == 0);
    11e4:	b120      	cbz	r0, 11f0 <swap_run+0x150>
    11e6:	f8db 3000 	ldr.w	r3, [fp]
    11ea:	3301      	adds	r3, #1
    11ec:	f8cb 3000 	str.w	r3, [fp]
            idx--;
    11f0:	f108 38ff 	add.w	r8, r8, #4294967295	; 0xffffffff
    11f4:	e7a4      	b.n	1140 <swap_run+0xa0>
        if (idx >= bs->idx) {
    11f6:	6823      	ldr	r3, [r4, #0]
    11f8:	4598      	cmp	r8, r3
    11fa:	d34e      	bcc.n	129a <swap_run+0x1fa>
    11fc:	6a6a      	ldr	r2, [r5, #36]	; 0x24
    11fe:	ea4f 03c8 	mov.w	r3, r8, lsl #3
    1202:	f852 1038 	ldr.w	r1, [r2, r8, lsl #3]
    1206:	3b08      	subs	r3, #8
    1208:	9104      	str	r1, [sp, #16]
    120a:	6811      	ldr	r1, [r2, #0]
            boot_swap_sectors(idx, sector_sz, state, bs, fap_pri, fap_sec);
    120c:	f8dd b01c 	ldr.w	fp, [sp, #28]
    1210:	9103      	str	r1, [sp, #12]
    1212:	58d1      	ldr	r1, [r2, r3]
    1214:	6d2a      	ldr	r2, [r5, #80]	; 0x50
    1216:	58d0      	ldr	r0, [r2, r3]
    1218:	6813      	ldr	r3, [r2, #0]
    121a:	eba0 0903 	sub.w	r9, r0, r3
    if (bs->state == BOOT_STATUS_STATE_0) {
    121e:	7923      	ldrb	r3, [r4, #4]
    1220:	2b01      	cmp	r3, #1
    1222:	d138      	bne.n	1296 <swap_run+0x1f6>
    1224:	9b03      	ldr	r3, [sp, #12]
        rc = boot_erase_region(fap_pri, pri_off, sz);
    1226:	4632      	mov	r2, r6
    1228:	1ac9      	subs	r1, r1, r3
    122a:	4650      	mov	r0, sl
    122c:	9105      	str	r1, [sp, #20]
    122e:	f004 fc6f 	bl	5b10 <boot_erase_region>
        rc = boot_copy_region(state, fap_sec, fap_pri, sec_off, pri_off, sz);
    1232:	9905      	ldr	r1, [sp, #20]
    1234:	464b      	mov	r3, r9
    1236:	4652      	mov	r2, sl
    1238:	9100      	str	r1, [sp, #0]
    123a:	4628      	mov	r0, r5
    123c:	4659      	mov	r1, fp
    123e:	9601      	str	r6, [sp, #4]
    1240:	f7ff fc12 	bl	a68 <boot_copy_region>
        rc = boot_write_status(state, bs);
    1244:	4621      	mov	r1, r4
    1246:	4628      	mov	r0, r5
    1248:	f004 fc30 	bl	5aac <boot_write_status>
        bs->state = BOOT_STATUS_STATE_1;
    124c:	2302      	movs	r3, #2
    124e:	7123      	strb	r3, [r4, #4]
        BOOT_STATUS_ASSERT(rc == 0);
    1250:	b118      	cbz	r0, 125a <swap_run+0x1ba>
    1252:	4a17      	ldr	r2, [pc, #92]	; (12b0 <swap_run+0x210>)
    1254:	6813      	ldr	r3, [r2, #0]
    1256:	3301      	adds	r3, #1
    1258:	6013      	str	r3, [r2, #0]
        rc = boot_erase_region(fap_sec, sec_off, sz);
    125a:	4632      	mov	r2, r6
    125c:	4649      	mov	r1, r9
    125e:	4658      	mov	r0, fp
    1260:	f004 fc56 	bl	5b10 <boot_erase_region>
        rc = boot_copy_region(state, fap_pri, fap_sec, pri_up_off, sec_off, sz);
    1264:	e9dd 2303 	ldrd	r2, r3, [sp, #12]
    1268:	4651      	mov	r1, sl
    126a:	1a9b      	subs	r3, r3, r2
    126c:	4628      	mov	r0, r5
    126e:	465a      	mov	r2, fp
    1270:	e9cd 9600 	strd	r9, r6, [sp]
    1274:	f7ff fbf8 	bl	a68 <boot_copy_region>
        rc = boot_write_status(state, bs);
    1278:	4621      	mov	r1, r4
    127a:	4628      	mov	r0, r5
    127c:	f004 fc16 	bl	5aac <boot_write_status>
        bs->idx++;
    1280:	6823      	ldr	r3, [r4, #0]
    1282:	3301      	adds	r3, #1
    1284:	6023      	str	r3, [r4, #0]
        bs->state = BOOT_STATUS_STATE_0;
    1286:	2301      	movs	r3, #1
    1288:	7123      	strb	r3, [r4, #4]
        BOOT_STATUS_ASSERT(rc == 0);
    128a:	b130      	cbz	r0, 129a <swap_run+0x1fa>
    128c:	4a08      	ldr	r2, [pc, #32]	; (12b0 <swap_run+0x210>)
    128e:	6813      	ldr	r3, [r2, #0]
    1290:	3301      	adds	r3, #1
    1292:	6013      	str	r3, [r2, #0]
    1294:	e001      	b.n	129a <swap_run+0x1fa>
    if (bs->state == BOOT_STATUS_STATE_1) {
    1296:	2b02      	cmp	r3, #2
    1298:	d0df      	beq.n	125a <swap_run+0x1ba>
        idx++;
    129a:	f108 0801 	add.w	r8, r8, #1
    129e:	e75b      	b.n	1158 <swap_run+0xb8>
    12a0:	000073ef 	.word	0x000073ef
    12a4:	20000004 	.word	0x20000004
    12a8:	00007418 	.word	0x00007418
    12ac:	00007447 	.word	0x00007447
    12b0:	20000e34 	.word	0x20000e34

000012b4 <cc310_init>:
 */

#include "cc310_glue.h"

int cc310_init(void)
{
    12b4:	b570      	push	{r4, r5, r6, lr}
    /* Only initialize once */
    static bool initialized;

    if (!initialized) {
    12b6:	4d09      	ldr	r5, [pc, #36]	; (12dc <cc310_init+0x28>)
    12b8:	782b      	ldrb	r3, [r5, #0]
    12ba:	b10b      	cbz	r3, 12c0 <cc310_init+0xc>
        }
        initialized = true;
        nrf_cc310_disable();
    }

    return 0;
    12bc:	2000      	movs	r0, #0
}
    12be:	bd70      	pop	{r4, r5, r6, pc}
    NRF_CRYPTOCELL->ENABLE=1;
    12c0:	2601      	movs	r6, #1
    12c2:	4c07      	ldr	r4, [pc, #28]	; (12e0 <cc310_init+0x2c>)
    12c4:	f8c4 6500 	str.w	r6, [r4, #1280]	; 0x500
        if (nrf_cc310_bl_init() != 0) {
    12c8:	f003 fa36 	bl	4738 <nrf_cc310_bl_init>
    12cc:	b918      	cbnz	r0, 12d6 <cc310_init+0x22>
        initialized = true;
    12ce:	702e      	strb	r6, [r5, #0]
    NRF_CRYPTOCELL->ENABLE=0;
    12d0:	f8c4 0500 	str.w	r0, [r4, #1280]	; 0x500
}
    12d4:	e7f2      	b.n	12bc <cc310_init+0x8>
            return -1;
    12d6:	f04f 30ff 	mov.w	r0, #4294967295	; 0xffffffff
    12da:	e7f0      	b.n	12be <cc310_init+0xa>
    12dc:	20000fe4 	.word	0x20000fe4
    12e0:	50840000 	.word	0x50840000

000012e4 <cc310_ecdsa_verify_secp256r1>:

int cc310_ecdsa_verify_secp256r1(uint8_t *hash,
                                 uint8_t *public_key,
                                 uint8_t *signature,
                                 size_t hash_len)
{
    12e4:	e92d 41f0 	stmdb	sp!, {r4, r5, r6, r7, r8, lr}
    12e8:	b0ac      	sub	sp, #176	; 0xb0
    12ea:	461f      	mov	r7, r3
    12ec:	4606      	mov	r6, r0
    12ee:	460c      	mov	r4, r1
    12f0:	4615      	mov	r5, r2
        int rc;
        nrf_cc310_bl_ecdsa_verify_context_secp256r1_t ctx;
        cc310_init();
    12f2:	f7ff ffdf 	bl	12b4 <cc310_init>
    NRF_CRYPTOCELL->ENABLE=1;
    12f6:	2301      	movs	r3, #1
    12f8:	f8df 8020 	ldr.w	r8, [pc, #32]	; 131c <cc310_ecdsa_verify_secp256r1+0x38>
        nrf_cc310_enable();
        rc = nrf_cc310_bl_ecdsa_verify_secp256r1(&ctx,
    12fc:	462a      	mov	r2, r5
    12fe:	f8c8 3500 	str.w	r3, [r8, #1280]	; 0x500
    1302:	4621      	mov	r1, r4
    1304:	4633      	mov	r3, r6
    1306:	9700      	str	r7, [sp, #0]
    1308:	a803      	add	r0, sp, #12
    130a:	f005 faec 	bl	68e6 <nrf_cc310_bl_ecdsa_verify_secp256r1>
    NRF_CRYPTOCELL->ENABLE=0;
    130e:	2300      	movs	r3, #0
    1310:	f8c8 3500 	str.w	r3, [r8, #1280]	; 0x500
                                                 (nrf_cc310_bl_ecc_signature_secp256r1_t  *) signature,
                                                 hash,
                                                 hash_len);
        nrf_cc310_disable();
        return rc;
}
    1314:	b02c      	add	sp, #176	; 0xb0
    1316:	e8bd 81f0 	ldmia.w	sp!, {r4, r5, r6, r7, r8, pc}
    131a:	bf00      	nop
    131c:	50840000 	.word	0x50840000

00001320 <cleanup_arm_nvic>:
    1320:	f3bf 8f6f 	isb	sy
  __ASM volatile ("cpsid i" : : : "memory");
    1324:	b672      	cpsid	i
    1326:	2300      	movs	r3, #0
	__ISB();
	__disable_irq();

	/* Disable NVIC interrupts */
	for (uint8_t i = 0; i < ARRAY_SIZE(NVIC->ICER); i++) {
		NVIC->ICER[i] = 0xFFFFFFFF;
    1328:	f04f 30ff 	mov.w	r0, #4294967295	; 0xffffffff
    132c:	4a09      	ldr	r2, [pc, #36]	; (1354 <cleanup_arm_nvic+0x34>)
    132e:	f103 0120 	add.w	r1, r3, #32
	for (uint8_t i = 0; i < ARRAY_SIZE(NVIC->ICER); i++) {
    1332:	3301      	adds	r3, #1
    1334:	2b10      	cmp	r3, #16
		NVIC->ICER[i] = 0xFFFFFFFF;
    1336:	f842 0021 	str.w	r0, [r2, r1, lsl #2]
	for (uint8_t i = 0; i < ARRAY_SIZE(NVIC->ICER); i++) {
    133a:	d1f8      	bne.n	132e <cleanup_arm_nvic+0xe>
    133c:	2300      	movs	r3, #0
	}
	/* Clear pending NVIC interrupts */
	for (uint8_t i = 0; i < ARRAY_SIZE(NVIC->ICPR); i++) {
		NVIC->ICPR[i] = 0xFFFFFFFF;
    133e:	f04f 30ff 	mov.w	r0, #4294967295	; 0xffffffff
    1342:	4a04      	ldr	r2, [pc, #16]	; (1354 <cleanup_arm_nvic+0x34>)
    1344:	f103 0160 	add.w	r1, r3, #96	; 0x60
	for (uint8_t i = 0; i < ARRAY_SIZE(NVIC->ICPR); i++) {
    1348:	3301      	adds	r3, #1
    134a:	2b10      	cmp	r3, #16
		NVIC->ICPR[i] = 0xFFFFFFFF;
    134c:	f842 0021 	str.w	r0, [r2, r1, lsl #2]
	for (uint8_t i = 0; i < ARRAY_SIZE(NVIC->ICPR); i++) {
    1350:	d1f8      	bne.n	1344 <cleanup_arm_nvic+0x24>
	}
}
    1352:	4770      	bx	lr
    1354:	e000e100 	.word	0xe000e100

00001358 <nrf_cleanup_peripheral>:
{
    nrf_clock_int_disable(NRF_CLOCK, 0xFFFFFFFF);
}

void nrf_cleanup_peripheral(void)
{
    1358:	b538      	push	{r3, r4, r5, lr}
    return (uint32_t)p_reg + task;
}

NRF_STATIC_INLINE void nrf_rtc_task_trigger(NRF_RTC_Type * p_reg, nrf_rtc_task_t task)
{
    *(__IO uint32_t *)((uint32_t)p_reg + task) = 1;
    135a:	2201      	movs	r2, #1
    p_reg->EVTENSET = mask;
}

NRF_STATIC_INLINE void nrf_rtc_event_disable(NRF_RTC_Type * p_reg, uint32_t mask)
{
    p_reg->EVTENCLR = mask;
    135c:	f04f 34ff 	mov.w	r4, #4294967295	; 0xffffffff
    p_reg->ENABLE = UARTE_ENABLE_ENABLE_Enabled;
}

NRF_STATIC_INLINE void nrf_uarte_disable(NRF_UARTE_Type * p_reg)
{
    p_reg->ENABLE = UARTE_ENABLE_ENABLE_Disabled;
    1360:	2500      	movs	r5, #0
    *(__IO uint32_t *)((uint32_t)p_reg + task) = 1;
    1362:	4b1a      	ldr	r3, [pc, #104]	; (13cc <nrf_cleanup_peripheral+0x74>)
#if defined(NRF_UARTE0)
    nrf_uarte_disable(NRF_UARTE0);
    nrf_uarte_int_disable(NRF_UARTE0, 0xFFFFFFFF);
#if defined(NRF_DPPIC)
    /* Clear all SUBSCRIBE configurations. */
    memset((uint8_t *)NRF_UARTE0 + NRF_UARTE_SUBSCRIBE_CONF_OFFS, 0, NRF_UARTE_SUBSCRIBE_CONF_SIZE);
    1364:	4629      	mov	r1, r5
    1366:	605a      	str	r2, [r3, #4]
    p_reg->EVTENCLR = mask;
    1368:	f8c3 4348 	str.w	r4, [r3, #840]	; 0x348
    p_reg->INTENCLR = mask;
    136c:	f8c3 4308 	str.w	r4, [r3, #776]	; 0x308
    *(__IO uint32_t *)((uint32_t)p_reg + task) = 1;
    1370:	f503 5380 	add.w	r3, r3, #4096	; 0x1000
    1374:	605a      	str	r2, [r3, #4]
    p_reg->EVTENCLR = mask;
    1376:	f8c3 4348 	str.w	r4, [r3, #840]	; 0x348
    p_reg->INTENCLR = mask;
    137a:	f8c3 4308 	str.w	r4, [r3, #776]	; 0x308
    137e:	f5a3 4350 	sub.w	r3, r3, #53248	; 0xd000
    1382:	f8c3 5500 	str.w	r5, [r3, #1280]	; 0x500
    1386:	2280      	movs	r2, #128	; 0x80
    p_reg->INTENCLR = mask;
    1388:	f8c3 4308 	str.w	r4, [r3, #776]	; 0x308
    138c:	4810      	ldr	r0, [pc, #64]	; (13d0 <nrf_cleanup_peripheral+0x78>)
    138e:	f004 ff0d 	bl	61ac <memset>
    /* Clear all PUBLISH configurations. */
    memset((uint8_t *)NRF_UARTE0 + NRF_UARTE_PUBLISH_CONF_OFFS, 0, NRF_UARTE_PUBLISH_CONF_SIZE);
    1392:	2280      	movs	r2, #128	; 0x80
    1394:	4629      	mov	r1, r5
    1396:	480f      	ldr	r0, [pc, #60]	; (13d4 <nrf_cleanup_peripheral+0x7c>)
    1398:	f004 ff08 	bl	61ac <memset>
    p_reg->ENABLE = UARTE_ENABLE_ENABLE_Disabled;
    139c:	4b0e      	ldr	r3, [pc, #56]	; (13d8 <nrf_cleanup_peripheral+0x80>)
#if defined(NRF_UARTE1)
    nrf_uarte_disable(NRF_UARTE1);
    nrf_uarte_int_disable(NRF_UARTE1, 0xFFFFFFFF);
#if defined(NRF_DPPIC)
    /* Clear all SUBSCRIBE configurations. */
    memset((uint8_t *)NRF_UARTE1 + NRF_UARTE_SUBSCRIBE_CONF_OFFS, 0, NRF_UARTE_SUBSCRIBE_CONF_SIZE);
    139e:	2280      	movs	r2, #128	; 0x80
    13a0:	f8c3 5500 	str.w	r5, [r3, #1280]	; 0x500
    13a4:	4629      	mov	r1, r5
    p_reg->INTENCLR = mask;
    13a6:	f8c3 4308 	str.w	r4, [r3, #776]	; 0x308
    13aa:	480c      	ldr	r0, [pc, #48]	; (13dc <nrf_cleanup_peripheral+0x84>)
    13ac:	f004 fefe 	bl	61ac <memset>
    /* Clear all PUBLISH configurations. */
    memset((uint8_t *)NRF_UARTE1 + NRF_UARTE_PUBLISH_CONF_OFFS, 0, NRF_UARTE_PUBLISH_CONF_SIZE);
    13b0:	2280      	movs	r2, #128	; 0x80
    13b2:	4629      	mov	r1, r5
    13b4:	480a      	ldr	r0, [pc, #40]	; (13e0 <nrf_cleanup_peripheral+0x88>)
    13b6:	f004 fef9 	bl	61ac <memset>
    return ((p_reg->CHEN & (DPPIC_CHEN_CH0_Enabled << (DPPIC_CHEN_CH0_Pos + channel))) != 0);
}

NRF_STATIC_INLINE void nrf_dppi_channels_disable_all(NRF_DPPIC_Type * p_reg)
{
    p_reg->CHENCLR = 0xFFFFFFFFuL;
    13ba:	4b0a      	ldr	r3, [pc, #40]	; (13e4 <nrf_cleanup_peripheral+0x8c>)
    13bc:	f8c3 4508 	str.w	r4, [r3, #1288]	; 0x508
    p_reg->INTENSET = mask;
}

NRF_STATIC_INLINE void nrf_clock_int_disable(NRF_CLOCK_Type * p_reg, uint32_t mask)
{
    p_reg->INTENCLR = mask;
    13c0:	f04f 2350 	mov.w	r3, #1342197760	; 0x50005000
    13c4:	f8c3 4308 	str.w	r4, [r3, #776]	; 0x308
#endif
#if defined(NRF_DPPIC)
    nrf_dppi_channels_disable_all(NRF_DPPIC);
#endif
    nrf_cleanup_clock();
}
    13c8:	bd38      	pop	{r3, r4, r5, pc}
    13ca:	bf00      	nop
    13cc:	50014000 	.word	0x50014000
    13d0:	50008080 	.word	0x50008080
    13d4:	50008180 	.word	0x50008180
    13d8:	50009000 	.word	0x50009000
    13dc:	50009080 	.word	0x50009080
    13e0:	50009180 	.word	0x50009180
    13e4:	50017000 	.word	0x50017000

000013e8 <char_out>:
}

static int char_out(int c, void *ctx_p)
{
	(void) ctx_p;
	return _char_out(c);
    13e8:	4b01      	ldr	r3, [pc, #4]	; (13f0 <char_out+0x8>)
    13ea:	681b      	ldr	r3, [r3, #0]
    13ec:	4718      	bx	r3
    13ee:	bf00      	nop
    13f0:	20000008 	.word	0x20000008

000013f4 <__printk_hook_install>:
	_char_out = fn;
    13f4:	4b01      	ldr	r3, [pc, #4]	; (13fc <__printk_hook_install+0x8>)
    13f6:	6018      	str	r0, [r3, #0]
}
    13f8:	4770      	bx	lr
    13fa:	bf00      	nop
    13fc:	20000008 	.word	0x20000008

00001400 <vprintk>:
}

void vprintk(const char *fmt, va_list ap)
{
    1400:	b507      	push	{r0, r1, r2, lr}
    1402:	460b      	mov	r3, r1
int cbvprintf(cbprintf_cb out, void *ctx, const char *format, va_list ap);
#else
static inline
int cbvprintf(cbprintf_cb out, void *ctx, const char *format, va_list ap)
{
	return z_cbvprintf_impl(out, ctx, format, ap, 0);
    1404:	2100      	movs	r1, #0
    1406:	4602      	mov	r2, r0
    1408:	9100      	str	r1, [sp, #0]
    140a:	4803      	ldr	r0, [pc, #12]	; (1418 <vprintk+0x18>)
    140c:	f000 f914 	bl	1638 <z_cbvprintf_impl>

#ifdef CONFIG_PRINTK_SYNC
		k_spin_unlock(&lock, key);
#endif
	}
}
    1410:	b003      	add	sp, #12
    1412:	f85d fb04 	ldr.w	pc, [sp], #4
    1416:	bf00      	nop
    1418:	000013e9 	.word	0x000013e9

0000141c <process_event>:
 * regions.
 */
static void process_event(struct onoff_manager *mgr,
			  int evt,
			  k_spinlock_key_t key)
{
    141c:	e92d 47f0 	stmdb	sp!, {r4, r5, r6, r7, r8, r9, sl, lr}
	sys_slist_t clients;
	uint32_t state = mgr->flags & ONOFF_STATE_MASK;
    1420:	8b05      	ldrh	r5, [r0, #24]
{
    1422:	4604      	mov	r4, r0
	__ASSERT_NO_MSG(evt != EVT_NOP);

	/* If this is a nested call record the event for processing in
	 * the top invocation.
	 */
	if (processing) {
    1424:	0728      	lsls	r0, r5, #28
{
    1426:	4690      	mov	r8, r2
	if (processing) {
    1428:	d411      	bmi.n	144e <process_event+0x32>

	sys_slist_init(&clients);
	do {
		onoff_transition_fn transit = NULL;

		if (evt == EVT_RECHECK) {
    142a:	2902      	cmp	r1, #2
	uint32_t state = mgr->flags & ONOFF_STATE_MASK;
    142c:	f005 0507 	and.w	r5, r5, #7
		if (evt == EVT_RECHECK) {
    1430:	f040 80cd 	bne.w	15ce <process_event+0x1b2>
			evt = process_recheck(mgr);
    1434:	4620      	mov	r0, r4
    1436:	f004 fd2a 	bl	5e8e <process_recheck>
		}

		if (evt == EVT_NOP) {
    143a:	b178      	cbz	r0, 145c <process_event+0x40>
			break;
		}

		res = 0;
		if (evt == EVT_COMPLETE) {
    143c:	3801      	subs	r0, #1
		     | (mgr->flags & ~ONOFF_STATE_MASK);
    143e:	8b21      	ldrh	r1, [r4, #24]
    1440:	2804      	cmp	r0, #4
    1442:	d811      	bhi.n	1468 <process_event+0x4c>
    1444:	e8df f000 	tbb	[pc, r0]
    1448:	856d10c3 	.word	0x856d10c3
    144c:	95          	.byte	0x95
    144d:	00          	.byte	0x00
		if (evt == EVT_COMPLETE) {
    144e:	2901      	cmp	r1, #1
			mgr->flags |= ONOFF_FLAG_COMPLETE;
    1450:	bf0c      	ite	eq
    1452:	f045 0510 	orreq.w	r5, r5, #16
			mgr->flags |= ONOFF_FLAG_RECHECK;
    1456:	f045 0520 	orrne.w	r5, r5, #32
    145a:	8325      	strh	r5, [r4, #24]
	__asm__ volatile(
		"cpsie i;"
		"isb"
		: : : "memory");
#elif defined(CONFIG_ARMV7_M_ARMV8_M_MAINLINE)
	__asm__ volatile(
    145c:	f388 8811 	msr	BASEPRI, r8
    1460:	f3bf 8f6f 	isb	sy
		state = mgr->flags & ONOFF_STATE_MASK;
	} while (evt != EVT_NOP);

out:
	k_spin_unlock(&mgr->lock, key);
}
    1464:	e8bd 87f0 	ldmia.w	sp!, {r4, r5, r6, r7, r8, r9, sl, pc}
		bool do_monitors = (state != (mgr->flags & ONOFF_STATE_MASK))
    1468:	f001 0a07 	and.w	sl, r1, #7
				   && !sys_slist_is_empty(&mgr->monitors);
    146c:	45aa      	cmp	sl, r5
    146e:	f000 80a6 	beq.w	15be <process_event+0x1a2>
	 * a memory barrier when used like this, and we don't have a
	 * Zephyr framework for that.
	 */
	atomic_clear(&l->locked);
#endif
	arch_irq_unlock(key.key);
    1472:	2700      	movs	r7, #0
    1474:	46b9      	mov	r9, r7
    1476:	463e      	mov	r6, r7
    1478:	68a3      	ldr	r3, [r4, #8]
    147a:	2b00      	cmp	r3, #0
    147c:	f000 80bd 	beq.w	15fa <process_event+0x1de>
			uint32_t flags = mgr->flags | ONOFF_FLAG_PROCESSING;
    1480:	f041 0108 	orr.w	r1, r1, #8
			mgr->flags = flags;
    1484:	8321      	strh	r1, [r4, #24]
    1486:	f388 8811 	msr	BASEPRI, r8
    148a:	f3bf 8f6f 	isb	sy
 *
 * @return A pointer on the first node of the list (or NULL if none)
 */
static inline sys_snode_t *sys_slist_peek_head(sys_slist_t *list)
{
	return list->head;
    148e:	68a1      	ldr	r1, [r4, #8]
	SYS_SLIST_FOR_EACH_CONTAINER_SAFE(mlist, mon, tmp, node) {
    1490:	2900      	cmp	r1, #0
    1492:	f000 80bb 	beq.w	160c <process_event+0x1f0>
	return node->next;
    1496:	680d      	ldr	r5, [r1, #0]
    1498:	2900      	cmp	r1, #0
    149a:	f000 80b7 	beq.w	160c <process_event+0x1f0>
		mon->callback(mgr, mon, state, res);
    149e:	4633      	mov	r3, r6
    14a0:	4652      	mov	r2, sl
    14a2:	4620      	mov	r0, r4
    14a4:	f8d1 8004 	ldr.w	r8, [r1, #4]
    14a8:	47c0      	blx	r8
	SYS_SLIST_FOR_EACH_CONTAINER_SAFE(mlist, mon, tmp, node) {
    14aa:	2d00      	cmp	r5, #0
    14ac:	d076      	beq.n	159c <process_event+0x180>
    14ae:	682b      	ldr	r3, [r5, #0]
    14b0:	4629      	mov	r1, r5
    14b2:	461d      	mov	r5, r3
    14b4:	e7f0      	b.n	1498 <process_event+0x7c>
    14b6:	f001 0307 	and.w	r3, r1, #7
		   || (state == ONOFF_STATE_RESETTING)) {
    14ba:	1f5a      	subs	r2, r3, #5
	} else if ((state == ONOFF_STATE_TO_ON)
    14bc:	2a01      	cmp	r2, #1
    14be:	d81b      	bhi.n	14f8 <process_event+0xdc>
	list->head = NULL;
    14c0:	2200      	movs	r2, #0
		     | (mgr->flags & ~ONOFF_STATE_MASK);
    14c2:	f021 0107 	bic.w	r1, r1, #7
		if (state == ONOFF_STATE_TO_ON) {
    14c6:	2b06      	cmp	r3, #6
		*clients = mgr->clients;
    14c8:	6827      	ldr	r7, [r4, #0]
		     | (mgr->flags & ~ONOFF_STATE_MASK);
    14ca:	b289      	uxth	r1, r1
	list->tail = NULL;
    14cc:	e9c4 2200 	strd	r2, r2, [r4]
		if (state == ONOFF_STATE_TO_ON) {
    14d0:	d109      	bne.n	14e6 <process_event+0xca>
    14d2:	463b      	mov	r3, r7
    14d4:	e003      	b.n	14de <process_event+0xc2>
				mgr->refs += 1U;
    14d6:	8b62      	ldrh	r2, [r4, #26]
    14d8:	3201      	adds	r2, #1
    14da:	8362      	strh	r2, [r4, #26]
	return node->next;
    14dc:	681b      	ldr	r3, [r3, #0]
			SYS_SLIST_FOR_EACH_CONTAINER(clients, cp, node) {
    14de:	2b00      	cmp	r3, #0
    14e0:	d1f9      	bne.n	14d6 <process_event+0xba>
		     | (mgr->flags & ~ONOFF_STATE_MASK);
    14e2:	f041 0102 	orr.w	r1, r1, #2
		if (process_recheck(mgr) != EVT_NOP) {
    14e6:	4620      	mov	r0, r4
	mgr->flags = (state & ONOFF_STATE_MASK)
    14e8:	8321      	strh	r1, [r4, #24]
		if (process_recheck(mgr) != EVT_NOP) {
    14ea:	f004 fcd0 	bl	5e8e <process_recheck>
    14ee:	2800      	cmp	r0, #0
    14f0:	d07b      	beq.n	15ea <process_event+0x1ce>
			mgr->flags |= ONOFF_FLAG_RECHECK;
    14f2:	f041 0120 	orr.w	r1, r1, #32
    14f6:	e077      	b.n	15e8 <process_event+0x1cc>
	} else if (state == ONOFF_STATE_TO_OFF) {
    14f8:	2b04      	cmp	r3, #4
    14fa:	d10a      	bne.n	1512 <process_event+0xf6>
		     | (mgr->flags & ~ONOFF_STATE_MASK);
    14fc:	f021 0107 	bic.w	r1, r1, #7
    1500:	b289      	uxth	r1, r1
		if (process_recheck(mgr) != EVT_NOP) {
    1502:	4620      	mov	r0, r4
	mgr->flags = (state & ONOFF_STATE_MASK)
    1504:	8321      	strh	r1, [r4, #24]
		if (process_recheck(mgr) != EVT_NOP) {
    1506:	f004 fcc2 	bl	5e8e <process_recheck>
    150a:	b110      	cbz	r0, 1512 <process_event+0xf6>
			mgr->flags |= ONOFF_FLAG_RECHECK;
    150c:	f041 0120 	orr.w	r1, r1, #32
    1510:	8321      	strh	r1, [r4, #24]
		bool do_monitors = (state != (mgr->flags & ONOFF_STATE_MASK))
    1512:	8b21      	ldrh	r1, [r4, #24]
    1514:	f001 0a07 	and.w	sl, r1, #7
				   && !sys_slist_is_empty(&mgr->monitors);
    1518:	45aa      	cmp	sl, r5
    151a:	d050      	beq.n	15be <process_event+0x1a2>
    151c:	2700      	movs	r7, #0
		onoff_transition_fn transit = NULL;
    151e:	46b9      	mov	r9, r7
    1520:	e7aa      	b.n	1478 <process_event+0x5c>
			transit = mgr->transitions->start;
    1522:	6923      	ldr	r3, [r4, #16]
		     | (mgr->flags & ~ONOFF_STATE_MASK);
    1524:	f021 0107 	bic.w	r1, r1, #7
    1528:	f041 0106 	orr.w	r1, r1, #6
				   && !sys_slist_is_empty(&mgr->monitors);
    152c:	2d06      	cmp	r5, #6
			transit = mgr->transitions->start;
    152e:	f8d3 9000 	ldr.w	r9, [r3]
	mgr->flags = (state & ONOFF_STATE_MASK)
    1532:	8321      	strh	r1, [r4, #24]
				   && !sys_slist_is_empty(&mgr->monitors);
    1534:	d12d      	bne.n	1592 <process_event+0x176>
		    || (transit != NULL)) {
    1536:	f1b9 0f00 	cmp.w	r9, #0
    153a:	d040      	beq.n	15be <process_event+0x1a2>
			uint32_t flags = mgr->flags | ONOFF_FLAG_PROCESSING;
    153c:	f041 0108 	orr.w	r1, r1, #8
			mgr->flags = flags;
    1540:	8321      	strh	r1, [r4, #24]
    1542:	f388 8811 	msr	BASEPRI, r8
    1546:	f3bf 8f6f 	isb	sy
				transit(mgr, transition_complete);
    154a:	4620      	mov	r0, r4
    154c:	4939      	ldr	r1, [pc, #228]	; (1634 <process_event+0x218>)
    154e:	47c8      	blx	r9
    1550:	e029      	b.n	15a6 <process_event+0x18a>
		     | (mgr->flags & ~ONOFF_STATE_MASK);
    1552:	f021 0107 	bic.w	r1, r1, #7
			transit = mgr->transitions->stop;
    1556:	6923      	ldr	r3, [r4, #16]
		     | (mgr->flags & ~ONOFF_STATE_MASK);
    1558:	f041 0104 	orr.w	r1, r1, #4
    155c:	b289      	uxth	r1, r1
				   && !sys_slist_is_empty(&mgr->monitors);
    155e:	2d04      	cmp	r5, #4
			transit = mgr->transitions->stop;
    1560:	f8d3 9004 	ldr.w	r9, [r3, #4]
	mgr->flags = (state & ONOFF_STATE_MASK)
    1564:	8321      	strh	r1, [r4, #24]
				   && !sys_slist_is_empty(&mgr->monitors);
    1566:	d0e6      	beq.n	1536 <process_event+0x11a>
    1568:	2700      	movs	r7, #0
		bool do_monitors = (state != (mgr->flags & ONOFF_STATE_MASK))
    156a:	f04f 0a04 	mov.w	sl, #4
		res = 0;
    156e:	463e      	mov	r6, r7
    1570:	e782      	b.n	1478 <process_event+0x5c>
		     | (mgr->flags & ~ONOFF_STATE_MASK);
    1572:	f021 0107 	bic.w	r1, r1, #7
			transit = mgr->transitions->reset;
    1576:	6923      	ldr	r3, [r4, #16]
		     | (mgr->flags & ~ONOFF_STATE_MASK);
    1578:	f041 0105 	orr.w	r1, r1, #5
    157c:	b289      	uxth	r1, r1
				   && !sys_slist_is_empty(&mgr->monitors);
    157e:	2d05      	cmp	r5, #5
			transit = mgr->transitions->reset;
    1580:	f8d3 9008 	ldr.w	r9, [r3, #8]
	mgr->flags = (state & ONOFF_STATE_MASK)
    1584:	8321      	strh	r1, [r4, #24]
				   && !sys_slist_is_empty(&mgr->monitors);
    1586:	d0d6      	beq.n	1536 <process_event+0x11a>
    1588:	2700      	movs	r7, #0
		bool do_monitors = (state != (mgr->flags & ONOFF_STATE_MASK))
    158a:	f04f 0a05 	mov.w	sl, #5
		res = 0;
    158e:	463e      	mov	r6, r7
    1590:	e772      	b.n	1478 <process_event+0x5c>
				   && !sys_slist_is_empty(&mgr->monitors);
    1592:	2700      	movs	r7, #0
		bool do_monitors = (state != (mgr->flags & ONOFF_STATE_MASK))
    1594:	f04f 0a06 	mov.w	sl, #6
		res = 0;
    1598:	463e      	mov	r6, r7
    159a:	e76d      	b.n	1478 <process_event+0x5c>
	SYS_SLIST_FOR_EACH_CONTAINER_SAFE(mlist, mon, tmp, node) {
    159c:	462b      	mov	r3, r5
    159e:	e787      	b.n	14b0 <process_event+0x94>
			if (transit != NULL) {
    15a0:	f1b9 0f00 	cmp.w	r9, #0
    15a4:	d1d1      	bne.n	154a <process_event+0x12e>
	__asm__ volatile(
    15a6:	f04f 0320 	mov.w	r3, #32
    15aa:	f3ef 8811 	mrs	r8, BASEPRI
    15ae:	f383 8812 	msr	BASEPRI_MAX, r3
    15b2:	f3bf 8f6f 	isb	sy
			mgr->flags &= ~ONOFF_FLAG_PROCESSING;
    15b6:	8b23      	ldrh	r3, [r4, #24]
    15b8:	f023 0308 	bic.w	r3, r3, #8
    15bc:	8323      	strh	r3, [r4, #24]
		if ((mgr->flags & ONOFF_FLAG_COMPLETE) != 0) {
    15be:	8b25      	ldrh	r5, [r4, #24]
    15c0:	06ea      	lsls	r2, r5, #27
    15c2:	d52e      	bpl.n	1622 <process_event+0x206>
			mgr->flags &= ~ONOFF_FLAG_COMPLETE;
    15c4:	f025 0310 	bic.w	r3, r5, #16
    15c8:	8323      	strh	r3, [r4, #24]
		state = mgr->flags & ONOFF_STATE_MASK;
    15ca:	f005 0507 	and.w	r5, r5, #7
			res = mgr->last_res;
    15ce:	6966      	ldr	r6, [r4, #20]
	uint32_t state = mgr->flags & ONOFF_STATE_MASK;
    15d0:	8b21      	ldrh	r1, [r4, #24]
	if (res < 0) {
    15d2:	2e00      	cmp	r6, #0
    15d4:	f6bf af6f 	bge.w	14b6 <process_event+0x9a>
	list->head = NULL;
    15d8:	2300      	movs	r3, #0
		*clients = mgr->clients;
    15da:	6827      	ldr	r7, [r4, #0]
	list->tail = NULL;
    15dc:	e9c4 3300 	strd	r3, r3, [r4]
		     | (mgr->flags & ~ONOFF_STATE_MASK);
    15e0:	f021 0107 	bic.w	r1, r1, #7
    15e4:	f041 0101 	orr.w	r1, r1, #1
			mgr->flags |= ONOFF_FLAG_RECHECK;
    15e8:	8321      	strh	r1, [r4, #24]
		bool do_monitors = (state != (mgr->flags & ONOFF_STATE_MASK))
    15ea:	8b21      	ldrh	r1, [r4, #24]
    15ec:	f04f 0900 	mov.w	r9, #0
    15f0:	f001 0a07 	and.w	sl, r1, #7
				   && !sys_slist_is_empty(&mgr->monitors);
    15f4:	45aa      	cmp	sl, r5
    15f6:	f47f af3f 	bne.w	1478 <process_event+0x5c>
		    || !sys_slist_is_empty(&clients)
    15fa:	2f00      	cmp	r7, #0
    15fc:	d09b      	beq.n	1536 <process_event+0x11a>
			uint32_t flags = mgr->flags | ONOFF_FLAG_PROCESSING;
    15fe:	f041 0108 	orr.w	r1, r1, #8
			mgr->flags = flags;
    1602:	8321      	strh	r1, [r4, #24]
	__asm__ volatile(
    1604:	f388 8811 	msr	BASEPRI, r8
    1608:	f3bf 8f6f 	isb	sy
			if (!sys_slist_is_empty(&clients)) {
    160c:	2f00      	cmp	r7, #0
    160e:	d0c7      	beq.n	15a0 <process_event+0x184>
	return node->next;
    1610:	683d      	ldr	r5, [r7, #0]
		notify_one(mgr, cli, state, res);
    1612:	4639      	mov	r1, r7
    1614:	4633      	mov	r3, r6
    1616:	4652      	mov	r2, sl
    1618:	4620      	mov	r0, r4
    161a:	f004 fc64 	bl	5ee6 <notify_one>
	list->head = node;
    161e:	462f      	mov	r7, r5
	while (!sys_slist_is_empty(list)) {
    1620:	e7f4      	b.n	160c <process_event+0x1f0>
		} else if ((mgr->flags & ONOFF_FLAG_RECHECK) != 0) {
    1622:	06ab      	lsls	r3, r5, #26
    1624:	f57f af1a 	bpl.w	145c <process_event+0x40>
			mgr->flags &= ~ONOFF_FLAG_RECHECK;
    1628:	f025 0320 	bic.w	r3, r5, #32
			mgr->flags &= ~ONOFF_FLAG_COMPLETE;
    162c:	8323      	strh	r3, [r4, #24]
		state = mgr->flags & ONOFF_STATE_MASK;
    162e:	f005 0507 	and.w	r5, r5, #7
		if (evt == EVT_RECHECK) {
    1632:	e6ff      	b.n	1434 <process_event+0x18>
    1634:	00005f13 	.word	0x00005f13

00001638 <z_cbvprintf_impl>:
 *
 * @return printed byte count if CONFIG_CBPRINTF_LIBC_SUBSTS is set
 */
int z_cbvprintf_impl(cbprintf_cb out, void *ctx, const char *fmt,
		     va_list ap, uint32_t flags)
{
    1638:	e92d 4ff0 	stmdb	sp!, {r4, r5, r6, r7, r8, r9, sl, fp, lr}
    163c:	4682      	mov	sl, r0
	size_t count = 0;
    163e:	f04f 0900 	mov.w	r9, #0
{
    1642:	b08d      	sub	sp, #52	; 0x34
    1644:	461d      	mov	r5, r3

	const bool tagged_ap = (flags & Z_CBVPRINTF_PROCESS_FLAG_TAGGED_ARGS)
			       == Z_CBVPRINTF_PROCESS_FLAG_TAGGED_ARGS;

	/* we pre-increment in the loop  afterwards */
	fmt--;
    1646:	1e53      	subs	r3, r2, #1
{
    1648:	9101      	str	r1, [sp, #4]
	fmt--;
    164a:	9303      	str	r3, [sp, #12]

start:
	while (*++fmt != '%') {
    164c:	9b03      	ldr	r3, [sp, #12]
    164e:	7858      	ldrb	r0, [r3, #1]
    1650:	1c5c      	adds	r4, r3, #1
    1652:	2825      	cmp	r0, #37	; 0x25
    1654:	d119      	bne.n	168a <z_cbvprintf_impl+0x52>
	min_width = -1;
	precision = -1;
	prefix = "";
	padding_mode = 0;
	length_mod = 0;
	special = 0;
    1656:	2000      	movs	r0, #0
	precision = -1;
    1658:	f04f 38ff 	mov.w	r8, #4294967295	; 0xffffffff

	for (fmt++ ; ; fmt++) {
    165c:	461e      	mov	r6, r3
	min_width = -1;
    165e:	4644      	mov	r4, r8
	length_mod = 0;
    1660:	4603      	mov	r3, r0
	for (fmt++ ; ; fmt++) {
    1662:	3602      	adds	r6, #2
	padding_mode = 0;
    1664:	9002      	str	r0, [sp, #8]
		switch (*fmt) {
    1666:	7831      	ldrb	r1, [r6, #0]
    1668:	9603      	str	r6, [sp, #12]
    166a:	2939      	cmp	r1, #57	; 0x39
    166c:	d855      	bhi.n	171a <z_cbvprintf_impl+0xe2>
    166e:	291f      	cmp	r1, #31
    1670:	d814      	bhi.n	169c <z_cbvprintf_impl+0x64>
    1672:	2900      	cmp	r1, #0
    1674:	f000 81ee 	beq.w	1a54 <z_cbvprintf_impl+0x41c>
			precision = 0;
			break;
		}

		default:
			OUTC('%');
    1678:	9901      	ldr	r1, [sp, #4]
    167a:	2025      	movs	r0, #37	; 0x25
    167c:	47d0      	blx	sl
			OUTC(*fmt);
    167e:	9901      	ldr	r1, [sp, #4]
    1680:	7830      	ldrb	r0, [r6, #0]
    1682:	47d0      	blx	sl
    1684:	f109 0902 	add.w	r9, r9, #2
			goto start;
    1688:	e7e0      	b.n	164c <z_cbvprintf_impl+0x14>
		if (*fmt == '\0') {
    168a:	2800      	cmp	r0, #0
    168c:	f000 81e2 	beq.w	1a54 <z_cbvprintf_impl+0x41c>
		OUTC(*fmt);
    1690:	9901      	ldr	r1, [sp, #4]
    1692:	47d0      	blx	sl
    1694:	f109 0901 	add.w	r9, r9, #1
	while (*++fmt != '%') {
    1698:	9403      	str	r4, [sp, #12]
    169a:	e7d7      	b.n	164c <z_cbvprintf_impl+0x14>
		switch (*fmt) {
    169c:	f1a1 0220 	sub.w	r2, r1, #32
    16a0:	2a19      	cmp	r2, #25
    16a2:	d8e9      	bhi.n	1678 <z_cbvprintf_impl+0x40>
    16a4:	a701      	add	r7, pc, #4	; (adr r7, 16ac <z_cbvprintf_impl+0x74>)
    16a6:	f857 f022 	ldr.w	pc, [r7, r2, lsl #2]
    16aa:	bf00      	nop
    16ac:	00001715 	.word	0x00001715
    16b0:	00001679 	.word	0x00001679
    16b4:	00001679 	.word	0x00001679
    16b8:	00001715 	.word	0x00001715
    16bc:	00001679 	.word	0x00001679
    16c0:	00001795 	.word	0x00001795
    16c4:	00001679 	.word	0x00001679
    16c8:	00001679 	.word	0x00001679
    16cc:	00001679 	.word	0x00001679
    16d0:	00001679 	.word	0x00001679
    16d4:	000017e1 	.word	0x000017e1
    16d8:	00001715 	.word	0x00001715
    16dc:	00001679 	.word	0x00001679
    16e0:	000017f5 	.word	0x000017f5
    16e4:	000017a1 	.word	0x000017a1
    16e8:	00001679 	.word	0x00001679
    16ec:	000017af 	.word	0x000017af
    16f0:	000017cf 	.word	0x000017cf
    16f4:	000017cf 	.word	0x000017cf
    16f8:	000017cf 	.word	0x000017cf
    16fc:	000017cf 	.word	0x000017cf
    1700:	000017cf 	.word	0x000017cf
    1704:	000017cf 	.word	0x000017cf
    1708:	000017cf 	.word	0x000017cf
    170c:	000017cf 	.word	0x000017cf
    1710:	000017cf 	.word	0x000017cf
    1714:	4608      	mov	r0, r1
    1716:	3601      	adds	r6, #1
    1718:	e7a5      	b.n	1666 <z_cbvprintf_impl+0x2e>
    171a:	2958      	cmp	r1, #88	; 0x58
    171c:	f000 80eb 	beq.w	18f6 <z_cbvprintf_impl+0x2be>
    1720:	f1a1 0263 	sub.w	r2, r1, #99	; 0x63
    1724:	b2d7      	uxtb	r7, r2
    1726:	2f17      	cmp	r7, #23
    1728:	d8a6      	bhi.n	1678 <z_cbvprintf_impl+0x40>
    172a:	2a17      	cmp	r2, #23
    172c:	d8a4      	bhi.n	1678 <z_cbvprintf_impl+0x40>
    172e:	a701      	add	r7, pc, #4	; (adr r7, 1734 <z_cbvprintf_impl+0xfc>)
    1730:	f857 f022 	ldr.w	pc, [r7, r2, lsl #2]
    1734:	0000199d 	.word	0x0000199d
    1738:	0000181b 	.word	0x0000181b
    173c:	00001679 	.word	0x00001679
    1740:	00001679 	.word	0x00001679
    1744:	00001679 	.word	0x00001679
    1748:	000017fb 	.word	0x000017fb
    174c:	0000181b 	.word	0x0000181b
    1750:	00001679 	.word	0x00001679
    1754:	00001679 	.word	0x00001679
    1758:	000017fb 	.word	0x000017fb
    175c:	00001679 	.word	0x00001679
    1760:	00001679 	.word	0x00001679
    1764:	00001679 	.word	0x00001679
    1768:	000018d1 	.word	0x000018d1
    176c:	00001679 	.word	0x00001679
    1770:	00001679 	.word	0x00001679
    1774:	00001971 	.word	0x00001971
    1778:	00001679 	.word	0x00001679
    177c:	0000181b 	.word	0x0000181b
    1780:	00001679 	.word	0x00001679
    1784:	00001679 	.word	0x00001679
    1788:	000018d1 	.word	0x000018d1
    178c:	00001679 	.word	0x00001679
    1790:	000017fb 	.word	0x000017fb
			OUTC('%');
    1794:	2025      	movs	r0, #37	; 0x25
    1796:	9901      	ldr	r1, [sp, #4]
    1798:	47d0      	blx	sl
    179a:	f109 0901 	add.w	r9, r9, #1
			goto start;
    179e:	e755      	b.n	164c <z_cbvprintf_impl+0x14>
			padding_mode &= (char)~PAD_ZERO;
    17a0:	9a02      	ldr	r2, [sp, #8]
			precision = 0;
    17a2:	f04f 0800 	mov.w	r8, #0
			padding_mode &= (char)~PAD_ZERO;
    17a6:	f002 02fe 	and.w	r2, r2, #254	; 0xfe
    17aa:	9202      	str	r2, [sp, #8]
			continue;
    17ac:	e7b3      	b.n	1716 <z_cbvprintf_impl+0xde>
			if (min_width < 0 && precision < 0 && !padding_mode) {
    17ae:	2c00      	cmp	r4, #0
    17b0:	da0d      	bge.n	17ce <z_cbvprintf_impl+0x196>
    17b2:	f1b8 0f00 	cmp.w	r8, #0
    17b6:	da0d      	bge.n	17d4 <z_cbvprintf_impl+0x19c>
    17b8:	9a02      	ldr	r2, [sp, #8]
    17ba:	2a00      	cmp	r2, #0
    17bc:	f000 8142 	beq.w	1a44 <z_cbvprintf_impl+0x40c>
				min_width = 10 * min_width + *fmt - '0';
    17c0:	220a      	movs	r2, #10
				if (min_width < 0) {
    17c2:	ea24 74e4 	bic.w	r4, r4, r4, asr #31
				min_width = 10 * min_width + *fmt - '0';
    17c6:	fb02 1404 	mla	r4, r2, r4, r1
    17ca:	3c30      	subs	r4, #48	; 0x30
    17cc:	e7a3      	b.n	1716 <z_cbvprintf_impl+0xde>
			if (precision >= 0) {
    17ce:	f1b8 0f00 	cmp.w	r8, #0
    17d2:	dbf5      	blt.n	17c0 <z_cbvprintf_impl+0x188>
				precision = 10 * precision + *fmt - '0';
    17d4:	220a      	movs	r2, #10
    17d6:	fb02 1208 	mla	r2, r2, r8, r1
    17da:	f1a2 0830 	sub.w	r8, r2, #48	; 0x30
    17de:	e79a      	b.n	1716 <z_cbvprintf_impl+0xde>
			if (precision >= 0) {
    17e0:	f1b8 0f00 	cmp.w	r8, #0
				precision = va_arg(ap, int);
    17e4:	f855 2b04 	ldr.w	r2, [r5], #4
			if (precision >= 0) {
    17e8:	f280 812e 	bge.w	1a48 <z_cbvprintf_impl+0x410>
				if (min_width < 0) {
    17ec:	2a00      	cmp	r2, #0
    17ee:	f280 812d 	bge.w	1a4c <z_cbvprintf_impl+0x414>
					min_width = -min_width;
    17f2:	4254      	negs	r4, r2
		switch (*fmt) {
    17f4:	2202      	movs	r2, #2
				padding_mode = PAD_ZERO;
    17f6:	9202      	str	r2, [sp, #8]
    17f8:	e78d      	b.n	1716 <z_cbvprintf_impl+0xde>
			if (*fmt == 'h' && length_mod == 'h') {
    17fa:	2968      	cmp	r1, #104	; 0x68
    17fc:	d103      	bne.n	1806 <z_cbvprintf_impl+0x1ce>
    17fe:	2b68      	cmp	r3, #104	; 0x68
    1800:	d106      	bne.n	1810 <z_cbvprintf_impl+0x1d8>
				length_mod = 'H';
    1802:	2348      	movs	r3, #72	; 0x48
    1804:	e787      	b.n	1716 <z_cbvprintf_impl+0xde>
			} else if (*fmt == 'l' && length_mod == 'l') {
    1806:	296c      	cmp	r1, #108	; 0x6c
    1808:	d102      	bne.n	1810 <z_cbvprintf_impl+0x1d8>
    180a:	2b6c      	cmp	r3, #108	; 0x6c
    180c:	f000 8120 	beq.w	1a50 <z_cbvprintf_impl+0x418>
			} else if (length_mod == '\0') {
    1810:	2b00      	cmp	r3, #0
    1812:	f47f af31 	bne.w	1678 <z_cbvprintf_impl+0x40>
		switch (*fmt) {
    1816:	460b      	mov	r3, r1
    1818:	e77d      	b.n	1716 <z_cbvprintf_impl+0xde>
			if (length_mod == 'z') {
    181a:	2b7a      	cmp	r3, #122	; 0x7a
    181c:	d106      	bne.n	182c <z_cbvprintf_impl+0x1f4>
			} else if (*fmt == 'u') {
    181e:	2975      	cmp	r1, #117	; 0x75
				precision = va_arg(ap, int);
    1820:	f855 6b04 	ldr.w	r6, [r5], #4
			} else if (*fmt == 'u') {
    1824:	d114      	bne.n	1850 <z_cbvprintf_impl+0x218>
				d = va_arg(ap, unsigned int);
    1826:	f04f 0b00 	mov.w	fp, #0
			if (*fmt != 'u' && (int_value_type)d < 0) {
    182a:	e00c      	b.n	1846 <z_cbvprintf_impl+0x20e>
			} else if (length_mod == 'l') {
    182c:	2b6c      	cmp	r3, #108	; 0x6c
    182e:	d0f6      	beq.n	181e <z_cbvprintf_impl+0x1e6>
			} else if (length_mod == 'L') {
    1830:	2b4c      	cmp	r3, #76	; 0x4c
    1832:	d1f4      	bne.n	181e <z_cbvprintf_impl+0x1e6>
					unsigned long long llu =
    1834:	3507      	adds	r5, #7
    1836:	f025 0307 	bic.w	r3, r5, #7
				if (*fmt == 'u') {
    183a:	2975      	cmp	r1, #117	; 0x75
					unsigned long long llu =
    183c:	f103 0508 	add.w	r5, r3, #8
    1840:	e9d3 6b00 	ldrd	r6, fp, [r3]
				if (*fmt == 'u') {
    1844:	d106      	bne.n	1854 <z_cbvprintf_impl+0x21c>
			} else if (special == ' ') {
    1846:	2820      	cmp	r0, #32
    1848:	d13b      	bne.n	18c2 <z_cbvprintf_impl+0x28a>
				prefix = " ";
    184a:	4f84      	ldr	r7, [pc, #528]	; (1a5c <z_cbvprintf_impl+0x424>)
				min_width--;
    184c:	3c01      	subs	r4, #1
    184e:	e009      	b.n	1864 <z_cbvprintf_impl+0x22c>
				d = va_arg(ap, int);
    1850:	ea4f 7be6 	mov.w	fp, r6, asr #31
			if (*fmt != 'u' && (int_value_type)d < 0) {
    1854:	f1bb 0f00 	cmp.w	fp, #0
    1858:	daf5      	bge.n	1846 <z_cbvprintf_impl+0x20e>
				d = -d;
    185a:	4276      	negs	r6, r6
				prefix = "-";
    185c:	4f80      	ldr	r7, [pc, #512]	; (1a60 <z_cbvprintf_impl+0x428>)
				d = -d;
    185e:	eb6b 0b4b 	sbc.w	fp, fp, fp, lsl #1
				min_width--;
    1862:	3c01      	subs	r4, #1
	int i = 0;
    1864:	f10d 032d 	add.w	r3, sp, #45	; 0x2d
    1868:	9305      	str	r3, [sp, #20]
    186a:	2300      	movs	r3, #0
    186c:	9304      	str	r3, [sp, #16]
		unsigned int c = num % base;
    186e:	4630      	mov	r0, r6
    1870:	4659      	mov	r1, fp
    1872:	220a      	movs	r2, #10
    1874:	2300      	movs	r3, #0
    1876:	f7fe fc65 	bl	144 <__aeabi_uldivmod>
    187a:	9b04      	ldr	r3, [sp, #16]
    187c:	468e      	mov	lr, r1
		buftop[--i] = c + '0';
    187e:	1e59      	subs	r1, r3, #1
    1880:	9104      	str	r1, [sp, #16]
    1882:	9905      	ldr	r1, [sp, #20]
    1884:	46b4      	mov	ip, r6
    1886:	3230      	adds	r2, #48	; 0x30
    1888:	f801 2d01 	strb.w	r2, [r1, #-1]!
    188c:	465a      	mov	r2, fp
	} while (num);
    188e:	f1bc 0f0a 	cmp.w	ip, #10
    1892:	f172 0200 	sbcs.w	r2, r2, #0
		num /= base;
    1896:	4606      	mov	r6, r0
    1898:	46f3      	mov	fp, lr
		buftop[--i] = c + '0';
    189a:	9105      	str	r1, [sp, #20]
	} while (num);
    189c:	d2e7      	bcs.n	186e <z_cbvprintf_impl+0x236>
	return -i;
    189e:	f1c3 0b01 	rsb	fp, r3, #1
			data = buf + sizeof(buf) - data_len;
    18a2:	3330      	adds	r3, #48	; 0x30
			data = buf + sizeof(buf) - data_len;
    18a4:	eb0d 0603 	add.w	r6, sp, r3
		}

		if (precision < 0 && (padding_mode & PAD_ZERO)) {
    18a8:	f1b8 0f00 	cmp.w	r8, #0
			data = buf + sizeof(buf) - data_len;
    18ac:	f1a6 0604 	sub.w	r6, r6, #4
		if (precision < 0 && (padding_mode & PAD_ZERO)) {
    18b0:	da6d      	bge.n	198e <z_cbvprintf_impl+0x356>
    18b2:	9b02      	ldr	r3, [sp, #8]
    18b4:	07d9      	lsls	r1, r3, #31
    18b6:	d47c      	bmi.n	19b2 <z_cbvprintf_impl+0x37a>
			precision = min_width;
		}
		min_width -= data_len;
		precision -= data_len;
    18b8:	eba8 030b 	sub.w	r3, r8, fp
		min_width -= data_len;
    18bc:	eba4 040b 	sub.w	r4, r4, fp
    18c0:	e013      	b.n	18ea <z_cbvprintf_impl+0x2b2>
			} else if (special == '+') {
    18c2:	282b      	cmp	r0, #43	; 0x2b
				prefix = "+";
    18c4:	bf0a      	itet	eq
    18c6:	4f67      	ldreq	r7, [pc, #412]	; (1a64 <z_cbvprintf_impl+0x42c>)
	prefix = "";
    18c8:	4f67      	ldrne	r7, [pc, #412]	; (1a68 <z_cbvprintf_impl+0x430>)
				min_width--;
    18ca:	f104 34ff 	addeq.w	r4, r4, #4294967295	; 0xffffffff
    18ce:	e7c9      	b.n	1864 <z_cbvprintf_impl+0x22c>
			if (*fmt == 'p') {
    18d0:	2970      	cmp	r1, #112	; 0x70
    18d2:	d10f      	bne.n	18f4 <z_cbvprintf_impl+0x2bc>
				x = (uintptr_t)va_arg(ap, void *);
    18d4:	f855 2b04 	ldr.w	r2, [r5], #4
    18d8:	2300      	movs	r3, #0
				if (x == (uint_value_type)0) {
    18da:	b9fa      	cbnz	r2, 191c <z_cbvprintf_impl+0x2e4>
		precision -= data_len;
    18dc:	f06f 0304 	mvn.w	r3, #4
					data_len = 5;
    18e0:	f04f 0b05 	mov.w	fp, #5
					data = "(nil)";
    18e4:	4e61      	ldr	r6, [pc, #388]	; (1a6c <z_cbvprintf_impl+0x434>)
		min_width -= data_len;
    18e6:	3c05      	subs	r4, #5
	prefix = "";
    18e8:	4f5f      	ldr	r7, [pc, #380]	; (1a68 <z_cbvprintf_impl+0x430>)
		if (precision > 0) {
			min_width -= precision;
		}

		if (!(padding_mode & PAD_TAIL)) {
    18ea:	9a02      	ldr	r2, [sp, #8]
    18ec:	0792      	lsls	r2, r2, #30
    18ee:	d46f      	bmi.n	19d0 <z_cbvprintf_impl+0x398>
    18f0:	46a0      	mov	r8, r4
    18f2:	e065      	b.n	19c0 <z_cbvprintf_impl+0x388>
		switch (*fmt) {
    18f4:	2178      	movs	r1, #120	; 0x78
			} else if (length_mod == 'l') {
    18f6:	2b6c      	cmp	r3, #108	; 0x6c
    18f8:	d103      	bne.n	1902 <z_cbvprintf_impl+0x2ca>
				x = va_arg(ap, unsigned int);
    18fa:	2300      	movs	r3, #0
    18fc:	f855 2b04 	ldr.w	r2, [r5], #4
    1900:	e008      	b.n	1914 <z_cbvprintf_impl+0x2dc>
			} else if (length_mod == 'L') {
    1902:	2b4c      	cmp	r3, #76	; 0x4c
    1904:	d1f9      	bne.n	18fa <z_cbvprintf_impl+0x2c2>
				unsigned long long llx =
    1906:	3507      	adds	r5, #7
    1908:	f025 0307 	bic.w	r3, r5, #7
    190c:	461d      	mov	r5, r3
    190e:	685b      	ldr	r3, [r3, #4]
    1910:	f855 2b08 	ldr.w	r2, [r5], #8
			if (special == '#') {
    1914:	2823      	cmp	r0, #35	; 0x23
    1916:	d125      	bne.n	1964 <z_cbvprintf_impl+0x32c>
				prefix = (*fmt & 0x20) ? "0x" : "0X";
    1918:	0688      	lsls	r0, r1, #26
    191a:	d521      	bpl.n	1960 <z_cbvprintf_impl+0x328>
    191c:	4f54      	ldr	r7, [pc, #336]	; (1a70 <z_cbvprintf_impl+0x438>)
				min_width -= 2;
    191e:	3c02      	subs	r4, #2
	int i = 0;
    1920:	2600      	movs	r6, #0
			data_len = convert_value(x, 16, ALPHA(*fmt),
    1922:	f001 0160 	and.w	r1, r1, #96	; 0x60
    1926:	f1a1 0b39 	sub.w	fp, r1, #57	; 0x39
	int i = 0;
    192a:	f10d 0e2d 	add.w	lr, sp, #45	; 0x2d
		unsigned int c = num % base;
    192e:	f002 010f 	and.w	r1, r2, #15
		if (c >= 10) {
    1932:	2909      	cmp	r1, #9
			c += alpha;
    1934:	bf88      	it	hi
    1936:	4459      	addhi	r1, fp
		buftop[--i] = c + '0';
    1938:	3130      	adds	r1, #48	; 0x30
    193a:	f80e 1d01 	strb.w	r1, [lr, #-1]!
	} while (num);
    193e:	2a10      	cmp	r2, #16
		num /= base;
    1940:	ea4f 1112 	mov.w	r1, r2, lsr #4
    1944:	ea41 7103 	orr.w	r1, r1, r3, lsl #28
    1948:	ea4f 1013 	mov.w	r0, r3, lsr #4
	} while (num);
    194c:	f173 0300 	sbcs.w	r3, r3, #0
		buftop[--i] = c + '0';
    1950:	f106 3cff 	add.w	ip, r6, #4294967295	; 0xffffffff
	} while (num);
    1954:	d208      	bcs.n	1968 <z_cbvprintf_impl+0x330>
	return -i;
    1956:	f1c6 0b01 	rsb	fp, r6, #1
			data = buf + sizeof(buf) - data_len;
    195a:	f106 0330 	add.w	r3, r6, #48	; 0x30
    195e:	e7a1      	b.n	18a4 <z_cbvprintf_impl+0x26c>
				prefix = (*fmt & 0x20) ? "0x" : "0X";
    1960:	4f44      	ldr	r7, [pc, #272]	; (1a74 <z_cbvprintf_impl+0x43c>)
    1962:	e7dc      	b.n	191e <z_cbvprintf_impl+0x2e6>
	prefix = "";
    1964:	4f40      	ldr	r7, [pc, #256]	; (1a68 <z_cbvprintf_impl+0x430>)
    1966:	e7db      	b.n	1920 <z_cbvprintf_impl+0x2e8>
		buftop[--i] = c + '0';
    1968:	4666      	mov	r6, ip
		num /= base;
    196a:	460a      	mov	r2, r1
    196c:	4603      	mov	r3, r0
    196e:	e7de      	b.n	192e <z_cbvprintf_impl+0x2f6>
			data = va_arg(ap, char *);
    1970:	f855 6b04 	ldr.w	r6, [r5], #4
			data_len = strlen(data);
    1974:	4630      	mov	r0, r6
    1976:	f004 fbf7 	bl	6168 <strlen>
			if (precision >= 0 && data_len > precision) {
    197a:	f1b8 0f00 	cmp.w	r8, #0
			data_len = strlen(data);
    197e:	4683      	mov	fp, r0
			if (precision >= 0 && data_len > precision) {
    1980:	db02      	blt.n	1988 <z_cbvprintf_impl+0x350>
    1982:	4540      	cmp	r0, r8
    1984:	bfa8      	it	ge
    1986:	46c3      	movge	fp, r8
			precision = 0;
    1988:	f04f 0800 	mov.w	r8, #0
	prefix = "";
    198c:	4f36      	ldr	r7, [pc, #216]	; (1a68 <z_cbvprintf_impl+0x430>)
		precision -= data_len;
    198e:	eba8 030b 	sub.w	r3, r8, fp
		if (precision > 0) {
    1992:	2b00      	cmp	r3, #0
    1994:	dd92      	ble.n	18bc <z_cbvprintf_impl+0x284>
			min_width -= precision;
    1996:	eba4 0408 	sub.w	r4, r4, r8
    199a:	e7a6      	b.n	18ea <z_cbvprintf_impl+0x2b2>
			buf[0] = c;
    199c:	f855 3b04 	ldr.w	r3, [r5], #4
			data_len = 1;
    19a0:	f04f 0b01 	mov.w	fp, #1
			buf[0] = c;
    19a4:	f88d 3018 	strb.w	r3, [sp, #24]
		min_width -= data_len;
    19a8:	3c01      	subs	r4, #1
		precision -= data_len;
    19aa:	f04f 33ff 	mov.w	r3, #4294967295	; 0xffffffff
			data = buf;
    19ae:	ae06      	add	r6, sp, #24
    19b0:	e79a      	b.n	18e8 <z_cbvprintf_impl+0x2b0>
    19b2:	46a0      	mov	r8, r4
    19b4:	e7eb      	b.n	198e <z_cbvprintf_impl+0x356>
    19b6:	9302      	str	r3, [sp, #8]
			while (--min_width >= 0) {
				OUTC(' ');
    19b8:	2020      	movs	r0, #32
    19ba:	9901      	ldr	r1, [sp, #4]
    19bc:	47d0      	blx	sl
    19be:	9b02      	ldr	r3, [sp, #8]
			while (--min_width >= 0) {
    19c0:	f1b8 0801 	subs.w	r8, r8, #1
    19c4:	d5f7      	bpl.n	19b6 <z_cbvprintf_impl+0x37e>
    19c6:	ea24 72e4 	bic.w	r2, r4, r4, asr #31
    19ca:	3c01      	subs	r4, #1
    19cc:	4491      	add	r9, r2
    19ce:	1aa4      	subs	r4, r4, r2
    19d0:	46b8      	mov	r8, r7
    19d2:	e006      	b.n	19e2 <z_cbvprintf_impl+0x3aa>
    19d4:	9304      	str	r3, [sp, #16]
    19d6:	9202      	str	r2, [sp, #8]
			}
		}
		while (*prefix) {
			OUTC(*prefix++);
    19d8:	9901      	ldr	r1, [sp, #4]
    19da:	47d0      	blx	sl
    19dc:	9a02      	ldr	r2, [sp, #8]
    19de:	9b04      	ldr	r3, [sp, #16]
    19e0:	4690      	mov	r8, r2
		while (*prefix) {
    19e2:	4642      	mov	r2, r8
    19e4:	f812 0b01 	ldrb.w	r0, [r2], #1
    19e8:	2800      	cmp	r0, #0
    19ea:	d1f3      	bne.n	19d4 <z_cbvprintf_impl+0x39c>
    19ec:	461a      	mov	r2, r3
		}
		while (--precision >= 0) {
    19ee:	3a01      	subs	r2, #1
    19f0:	d515      	bpl.n	1a1e <z_cbvprintf_impl+0x3e6>
    19f2:	2b00      	cmp	r3, #0
    19f4:	bfac      	ite	ge
    19f6:	ebc7 0703 	rsbge	r7, r7, r3
    19fa:	427f      	neglt	r7, r7
    19fc:	465b      	mov	r3, fp
			OUTC('0');
		}
		while (--data_len >= 0) {
    19fe:	3b01      	subs	r3, #1
    1a00:	d515      	bpl.n	1a2e <z_cbvprintf_impl+0x3f6>
    1a02:	f1bb 0f00 	cmp.w	fp, #0
    1a06:	bfa8      	it	ge
    1a08:	445f      	addge	r7, fp
    1a0a:	4626      	mov	r6, r4
    1a0c:	444f      	add	r7, r9
			OUTC(*data++);
		}
		while (--min_width >= 0) {
    1a0e:	3e01      	subs	r6, #1
    1a10:	d514      	bpl.n	1a3c <z_cbvprintf_impl+0x404>
    1a12:	2c00      	cmp	r4, #0
    1a14:	bfa8      	it	ge
    1a16:	193f      	addge	r7, r7, r4
    1a18:	eb07 0908 	add.w	r9, r7, r8
    1a1c:	e616      	b.n	164c <z_cbvprintf_impl+0x14>
    1a1e:	9304      	str	r3, [sp, #16]
    1a20:	9202      	str	r2, [sp, #8]
			OUTC('0');
    1a22:	2030      	movs	r0, #48	; 0x30
    1a24:	9901      	ldr	r1, [sp, #4]
    1a26:	47d0      	blx	sl
    1a28:	9b04      	ldr	r3, [sp, #16]
    1a2a:	9a02      	ldr	r2, [sp, #8]
    1a2c:	e7df      	b.n	19ee <z_cbvprintf_impl+0x3b6>
    1a2e:	9302      	str	r3, [sp, #8]
			OUTC(*data++);
    1a30:	9901      	ldr	r1, [sp, #4]
    1a32:	f816 0b01 	ldrb.w	r0, [r6], #1
    1a36:	47d0      	blx	sl
    1a38:	9b02      	ldr	r3, [sp, #8]
    1a3a:	e7e0      	b.n	19fe <z_cbvprintf_impl+0x3c6>
			OUTC(' ');
    1a3c:	9901      	ldr	r1, [sp, #4]
    1a3e:	2020      	movs	r0, #32
    1a40:	47d0      	blx	sl
    1a42:	e7e4      	b.n	1a0e <z_cbvprintf_impl+0x3d6>
				padding_mode = PAD_ZERO;
    1a44:	2201      	movs	r2, #1
    1a46:	e6d6      	b.n	17f6 <z_cbvprintf_impl+0x1be>
				precision = va_arg(ap, int);
    1a48:	4690      	mov	r8, r2
    1a4a:	e664      	b.n	1716 <z_cbvprintf_impl+0xde>
    1a4c:	4614      	mov	r4, r2
    1a4e:	e662      	b.n	1716 <z_cbvprintf_impl+0xde>
				length_mod = 'L';
    1a50:	234c      	movs	r3, #76	; 0x4c
    1a52:	e660      	b.n	1716 <z_cbvprintf_impl+0xde>
		}

		goto start;
	}
}
    1a54:	4648      	mov	r0, r9
    1a56:	b00d      	add	sp, #52	; 0x34
    1a58:	e8bd 8ff0 	ldmia.w	sp!, {r4, r5, r6, r7, r8, r9, sl, fp, pc}
    1a5c:	000078bc 	.word	0x000078bc
    1a60:	000074e4 	.word	0x000074e4
    1a64:	000074e6 	.word	0x000074e6
    1a68:	00007c20 	.word	0x00007c20
    1a6c:	000074ee 	.word	0x000074ee
    1a70:	000074e8 	.word	0x000074e8
    1a74:	000074eb 	.word	0x000074eb

00001a78 <sys_reboot>:
#include <zephyr/sys/printk.h>

extern void sys_arch_reboot(int type);

FUNC_NORETURN void sys_reboot(int type)
{
    1a78:	b508      	push	{r3, lr}
	__asm__ volatile(
    1a7a:	f04f 0220 	mov.w	r2, #32
    1a7e:	f3ef 8311 	mrs	r3, BASEPRI
    1a82:	f382 8812 	msr	BASEPRI_MAX, r2
    1a86:	f3bf 8f6f 	isb	sy
	(void)irq_lock();
	sys_clock_disable();

	sys_arch_reboot(type);
    1a8a:	f000 fbb1 	bl	21f0 <sys_arch_reboot>

	/* should never get here */
	printk("Failed to reboot: spinning endlessly...\n");
    1a8e:	4803      	ldr	r0, [pc, #12]	; (1a9c <sys_reboot+0x24>)
    1a90:	f004 f9f0 	bl	5e74 <printk>
 * @note In some architectures, before returning, the function unmasks interrupts
 * unconditionally.
 */
static inline void k_cpu_idle(void)
{
	arch_cpu_idle();
    1a94:	f000 f888 	bl	1ba8 <arch_cpu_idle>
    1a98:	e7fc      	b.n	1a94 <sys_reboot+0x1c>
    1a9a:	bf00      	nop
    1a9c:	000074f4 	.word	0x000074f4

00001aa0 <nordicsemi_nrf91_init>:
    1aa0:	f04f 0220 	mov.w	r2, #32
    1aa4:	f3ef 8311 	mrs	r3, BASEPRI
    1aa8:	f382 8812 	msr	BASEPRI_MAX, r2
    1aac:	f3bf 8f6f 	isb	sy

	key = irq_lock();

#ifdef CONFIG_NRF_ENABLE_ICACHE
	/* Enable the instruction cache */
	NRF_NVMC->ICACHECNF = NVMC_ICACHECNF_CACHEEN_Msk;
    1ab0:	2101      	movs	r1, #1
    1ab2:	4a04      	ldr	r2, [pc, #16]	; (1ac4 <nordicsemi_nrf91_init+0x24>)
    1ab4:	f8c2 1540 	str.w	r1, [r2, #1344]	; 0x540
	__asm__ volatile(
    1ab8:	f383 8811 	msr	BASEPRI, r3
    1abc:	f3bf 8f6f 	isb	sy
	NMI_INIT();

	irq_unlock(key);

	return 0;
}
    1ac0:	2000      	movs	r0, #0
    1ac2:	4770      	bx	lr
    1ac4:	50039000 	.word	0x50039000

00001ac8 <arch_busy_wait>:

#else // NRFX_CHECK(NRFX_DELAY_DWT_BASED)

NRF_STATIC_INLINE void nrfx_coredep_delay_us(uint32_t time_us)
{
    if (time_us == 0)
    1ac8:	b120      	cbz	r0, 1ad4 <arch_busy_wait+0xc>
    typedef void (* delay_func_t)(uint32_t);
    const delay_func_t delay_cycles =
        // Set LSB to 1 to execute the code in the Thumb mode.
        (delay_func_t)((((uint32_t)delay_machine_code) | 1));
    uint32_t cycles = time_us * NRFX_DELAY_CPU_FREQ_MHZ;
    delay_cycles(cycles);
    1aca:	4b03      	ldr	r3, [pc, #12]	; (1ad8 <arch_busy_wait+0x10>)
    1acc:	0180      	lsls	r0, r0, #6
    1ace:	f043 0301 	orr.w	r3, r3, #1
    1ad2:	4718      	bx	r3

void arch_busy_wait(uint32_t time_us)
{
	nrfx_coredep_delay_us(time_us);
}
    1ad4:	4770      	bx	lr
    1ad6:	bf00      	nop
    1ad8:	00006cb0 	.word	0x00006cb0

00001adc <z_arm_platform_init>:
	 */
#if defined(CONFIG_ARMV6_M_ARMV8_M_BASELINE)
	ldr r0, =SystemInit
	bx r0
#elif defined(CONFIG_ARMV7_M_ARMV8_M_MAINLINE)
	b SystemInit
    1adc:	f001 bc3a 	b.w	3354 <SystemInit>

00001ae0 <flash_area_open>:
		user_cb(&flash_map[i], user_data);
	}
}

int flash_area_open(uint8_t id, const struct flash_area **fap)
{
    1ae0:	b570      	push	{r4, r5, r6, lr}
	const struct flash_area *area;

	if (flash_map == NULL) {
    1ae2:	4b11      	ldr	r3, [pc, #68]	; (1b28 <flash_area_open+0x48>)
{
    1ae4:	460d      	mov	r5, r1
	if (flash_map == NULL) {
    1ae6:	681c      	ldr	r4, [r3, #0]
    1ae8:	b1dc      	cbz	r4, 1b22 <flash_area_open+0x42>
extern const struct flash_area *flash_map;
extern const int flash_map_entries;

static inline struct flash_area const *get_flash_area_from_id(int idx)
{
	for (int i = 0; i < flash_map_entries; i++) {
    1aea:	4b10      	ldr	r3, [pc, #64]	; (1b2c <flash_area_open+0x4c>)
    1aec:	6819      	ldr	r1, [r3, #0]
    1aee:	2300      	movs	r3, #0
    1af0:	428b      	cmp	r3, r1
    1af2:	db02      	blt.n	1afa <flash_area_open+0x1a>
		return -EACCES;
	}

	area = get_flash_area_from_id(id);
	if (area == NULL) {
		return -ENOENT;
    1af4:	f06f 0001 	mvn.w	r0, #1
	}

	*fap = area;

	return 0;
}
    1af8:	bd70      	pop	{r4, r5, r6, pc}
		if (flash_map[i].fa_id == idx) {
    1afa:	4622      	mov	r2, r4
    1afc:	f812 6b10 	ldrb.w	r6, [r2], #16
    1b00:	4286      	cmp	r6, r0
    1b02:	d002      	beq.n	1b0a <flash_area_open+0x2a>
	for (int i = 0; i < flash_map_entries; i++) {
    1b04:	4614      	mov	r4, r2
    1b06:	3301      	adds	r3, #1
    1b08:	e7f2      	b.n	1af0 <flash_area_open+0x10>
	if (!area->fa_dev || !device_is_ready(area->fa_dev)) {
    1b0a:	68e0      	ldr	r0, [r4, #12]
    1b0c:	b910      	cbnz	r0, 1b14 <flash_area_open+0x34>
		return -ENODEV;
    1b0e:	f06f 0012 	mvn.w	r0, #18
    1b12:	e7f1      	b.n	1af8 <flash_area_open+0x18>
 */
__syscall bool device_is_ready(const struct device *dev);

static inline bool z_impl_device_is_ready(const struct device *dev)
{
	return z_device_is_ready(dev);
    1b14:	f004 fecd 	bl	68b2 <z_device_is_ready>
	if (!area->fa_dev || !device_is_ready(area->fa_dev)) {
    1b18:	2800      	cmp	r0, #0
    1b1a:	d0f8      	beq.n	1b0e <flash_area_open+0x2e>
	return 0;
    1b1c:	2000      	movs	r0, #0
	*fap = area;
    1b1e:	602c      	str	r4, [r5, #0]
	return 0;
    1b20:	e7ea      	b.n	1af8 <flash_area_open+0x18>
		return -EACCES;
    1b22:	f06f 000c 	mvn.w	r0, #12
    1b26:	e7e7      	b.n	1af8 <flash_area_open+0x18>
    1b28:	2000000c 	.word	0x2000000c
    1b2c:	00006cc8 	.word	0x00006cc8

00001b30 <flash_area_get_sectors>:

	return true;
}

int flash_area_get_sectors(int idx, uint32_t *cnt, struct flash_sector *ret)
{
    1b30:	b570      	push	{r4, r5, r6, lr}
    1b32:	b088      	sub	sp, #32
    1b34:	4605      	mov	r5, r0
    1b36:	460c      	mov	r4, r1
	int rc = flash_area_open(idx, &fa);
    1b38:	b2c0      	uxtb	r0, r0
    1b3a:	4669      	mov	r1, sp
{
    1b3c:	4616      	mov	r6, r2
	int rc = flash_area_open(idx, &fa);
    1b3e:	f7ff ffcf 	bl	1ae0 <flash_area_open>
	if (rc < 0 || fa == NULL) {
    1b42:	2800      	cmp	r0, #0
    1b44:	db1b      	blt.n	1b7e <flash_area_get_sectors+0x4e>
    1b46:	9800      	ldr	r0, [sp, #0]
    1b48:	b1c8      	cbz	r0, 1b7e <flash_area_get_sectors+0x4e>
	cb_data->area_off = fa->fa_off;
    1b4a:	6843      	ldr	r3, [r0, #4]
	cb_data->ret_len = *cnt;
    1b4c:	6822      	ldr	r2, [r4, #0]
	cb_data->area_off = fa->fa_off;
    1b4e:	9302      	str	r3, [sp, #8]
	cb_data->area_len = fa->fa_size;
    1b50:	6883      	ldr	r3, [r0, #8]
	cb_data->area_idx = idx;
    1b52:	9501      	str	r5, [sp, #4]
	cb_data->ret = ret;
    1b54:	e9cd 3603 	strd	r3, r6, [sp, #12]
	cb_data->ret_idx = 0U;
    1b58:	2300      	movs	r3, #0
	cb_data->status = 0;
    1b5a:	e9cd 2306 	strd	r2, r3, [sp, #24]
	cb_data->ret_idx = 0U;
    1b5e:	9305      	str	r3, [sp, #20]
	flash_dev = fa->fa_dev;
    1b60:	68c5      	ldr	r5, [r0, #12]
	flash_area_close(fa);
    1b62:	f004 fa7c 	bl	605e <flash_area_close>
	if (flash_dev == NULL) {
    1b66:	b16d      	cbz	r5, 1b84 <flash_area_get_sectors+0x54>
	flash_page_foreach(flash_dev, cb, cb_data);
    1b68:	4628      	mov	r0, r5
    1b6a:	4908      	ldr	r1, [pc, #32]	; (1b8c <flash_area_get_sectors+0x5c>)
    1b6c:	aa01      	add	r2, sp, #4
    1b6e:	f004 fc4e 	bl	640e <flash_page_foreach>
	if (cb_data->status == 0) {
    1b72:	9807      	ldr	r0, [sp, #28]
    1b74:	b908      	cbnz	r0, 1b7a <flash_area_get_sectors+0x4a>
		*cnt = cb_data->ret_idx;
    1b76:	9b05      	ldr	r3, [sp, #20]
    1b78:	6023      	str	r3, [r4, #0]
	struct layout_data data;

	return flash_area_layout(idx, cnt, ret, get_sectors_cb, &data);
}
    1b7a:	b008      	add	sp, #32
    1b7c:	bd70      	pop	{r4, r5, r6, pc}
		return -EINVAL;
    1b7e:	f06f 0015 	mvn.w	r0, #21
    1b82:	e7fa      	b.n	1b7a <flash_area_get_sectors+0x4a>
		return -ENODEV;
    1b84:	f06f 0012 	mvn.w	r0, #18
	return flash_area_layout(idx, cnt, ret, get_sectors_cb, &data);
    1b88:	e7f7      	b.n	1b7a <flash_area_get_sectors+0x4a>
    1b8a:	bf00      	nop
    1b8c:	000060fd 	.word	0x000060fd

00001b90 <nrf_cc3xx_platform_abort_init>:

/** @brief Function to initialize the nrf_cc3xx_platform abort APIs.
 */
void nrf_cc3xx_platform_abort_init(void)
{
	nrf_cc3xx_platform_set_abort(&apis);
    1b90:	4801      	ldr	r0, [pc, #4]	; (1b98 <nrf_cc3xx_platform_abort_init+0x8>)
    1b92:	f002 ba77 	b.w	4084 <nrf_cc3xx_platform_set_abort>
    1b96:	bf00      	nop
    1b98:	00006d6c 	.word	0x00006d6c

00001b9c <z_arm_cpu_idle_init>:
 * void z_arm_cpu_idle_init(void);
 */

SECTION_FUNC(TEXT, z_arm_cpu_idle_init)
#if defined(CONFIG_CPU_CORTEX_M)
	ldr	r1, =_SCB_SCR
    1b9c:	4901      	ldr	r1, [pc, #4]	; (1ba4 <z_arm_cpu_idle_init+0x8>)
	movs.n	r2, #_SCR_INIT_BITS
    1b9e:	2210      	movs	r2, #16
	str	r2, [r1]
    1ba0:	600a      	str	r2, [r1, #0]
#endif
	bx	lr
    1ba2:	4770      	bx	lr
	ldr	r1, =_SCB_SCR
    1ba4:	e000ed10 	.word	0xe000ed10

00001ba8 <arch_cpu_idle>:
	 * before entering low power state.
	 *
	 * Set PRIMASK before configuring BASEPRI to prevent interruption
	 * before wake-up.
	 */
	cpsid	i
    1ba8:	b672      	cpsid	i

	/*
	 * Set wake-up interrupt priority to the lowest and synchronise to
	 * ensure that this is visible to the WFI instruction.
	 */
	eors.n	r0, r0
    1baa:	4040      	eors	r0, r0
	msr	BASEPRI, r0
    1bac:	f380 8811 	msr	BASEPRI, r0
	isb
    1bb0:	f3bf 8f6f 	isb	sy
	 * (i.e. if the caller sets _kernel.idle).
	 */
#endif /* CONFIG_ARMV7_M_ARMV8_M_MAINLINE */

	/* Enter low power state */
	_sleep_if_allowed wfi
    1bb4:	f3bf 8f4f 	dsb	sy
    1bb8:	bf30      	wfi

	/*
	 * Clear PRIMASK and flush instruction buffer to immediately service
	 * the wake-up interrupt.
	 */
	cpsie	i
    1bba:	b662      	cpsie	i
	isb
    1bbc:	f3bf 8f6f 	isb	sy

	bx	lr
    1bc0:	4770      	bx	lr
    1bc2:	bf00      	nop

00001bc4 <arch_cpu_atomic_idle>:

	/*
	 * Lock PRIMASK while sleeping: wfe will still get interrupted by
	 * incoming interrupts but the CPU will not service them right away.
	 */
	cpsid	i
    1bc4:	b672      	cpsid	i
	cpsie	i
_irq_disabled:

#elif defined(CONFIG_ARMV7_M_ARMV8_M_MAINLINE)
	/* r1: zero, for setting BASEPRI (needs a register) */
	eors.n	r1, r1
    1bc6:	4049      	eors	r1, r1

	/* unlock BASEPRI so wfe gets interrupted by incoming interrupts */
	msr	BASEPRI, r1
    1bc8:	f381 8811 	msr	BASEPRI, r1

	_sleep_if_allowed wfe
    1bcc:	f3bf 8f4f 	dsb	sy
    1bd0:	bf20      	wfe

	msr	BASEPRI, r0
    1bd2:	f380 8811 	msr	BASEPRI, r0
	cpsie	i
    1bd6:	b662      	cpsie	i
#else
#error Unknown ARM architecture
#endif /* CONFIG_ARMV6_M_ARMV8_M_BASELINE */
	bx	lr
    1bd8:	4770      	bx	lr
    1bda:	bf00      	nop

00001bdc <z_arm_fatal_error>:
	LOG_ERR("Faulting instruction address (r15/pc): 0x%08x",
		esf->basic.pc);
}

void z_arm_fatal_error(unsigned int reason, const z_arch_esf_t *esf)
{
    1bdc:	b537      	push	{r0, r1, r2, r4, r5, lr}
    1bde:	4605      	mov	r5, r0

	if (esf != NULL) {
    1be0:	460c      	mov	r4, r1
    1be2:	b1c9      	cbz	r1, 1c18 <z_arm_fatal_error+0x3c>
	LOG_ERR("r0/a1:  0x%08x  r1/a2:  0x%08x  r2/a3:  0x%08x",
    1be4:	688b      	ldr	r3, [r1, #8]
    1be6:	4810      	ldr	r0, [pc, #64]	; (1c28 <z_arm_fatal_error+0x4c>)
    1be8:	9300      	str	r3, [sp, #0]
    1bea:	e9d1 2300 	ldrd	r2, r3, [r1]
    1bee:	2145      	movs	r1, #69	; 0x45
    1bf0:	f004 fa28 	bl	6044 <z_log_minimal_printk>
	LOG_ERR("r3/a4:  0x%08x r12/ip:  0x%08x r14/lr:  0x%08x",
    1bf4:	6963      	ldr	r3, [r4, #20]
    1bf6:	2145      	movs	r1, #69	; 0x45
    1bf8:	9300      	str	r3, [sp, #0]
    1bfa:	e9d4 2303 	ldrd	r2, r3, [r4, #12]
    1bfe:	480b      	ldr	r0, [pc, #44]	; (1c2c <z_arm_fatal_error+0x50>)
    1c00:	f004 fa20 	bl	6044 <z_log_minimal_printk>
	LOG_ERR(" xpsr:  0x%08x", esf->basic.xpsr);
    1c04:	2145      	movs	r1, #69	; 0x45
    1c06:	69e2      	ldr	r2, [r4, #28]
    1c08:	4809      	ldr	r0, [pc, #36]	; (1c30 <z_arm_fatal_error+0x54>)
    1c0a:	f004 fa1b 	bl	6044 <z_log_minimal_printk>
	LOG_ERR("Faulting instruction address (r15/pc): 0x%08x",
    1c0e:	2145      	movs	r1, #69	; 0x45
    1c10:	69a2      	ldr	r2, [r4, #24]
    1c12:	4808      	ldr	r0, [pc, #32]	; (1c34 <z_arm_fatal_error+0x58>)
    1c14:	f004 fa16 	bl	6044 <z_log_minimal_printk>
		esf_dump(esf);
	}
	z_fatal_error(reason, esf);
    1c18:	4621      	mov	r1, r4
    1c1a:	4628      	mov	r0, r5
}
    1c1c:	b003      	add	sp, #12
    1c1e:	e8bd 4030 	ldmia.w	sp!, {r4, r5, lr}
	z_fatal_error(reason, esf);
    1c22:	f002 b869 	b.w	3cf8 <z_fatal_error>
    1c26:	bf00      	nop
    1c28:	00007521 	.word	0x00007521
    1c2c:	00007555 	.word	0x00007555
    1c30:	00007589 	.word	0x00007589
    1c34:	0000759d 	.word	0x0000759d

00001c38 <arch_irq_enable>:
#define REG_FROM_IRQ(irq) (irq / NUM_IRQS_PER_REG)
#define BIT_FROM_IRQ(irq) (irq % NUM_IRQS_PER_REG)

void arch_irq_enable(unsigned int irq)
{
	NVIC_EnableIRQ((IRQn_Type)irq);
    1c38:	b240      	sxtb	r0, r0
  \param [in]      IRQn  Device specific interrupt number.
  \note    IRQn must not be negative.
 */
__STATIC_INLINE void __NVIC_EnableIRQ(IRQn_Type IRQn)
{
  if ((int32_t)(IRQn) >= 0)
    1c3a:	2800      	cmp	r0, #0
    1c3c:	db07      	blt.n	1c4e <arch_irq_enable+0x16>
  {
    __COMPILER_BARRIER();
    NVIC->ISER[(((uint32_t)IRQn) >> 5UL)] = (uint32_t)(1UL << (((uint32_t)IRQn) & 0x1FUL));
    1c3e:	2301      	movs	r3, #1
    1c40:	0941      	lsrs	r1, r0, #5
    1c42:	4a03      	ldr	r2, [pc, #12]	; (1c50 <arch_irq_enable+0x18>)
    1c44:	f000 001f 	and.w	r0, r0, #31
    1c48:	4083      	lsls	r3, r0
    1c4a:	f842 3021 	str.w	r3, [r2, r1, lsl #2]
}
    1c4e:	4770      	bx	lr
    1c50:	e000e100 	.word	0xe000e100

00001c54 <arch_irq_is_enabled>:
	NVIC_DisableIRQ((IRQn_Type)irq);
}

int arch_irq_is_enabled(unsigned int irq)
{
	return NVIC->ISER[REG_FROM_IRQ(irq)] & BIT(BIT_FROM_IRQ(irq));
    1c54:	4b05      	ldr	r3, [pc, #20]	; (1c6c <arch_irq_is_enabled+0x18>)
    1c56:	0942      	lsrs	r2, r0, #5
    1c58:	f853 2022 	ldr.w	r2, [r3, r2, lsl #2]
    1c5c:	2301      	movs	r3, #1
    1c5e:	f000 001f 	and.w	r0, r0, #31
    1c62:	fa03 f000 	lsl.w	r0, r3, r0
}
    1c66:	4010      	ands	r0, r2
    1c68:	4770      	bx	lr
    1c6a:	bf00      	nop
    1c6c:	e000e100 	.word	0xe000e100

00001c70 <z_arm_irq_priority_set>:
	 */
	__ASSERT(prio <= (BIT(NUM_IRQ_PRIO_BITS) - 1),
		 "invalid priority %d for %d irq! values must be less than %lu\n",
		 prio - _IRQ_PRIO_OFFSET, irq,
		 BIT(NUM_IRQ_PRIO_BITS) - (_IRQ_PRIO_OFFSET));
	NVIC_SetPriority((IRQn_Type)irq, prio);
    1c70:	b240      	sxtb	r0, r0
  \param [in]  priority  Priority to set.
  \note    The priority cannot be set for every processor exception.
 */
__STATIC_INLINE void __NVIC_SetPriority(IRQn_Type IRQn, uint32_t priority)
{
  if ((int32_t)(IRQn) >= 0)
    1c72:	2800      	cmp	r0, #0
		prio += _IRQ_PRIO_OFFSET;
    1c74:	f101 0101 	add.w	r1, r1, #1
  {
    NVIC->IPR[((uint32_t)IRQn)]               = (uint8_t)((priority << (8U - __NVIC_PRIO_BITS)) & (uint32_t)0xFFUL);
    1c78:	bfac      	ite	ge
    1c7a:	f100 4060 	addge.w	r0, r0, #3758096384	; 0xe0000000
  }
  else
  {
    SCB->SHPR[(((uint32_t)IRQn) & 0xFUL)-4UL] = (uint8_t)((priority << (8U - __NVIC_PRIO_BITS)) & (uint32_t)0xFFUL);
    1c7e:	4b06      	ldrlt	r3, [pc, #24]	; (1c98 <z_arm_irq_priority_set+0x28>)
    NVIC->IPR[((uint32_t)IRQn)]               = (uint8_t)((priority << (8U - __NVIC_PRIO_BITS)) & (uint32_t)0xFFUL);
    1c80:	ea4f 1141 	mov.w	r1, r1, lsl #5
    1c84:	b2c9      	uxtb	r1, r1
    1c86:	bfab      	itete	ge
    1c88:	f500 4061 	addge.w	r0, r0, #57600	; 0xe100
    SCB->SHPR[(((uint32_t)IRQn) & 0xFUL)-4UL] = (uint8_t)((priority << (8U - __NVIC_PRIO_BITS)) & (uint32_t)0xFFUL);
    1c8c:	f000 000f 	andlt.w	r0, r0, #15
    NVIC->IPR[((uint32_t)IRQn)]               = (uint8_t)((priority << (8U - __NVIC_PRIO_BITS)) & (uint32_t)0xFFUL);
    1c90:	f880 1300 	strbge.w	r1, [r0, #768]	; 0x300
    SCB->SHPR[(((uint32_t)IRQn) & 0xFUL)-4UL] = (uint8_t)((priority << (8U - __NVIC_PRIO_BITS)) & (uint32_t)0xFFUL);
    1c94:	5419      	strblt	r1, [r3, r0]
}
    1c96:	4770      	bx	lr
    1c98:	e000ed14 	.word	0xe000ed14

00001c9c <z_SysNmiOnReset>:
_ASM_FILE_PROLOGUE

GTEXT(z_SysNmiOnReset)

SECTION_FUNC(TEXT, z_SysNmiOnReset)
    wfi
    1c9c:	bf30      	wfi
    b z_SysNmiOnReset
    1c9e:	f7ff bffd 	b.w	1c9c <z_SysNmiOnReset>
    1ca2:	bf00      	nop

00001ca4 <z_arm_prep_c>:

#define VECTOR_ADDRESS ((uintptr_t)_vector_start)

static inline void relocate_vector_table(void)
{
	SCB->VTOR = VECTOR_ADDRESS & SCB_VTOR_TBLOFF_Msk;
    1ca4:	4a14      	ldr	r2, [pc, #80]	; (1cf8 <z_arm_prep_c+0x54>)
 *
 * This routine prepares for the execution of and runs C code.
 *
 */
void z_arm_prep_c(void)
{
    1ca6:	b508      	push	{r3, lr}
	SCB->VTOR = VECTOR_ADDRESS & SCB_VTOR_TBLOFF_Msk;
    1ca8:	4b14      	ldr	r3, [pc, #80]	; (1cfc <z_arm_prep_c+0x58>)
    1caa:	f022 027f 	bic.w	r2, r2, #127	; 0x7f
    1cae:	609a      	str	r2, [r3, #8]
  __ASM volatile ("dsb 0xF":::"memory");
    1cb0:	f3bf 8f4f 	dsb	sy
  __ASM volatile ("isb 0xF":::"memory");
    1cb4:	f3bf 8f6f 	isb	sy
	SCB->CPACR &= (~(CPACR_CP10_Msk | CPACR_CP11_Msk));
    1cb8:	f8d3 2088 	ldr.w	r2, [r3, #136]	; 0x88
    1cbc:	f422 0270 	bic.w	r2, r2, #15728640	; 0xf00000
    1cc0:	f8c3 2088 	str.w	r2, [r3, #136]	; 0x88
	SCB->CPACR |= CPACR_CP10_PRIV_ACCESS | CPACR_CP11_PRIV_ACCESS;
    1cc4:	f8d3 2088 	ldr.w	r2, [r3, #136]	; 0x88
    1cc8:	f442 02a0 	orr.w	r2, r2, #5242880	; 0x500000
    1ccc:	f8c3 2088 	str.w	r2, [r3, #136]	; 0x88
	FPU->FPCCR = FPU_FPCCR_ASPEN_Msk | FPU_FPCCR_LSPEN_Msk;
    1cd0:	f04f 4240 	mov.w	r2, #3221225472	; 0xc0000000
    1cd4:	f8c3 2234 	str.w	r2, [r3, #564]	; 0x234
  __ASM volatile ("dsb 0xF":::"memory");
    1cd8:	f3bf 8f4f 	dsb	sy
  __ASM volatile ("isb 0xF":::"memory");
    1cdc:	f3bf 8f6f 	isb	sy
     (defined (__FPU_USED   ) && (__FPU_USED    == 1U))     )
#if __has_builtin(__builtin_arm_set_fpscr)
// Re-enable using built-in when GCC has been fixed
// || (__GNUC__ > 7) || (__GNUC__ == 7 && __GNUC_MINOR__ >= 2)
  /* see https://gcc.gnu.org/ml/gcc-patches/2017-04/msg00443.html */
  __builtin_arm_set_fpscr(fpscr);
    1ce0:	2300      	movs	r3, #0
    1ce2:	eee1 3a10 	vmsr	fpscr, r3
	relocate_vector_table();
#if defined(CONFIG_CPU_HAS_FPU)
	z_arm_floating_point_init();
#endif
	z_bss_zero();
    1ce6:	f002 f87f 	bl	3de8 <z_bss_zero>
	z_data_copy();
    1cea:	f002 f8c1 	bl	3e70 <z_data_copy>
#if ((defined(CONFIG_ARMV7_R) || defined(CONFIG_ARMV7_A)) && defined(CONFIG_INIT_STACKS))
	z_arm_init_stacks();
#endif
	z_arm_interrupt_init();
    1cee:	f000 fa43 	bl	2178 <z_arm_interrupt_init>
	z_cstart();
    1cf2:	f002 f885 	bl	3e00 <z_cstart>
    1cf6:	bf00      	nop
    1cf8:	00000000 	.word	0x00000000
    1cfc:	e000ed00 	.word	0xe000ed00

00001d00 <z_arm_svc>:
  bne _stack_frame_endif
_stack_frame_msp:
  mrs r0, MSP
_stack_frame_endif:
#elif defined(CONFIG_ARMV7_M_ARMV8_M_MAINLINE)
    tst lr, #_EXC_RETURN_SPSEL_Msk /* did we come from thread mode ? */
    1d00:	f01e 0f04 	tst.w	lr, #4
    ite eq  /* if zero (equal), came from handler mode */
    1d04:	bf0c      	ite	eq
        mrseq r0, MSP   /* handler mode, stack frame is on MSP */
    1d06:	f3ef 8008 	mrseq	r0, MSP
        mrsne r0, PSP   /* thread mode, stack frame is on PSP */
    1d0a:	f3ef 8009 	mrsne	r0, PSP
#endif


    /* Figure out what SVC call number was invoked */

    ldr r1, [r0, #24]   /* grab address of PC from stack frame */
    1d0e:	6981      	ldr	r1, [r0, #24]
     */
#if defined(CONFIG_ARMV6_M_ARMV8_M_BASELINE)
    subs r1, r1, #2
    ldrb r1, [r1]
#elif defined(CONFIG_ARMV7_M_ARMV8_M_MAINLINE)
    ldrb r1, [r1, #-2]
    1d10:	f811 1c02 	ldrb.w	r1, [r1, #-2]
#endif
    bne _oops

#endif /* CONFIG_USERSPACE */

    cmp r1, #2
    1d14:	2902      	cmp	r1, #2
    beq _oops
    1d16:	d0ff      	beq.n	1d18 <_oops>

00001d18 <_oops>:
    /* exception return is done in z_arm_int_exit() */
    b z_arm_int_exit
#endif

_oops:
    push {r0, lr}
    1d18:	b501      	push	{r0, lr}
    push {r1, r2}
    push {r4-r11}
    mov  r1, sp /* pointer to _callee_saved_t */
#endif /* CONFIG_ARMV7_M_ARMV8_M_MAINLINE */
#endif /* CONFIG_EXTRA_EXCEPTION_INFO */
    bl z_do_kernel_oops
    1d1a:	f004 fa16 	bl	614a <z_do_kernel_oops>
     * the MSP to its value prior to entering the function
     */
    add sp, #40
#endif /* CONFIG_ARMV7_M_ARMV8_M_MAINLINE */
#endif /* CONFIG_EXTRA_EXCEPTION_INFO */
    pop {r0, pc}
    1d1e:	bd01      	pop	{r0, pc}

00001d20 <z_arm_switch_to_main_no_multithreading>:

#if !defined(CONFIG_MULTITHREADING) && defined(CONFIG_CPU_CORTEX_M)

FUNC_NORETURN void z_arm_switch_to_main_no_multithreading(
	k_thread_entry_t main_entry, void *p1, void *p2, void *p3)
{
    1d20:	4604      	mov	r4, r0
    1d22:	4608      	mov	r0, r1
    1d24:	4611      	mov	r1, r2
    1d26:	461a      	mov	r2, r3
    1d28:	2300      	movs	r3, #0
    1d2a:	eee1 3a10 	vmsr	fpscr, r3
  __ASM volatile ("MSR psplim, %0" : : "r" (ProcStackPtrLimit));
    1d2e:	f383 880b 	msr	PSPLIM, r3
	 */
	register void *p1_inreg __asm__("r0") = p1;
	register void *p2_inreg __asm__("r1") = p2;
	register void *p3_inreg __asm__("r2") = p3;

	__asm__ volatile (
    1d32:	4b0a      	ldr	r3, [pc, #40]	; (1d5c <loop+0x2>)
    1d34:	2520      	movs	r5, #32
    1d36:	f5a3 5620 	sub.w	r6, r3, #10240	; 0x2800
    1d3a:	f386 880b 	msr	PSPLIM, r6
    1d3e:	f383 8809 	msr	PSP, r3
    1d42:	b663      	cpsie	if
    1d44:	f04f 0300 	mov.w	r3, #0
    1d48:	f383 8811 	msr	BASEPRI, r3
    1d4c:	f3bf 8f6f 	isb	sy
    1d50:	47a0      	blx	r4
    1d52:	f385 8811 	msr	BASEPRI, r5
    1d56:	f3bf 8f6f 	isb	sy

00001d5a <loop>:
    1d5a:	e7fe      	b.n	1d5a <loop>
	, [_psplim]"r" (psplim)
#endif
	:
	);

	CODE_UNREACHABLE; /* LCOV_EXCL_LINE */
    1d5c:	20003ff0 	.word	0x20003ff0

00001d60 <_isr_wrapper>:
 *
 */
SECTION_FUNC(TEXT, _isr_wrapper)

#if defined(CONFIG_CPU_CORTEX_M)
	push {r0,lr}		/* r0, lr are now the first items on the stack */
    1d60:	b501      	push	{r0, lr}
#endif

#endif /* CONFIG_PM */

#if defined(CONFIG_CPU_CORTEX_M)
	mrs r0, IPSR	/* get exception number */
    1d62:	f3ef 8005 	mrs	r0, IPSR
#if defined(CONFIG_ARMV6_M_ARMV8_M_BASELINE)
	ldr r1, =16
	subs r0, r1	/* get IRQ number */
	lsls r0, #3	/* table is 8-byte wide */
#elif defined(CONFIG_ARMV7_M_ARMV8_M_MAINLINE)
	sub r0, r0, #16	/* get IRQ number */
    1d66:	f1a0 0010 	sub.w	r0, r0, #16
	lsl r0, r0, #3	/* table is 8-byte wide */
    1d6a:	ea4f 00c0 	mov.w	r0, r0, lsl #3
	lsl r1, r1, #3
	cmp r0, r1
	bge spurious_continue
#endif /* !CONFIG_CPU_CORTEX_M */

	ldr r1, =_sw_isr_table
    1d6e:	4904      	ldr	r1, [pc, #16]	; (1d80 <_isr_wrapper+0x20>)
	add r1, r1, r0	/* table entry: ISRs must have their MSB set to stay
    1d70:	4401      	add	r1, r0
			 * in thumb mode */

	ldm r1!,{r0,r3}	/* arg in r0, ISR in r3 */
    1d72:	c909      	ldmia	r1!, {r0, r3}
	blx r3		/* call ISR */
    1d74:	4798      	blx	r3

#if defined(CONFIG_ARMV6_M_ARMV8_M_BASELINE)
	pop {r0, r3}
	mov lr, r3
#elif defined(CONFIG_ARMV7_M_ARMV8_M_MAINLINE)
	pop {r0, lr}
    1d76:	e8bd 4001 	ldmia.w	sp!, {r0, lr}
#endif /* CONFIG_ARMV6_M_ARMV8_M_BASELINE */

	/* Use 'bx' instead of 'b' because 'bx' can jump further, and use
	 * 'bx' instead of 'blx' because exception return is done in
	 * z_arm_int_exit() */
	ldr r1, =z_arm_int_exit
    1d7a:	4902      	ldr	r1, [pc, #8]	; (1d84 <_isr_wrapper+0x24>)
	bx r1
    1d7c:	4708      	bx	r1
    1d7e:	0000      	.short	0x0000
	ldr r1, =_sw_isr_table
    1d80:	00006a10 	.word	0x00006a10
	ldr r1, =z_arm_int_exit
    1d84:	00001d89 	.word	0x00001d89

00001d88 <z_arm_exc_exit>:
#else
	pop {r0, lr}
#endif /* CONFIG_ARMV6_M_ARMV8_M_BASELINE */
#endif /* CONFIG_STACK_SENTINEL */

	bx lr
    1d88:	4770      	bx	lr
    1d8a:	bf00      	nop

00001d8c <usage_fault.constprop.0>:
 *
 * See z_arm_fault_dump() for example.
 *
 * @return error code to identify the fatal error reason
 */
static uint32_t usage_fault(const z_arch_esf_t *esf)
    1d8c:	b538      	push	{r3, r4, r5, lr}
	uint32_t reason = K_ERR_CPU_EXCEPTION;

	PR_FAULT_INFO("***** USAGE FAULT *****");

	/* bits are sticky: they stack and must be reset */
	if ((SCB->CFSR & SCB_CFSR_DIVBYZERO_Msk) != 0) {
    1d8e:	4c21      	ldr	r4, [pc, #132]	; (1e14 <usage_fault.constprop.0+0x88>)
	PR_FAULT_INFO("***** USAGE FAULT *****");
    1d90:	2145      	movs	r1, #69	; 0x45
    1d92:	4821      	ldr	r0, [pc, #132]	; (1e18 <usage_fault.constprop.0+0x8c>)
    1d94:	f004 f956 	bl	6044 <z_log_minimal_printk>
	if ((SCB->CFSR & SCB_CFSR_DIVBYZERO_Msk) != 0) {
    1d98:	6aa3      	ldr	r3, [r4, #40]	; 0x28
    1d9a:	019d      	lsls	r5, r3, #6
    1d9c:	d503      	bpl.n	1da6 <usage_fault.constprop.0+0x1a>
		PR_FAULT_INFO("  Division by zero");
    1d9e:	2145      	movs	r1, #69	; 0x45
    1da0:	481e      	ldr	r0, [pc, #120]	; (1e1c <usage_fault.constprop.0+0x90>)
    1da2:	f004 f94f 	bl	6044 <z_log_minimal_printk>
	}
	if ((SCB->CFSR & SCB_CFSR_UNALIGNED_Msk) != 0) {
    1da6:	6aa3      	ldr	r3, [r4, #40]	; 0x28
    1da8:	01dc      	lsls	r4, r3, #7
    1daa:	d503      	bpl.n	1db4 <usage_fault.constprop.0+0x28>
		PR_FAULT_INFO("  Unaligned memory access");
    1dac:	2145      	movs	r1, #69	; 0x45
    1dae:	481c      	ldr	r0, [pc, #112]	; (1e20 <usage_fault.constprop.0+0x94>)
    1db0:	f004 f948 	bl	6044 <z_log_minimal_printk>
	}
#if defined(CONFIG_ARMV8_M_MAINLINE)
	if ((SCB->CFSR & SCB_CFSR_STKOF_Msk) != 0) {
    1db4:	4d17      	ldr	r5, [pc, #92]	; (1e14 <usage_fault.constprop.0+0x88>)
    1db6:	6aac      	ldr	r4, [r5, #40]	; 0x28
    1db8:	f414 1480 	ands.w	r4, r4, #1048576	; 0x100000
    1dbc:	d004      	beq.n	1dc8 <usage_fault.constprop.0+0x3c>
		PR_FAULT_INFO("  Stack overflow (context area not valid)");
    1dbe:	2145      	movs	r1, #69	; 0x45
    1dc0:	4818      	ldr	r0, [pc, #96]	; (1e24 <usage_fault.constprop.0+0x98>)
    1dc2:	f004 f93f 	bl	6044 <z_log_minimal_printk>
		 * prevents the context area to be loaded on the stack upon
		 * UsageFault exception entry. As a result, we cannot rely
		 * on the reported faulty instruction address, to determine
		 * the instruction that triggered the stack overflow.
		 */
		reason = K_ERR_STACK_CHK_FAIL;
    1dc6:	2402      	movs	r4, #2
#endif /* CONFIG_BUILTIN_STACK_GUARD */
	}
#endif /* CONFIG_ARMV8_M_MAINLINE */
	if ((SCB->CFSR & SCB_CFSR_NOCP_Msk) != 0) {
    1dc8:	6aab      	ldr	r3, [r5, #40]	; 0x28
    1dca:	0318      	lsls	r0, r3, #12
    1dcc:	d503      	bpl.n	1dd6 <usage_fault.constprop.0+0x4a>
		PR_FAULT_INFO("  No coprocessor instructions");
    1dce:	2145      	movs	r1, #69	; 0x45
    1dd0:	4815      	ldr	r0, [pc, #84]	; (1e28 <usage_fault.constprop.0+0x9c>)
    1dd2:	f004 f937 	bl	6044 <z_log_minimal_printk>
	}
	if ((SCB->CFSR & SCB_CFSR_INVPC_Msk) != 0) {
    1dd6:	4d0f      	ldr	r5, [pc, #60]	; (1e14 <usage_fault.constprop.0+0x88>)
    1dd8:	6aab      	ldr	r3, [r5, #40]	; 0x28
    1dda:	0359      	lsls	r1, r3, #13
    1ddc:	d503      	bpl.n	1de6 <usage_fault.constprop.0+0x5a>
		PR_FAULT_INFO("  Illegal load of EXC_RETURN into PC");
    1dde:	2145      	movs	r1, #69	; 0x45
    1de0:	4812      	ldr	r0, [pc, #72]	; (1e2c <usage_fault.constprop.0+0xa0>)
    1de2:	f004 f92f 	bl	6044 <z_log_minimal_printk>
	}
	if ((SCB->CFSR & SCB_CFSR_INVSTATE_Msk) != 0) {
    1de6:	6aab      	ldr	r3, [r5, #40]	; 0x28
    1de8:	039a      	lsls	r2, r3, #14
    1dea:	d503      	bpl.n	1df4 <usage_fault.constprop.0+0x68>
		PR_FAULT_INFO("  Illegal use of the EPSR");
    1dec:	2145      	movs	r1, #69	; 0x45
    1dee:	4810      	ldr	r0, [pc, #64]	; (1e30 <usage_fault.constprop.0+0xa4>)
    1df0:	f004 f928 	bl	6044 <z_log_minimal_printk>
	}
	if ((SCB->CFSR & SCB_CFSR_UNDEFINSTR_Msk) != 0) {
    1df4:	4d07      	ldr	r5, [pc, #28]	; (1e14 <usage_fault.constprop.0+0x88>)
    1df6:	6aab      	ldr	r3, [r5, #40]	; 0x28
    1df8:	03db      	lsls	r3, r3, #15
    1dfa:	d503      	bpl.n	1e04 <usage_fault.constprop.0+0x78>
		PR_FAULT_INFO("  Attempt to execute undefined instruction");
    1dfc:	2145      	movs	r1, #69	; 0x45
    1dfe:	480d      	ldr	r0, [pc, #52]	; (1e34 <usage_fault.constprop.0+0xa8>)
    1e00:	f004 f920 	bl	6044 <z_log_minimal_printk>
	}

	/* clear UFSR sticky bits */
	SCB->CFSR |= SCB_CFSR_USGFAULTSR_Msk;
    1e04:	6aab      	ldr	r3, [r5, #40]	; 0x28

	return reason;
}
    1e06:	4620      	mov	r0, r4
	SCB->CFSR |= SCB_CFSR_USGFAULTSR_Msk;
    1e08:	ea6f 4303 	mvn.w	r3, r3, lsl #16
    1e0c:	ea6f 4313 	mvn.w	r3, r3, lsr #16
    1e10:	62ab      	str	r3, [r5, #40]	; 0x28
}
    1e12:	bd38      	pop	{r3, r4, r5, pc}
    1e14:	e000ed00 	.word	0xe000ed00
    1e18:	000075d0 	.word	0x000075d0
    1e1c:	000075ed 	.word	0x000075ed
    1e20:	00007605 	.word	0x00007605
    1e24:	00007624 	.word	0x00007624
    1e28:	00007653 	.word	0x00007653
    1e2c:	00007676 	.word	0x00007676
    1e30:	000076a0 	.word	0x000076a0
    1e34:	000076bf 	.word	0x000076bf

00001e38 <bus_fault.constprop.0>:
static int bus_fault(z_arch_esf_t *esf, int from_hard_fault, bool *recoverable)
    1e38:	b570      	push	{r4, r5, r6, lr}
	if (SCB->CFSR & SCB_CFSR_STKERR_Msk) {
    1e3a:	4c23      	ldr	r4, [pc, #140]	; (1ec8 <bus_fault.constprop.0+0x90>)
static int bus_fault(z_arch_esf_t *esf, int from_hard_fault, bool *recoverable)
    1e3c:	4606      	mov	r6, r0
    1e3e:	460d      	mov	r5, r1
	PR_FAULT_INFO("***** BUS FAULT *****");
    1e40:	4822      	ldr	r0, [pc, #136]	; (1ecc <bus_fault.constprop.0+0x94>)
    1e42:	2145      	movs	r1, #69	; 0x45
    1e44:	f004 f8fe 	bl	6044 <z_log_minimal_printk>
	if (SCB->CFSR & SCB_CFSR_STKERR_Msk) {
    1e48:	6aa3      	ldr	r3, [r4, #40]	; 0x28
    1e4a:	04d9      	lsls	r1, r3, #19
    1e4c:	d503      	bpl.n	1e56 <bus_fault.constprop.0+0x1e>
		PR_FAULT_INFO("  Stacking error");
    1e4e:	2145      	movs	r1, #69	; 0x45
    1e50:	481f      	ldr	r0, [pc, #124]	; (1ed0 <bus_fault.constprop.0+0x98>)
    1e52:	f004 f8f7 	bl	6044 <z_log_minimal_printk>
	if (SCB->CFSR & SCB_CFSR_UNSTKERR_Msk) {
    1e56:	6aa3      	ldr	r3, [r4, #40]	; 0x28
    1e58:	051a      	lsls	r2, r3, #20
    1e5a:	d503      	bpl.n	1e64 <bus_fault.constprop.0+0x2c>
		PR_FAULT_INFO("  Unstacking error");
    1e5c:	2145      	movs	r1, #69	; 0x45
    1e5e:	481d      	ldr	r0, [pc, #116]	; (1ed4 <bus_fault.constprop.0+0x9c>)
    1e60:	f004 f8f0 	bl	6044 <z_log_minimal_printk>
	if (SCB->CFSR & SCB_CFSR_PRECISERR_Msk) {
    1e64:	4c18      	ldr	r4, [pc, #96]	; (1ec8 <bus_fault.constprop.0+0x90>)
    1e66:	6aa3      	ldr	r3, [r4, #40]	; 0x28
    1e68:	059b      	lsls	r3, r3, #22
    1e6a:	d510      	bpl.n	1e8e <bus_fault.constprop.0+0x56>
		PR_FAULT_INFO("  Precise data bus error");
    1e6c:	481a      	ldr	r0, [pc, #104]	; (1ed8 <bus_fault.constprop.0+0xa0>)
    1e6e:	2145      	movs	r1, #69	; 0x45
    1e70:	f004 f8e8 	bl	6044 <z_log_minimal_printk>
		STORE_xFAR(bfar, SCB->BFAR);
    1e74:	6ba2      	ldr	r2, [r4, #56]	; 0x38
		if ((SCB->CFSR & SCB_CFSR_BFARVALID_Msk) != 0) {
    1e76:	6aa3      	ldr	r3, [r4, #40]	; 0x28
    1e78:	0418      	lsls	r0, r3, #16
    1e7a:	d508      	bpl.n	1e8e <bus_fault.constprop.0+0x56>
			PR_EXC("  BFAR Address: 0x%x", bfar);
    1e7c:	2145      	movs	r1, #69	; 0x45
    1e7e:	4817      	ldr	r0, [pc, #92]	; (1edc <bus_fault.constprop.0+0xa4>)
    1e80:	f004 f8e0 	bl	6044 <z_log_minimal_printk>
			if (from_hard_fault != 0) {
    1e84:	b11e      	cbz	r6, 1e8e <bus_fault.constprop.0+0x56>
				SCB->CFSR &= ~SCB_CFSR_BFARVALID_Msk;
    1e86:	6aa3      	ldr	r3, [r4, #40]	; 0x28
    1e88:	f423 4300 	bic.w	r3, r3, #32768	; 0x8000
    1e8c:	62a3      	str	r3, [r4, #40]	; 0x28
	if (SCB->CFSR & SCB_CFSR_IMPRECISERR_Msk) {
    1e8e:	4c0e      	ldr	r4, [pc, #56]	; (1ec8 <bus_fault.constprop.0+0x90>)
    1e90:	6aa3      	ldr	r3, [r4, #40]	; 0x28
    1e92:	0559      	lsls	r1, r3, #21
    1e94:	d503      	bpl.n	1e9e <bus_fault.constprop.0+0x66>
		PR_FAULT_INFO("  Imprecise data bus error");
    1e96:	2145      	movs	r1, #69	; 0x45
    1e98:	4811      	ldr	r0, [pc, #68]	; (1ee0 <bus_fault.constprop.0+0xa8>)
    1e9a:	f004 f8d3 	bl	6044 <z_log_minimal_printk>
	if ((SCB->CFSR & SCB_CFSR_IBUSERR_Msk) != 0) {
    1e9e:	6aa3      	ldr	r3, [r4, #40]	; 0x28
    1ea0:	05da      	lsls	r2, r3, #23
    1ea2:	d50b      	bpl.n	1ebc <bus_fault.constprop.0+0x84>
		PR_FAULT_INFO("  Instruction bus error");
    1ea4:	2145      	movs	r1, #69	; 0x45
    1ea6:	480f      	ldr	r0, [pc, #60]	; (1ee4 <bus_fault.constprop.0+0xac>)
		PR_FAULT_INFO("  Floating-point lazy state preservation error");
    1ea8:	f004 f8cc 	bl	6044 <z_log_minimal_printk>
	*recoverable = memory_fault_recoverable(esf, true);
    1eac:	2000      	movs	r0, #0
	SCB->CFSR |= SCB_CFSR_BUSFAULTSR_Msk;
    1eae:	4a06      	ldr	r2, [pc, #24]	; (1ec8 <bus_fault.constprop.0+0x90>)
    1eb0:	6a93      	ldr	r3, [r2, #40]	; 0x28
    1eb2:	f443 437f 	orr.w	r3, r3, #65280	; 0xff00
    1eb6:	6293      	str	r3, [r2, #40]	; 0x28
	*recoverable = memory_fault_recoverable(esf, true);
    1eb8:	7028      	strb	r0, [r5, #0]
}
    1eba:	bd70      	pop	{r4, r5, r6, pc}
	} else if (SCB->CFSR & SCB_CFSR_LSPERR_Msk) {
    1ebc:	6aa3      	ldr	r3, [r4, #40]	; 0x28
    1ebe:	049b      	lsls	r3, r3, #18
    1ec0:	d5f4      	bpl.n	1eac <bus_fault.constprop.0+0x74>
		PR_FAULT_INFO("  Floating-point lazy state preservation error");
    1ec2:	2145      	movs	r1, #69	; 0x45
    1ec4:	4808      	ldr	r0, [pc, #32]	; (1ee8 <bus_fault.constprop.0+0xb0>)
    1ec6:	e7ef      	b.n	1ea8 <bus_fault.constprop.0+0x70>
    1ec8:	e000ed00 	.word	0xe000ed00
    1ecc:	000076ef 	.word	0x000076ef
    1ed0:	0000770a 	.word	0x0000770a
    1ed4:	00007720 	.word	0x00007720
    1ed8:	00007738 	.word	0x00007738
    1edc:	00007756 	.word	0x00007756
    1ee0:	00007770 	.word	0x00007770
    1ee4:	00007790 	.word	0x00007790
    1ee8:	000077ad 	.word	0x000077ad

00001eec <mem_manage_fault.constprop.0>:
static uint32_t mem_manage_fault(z_arch_esf_t *esf, int from_hard_fault,
    1eec:	b570      	push	{r4, r5, r6, lr}
	if ((SCB->CFSR & SCB_CFSR_MSTKERR_Msk) != 0) {
    1eee:	4c26      	ldr	r4, [pc, #152]	; (1f88 <mem_manage_fault.constprop.0+0x9c>)
static uint32_t mem_manage_fault(z_arch_esf_t *esf, int from_hard_fault,
    1ef0:	4606      	mov	r6, r0
    1ef2:	460d      	mov	r5, r1
	PR_FAULT_INFO("***** MPU FAULT *****");
    1ef4:	4825      	ldr	r0, [pc, #148]	; (1f8c <mem_manage_fault.constprop.0+0xa0>)
    1ef6:	2145      	movs	r1, #69	; 0x45
    1ef8:	f004 f8a4 	bl	6044 <z_log_minimal_printk>
	if ((SCB->CFSR & SCB_CFSR_MSTKERR_Msk) != 0) {
    1efc:	6aa3      	ldr	r3, [r4, #40]	; 0x28
    1efe:	06d8      	lsls	r0, r3, #27
    1f00:	d503      	bpl.n	1f0a <mem_manage_fault.constprop.0+0x1e>
		PR_FAULT_INFO("  Stacking error (context area might be"
    1f02:	2145      	movs	r1, #69	; 0x45
    1f04:	4822      	ldr	r0, [pc, #136]	; (1f90 <mem_manage_fault.constprop.0+0xa4>)
    1f06:	f004 f89d 	bl	6044 <z_log_minimal_printk>
	if ((SCB->CFSR & SCB_CFSR_MUNSTKERR_Msk) != 0) {
    1f0a:	6aa3      	ldr	r3, [r4, #40]	; 0x28
    1f0c:	0719      	lsls	r1, r3, #28
    1f0e:	d503      	bpl.n	1f18 <mem_manage_fault.constprop.0+0x2c>
		PR_FAULT_INFO("  Unstacking error");
    1f10:	2145      	movs	r1, #69	; 0x45
    1f12:	4820      	ldr	r0, [pc, #128]	; (1f94 <mem_manage_fault.constprop.0+0xa8>)
    1f14:	f004 f896 	bl	6044 <z_log_minimal_printk>
	if ((SCB->CFSR & SCB_CFSR_DACCVIOL_Msk) != 0) {
    1f18:	4c1b      	ldr	r4, [pc, #108]	; (1f88 <mem_manage_fault.constprop.0+0x9c>)
    1f1a:	6aa3      	ldr	r3, [r4, #40]	; 0x28
    1f1c:	079a      	lsls	r2, r3, #30
    1f1e:	d510      	bpl.n	1f42 <mem_manage_fault.constprop.0+0x56>
		PR_FAULT_INFO("  Data Access Violation");
    1f20:	2145      	movs	r1, #69	; 0x45
    1f22:	481d      	ldr	r0, [pc, #116]	; (1f98 <mem_manage_fault.constprop.0+0xac>)
    1f24:	f004 f88e 	bl	6044 <z_log_minimal_printk>
		uint32_t temp = SCB->MMFAR;
    1f28:	6b62      	ldr	r2, [r4, #52]	; 0x34
		if ((SCB->CFSR & SCB_CFSR_MMARVALID_Msk) != 0) {
    1f2a:	6aa3      	ldr	r3, [r4, #40]	; 0x28
    1f2c:	061b      	lsls	r3, r3, #24
    1f2e:	d508      	bpl.n	1f42 <mem_manage_fault.constprop.0+0x56>
			PR_EXC("  MMFAR Address: 0x%x", mmfar);
    1f30:	2145      	movs	r1, #69	; 0x45
    1f32:	481a      	ldr	r0, [pc, #104]	; (1f9c <mem_manage_fault.constprop.0+0xb0>)
    1f34:	f004 f886 	bl	6044 <z_log_minimal_printk>
			if (from_hard_fault != 0) {
    1f38:	b11e      	cbz	r6, 1f42 <mem_manage_fault.constprop.0+0x56>
				SCB->CFSR &= ~SCB_CFSR_MMARVALID_Msk;
    1f3a:	6aa3      	ldr	r3, [r4, #40]	; 0x28
    1f3c:	f023 0380 	bic.w	r3, r3, #128	; 0x80
    1f40:	62a3      	str	r3, [r4, #40]	; 0x28
	if ((SCB->CFSR & SCB_CFSR_IACCVIOL_Msk) != 0) {
    1f42:	4c11      	ldr	r4, [pc, #68]	; (1f88 <mem_manage_fault.constprop.0+0x9c>)
    1f44:	6aa3      	ldr	r3, [r4, #40]	; 0x28
    1f46:	07de      	lsls	r6, r3, #31
    1f48:	d503      	bpl.n	1f52 <mem_manage_fault.constprop.0+0x66>
		PR_FAULT_INFO("  Instruction Access Violation");
    1f4a:	2145      	movs	r1, #69	; 0x45
    1f4c:	4814      	ldr	r0, [pc, #80]	; (1fa0 <mem_manage_fault.constprop.0+0xb4>)
    1f4e:	f004 f879 	bl	6044 <z_log_minimal_printk>
	if ((SCB->CFSR & SCB_CFSR_MLSPERR_Msk) != 0) {
    1f52:	6aa3      	ldr	r3, [r4, #40]	; 0x28
    1f54:	0698      	lsls	r0, r3, #26
    1f56:	d503      	bpl.n	1f60 <mem_manage_fault.constprop.0+0x74>
		PR_FAULT_INFO(
    1f58:	2145      	movs	r1, #69	; 0x45
    1f5a:	4812      	ldr	r0, [pc, #72]	; (1fa4 <mem_manage_fault.constprop.0+0xb8>)
    1f5c:	f004 f872 	bl	6044 <z_log_minimal_printk>
	*recoverable = memory_fault_recoverable(esf, true);
    1f60:	2000      	movs	r0, #0
	if ((SCB->CFSR & SCB_CFSR_MSTKERR_Msk) ||
    1f62:	4b09      	ldr	r3, [pc, #36]	; (1f88 <mem_manage_fault.constprop.0+0x9c>)
    1f64:	6a9a      	ldr	r2, [r3, #40]	; 0x28
    1f66:	06d1      	lsls	r1, r2, #27
		(SCB->CFSR & SCB_CFSR_DACCVIOL_Msk)) {
    1f68:	bf58      	it	pl
    1f6a:	6a9a      	ldrpl	r2, [r3, #40]	; 0x28
	if ((SCB->CFSR & SCB_CFSR_MLSPERR_Msk) != 0) {
    1f6c:	6a9a      	ldr	r2, [r3, #40]	; 0x28
    1f6e:	0692      	lsls	r2, r2, #26
		SCB->SHCSR &= ~SCB_SHCSR_MEMFAULTPENDED_Msk;
    1f70:	bf42      	ittt	mi
    1f72:	6a5a      	ldrmi	r2, [r3, #36]	; 0x24
    1f74:	f422 5200 	bicmi.w	r2, r2, #8192	; 0x2000
    1f78:	625a      	strmi	r2, [r3, #36]	; 0x24
	SCB->CFSR |= SCB_CFSR_MEMFAULTSR_Msk;
    1f7a:	6a9a      	ldr	r2, [r3, #40]	; 0x28
    1f7c:	f042 02ff 	orr.w	r2, r2, #255	; 0xff
    1f80:	629a      	str	r2, [r3, #40]	; 0x28
	*recoverable = memory_fault_recoverable(esf, true);
    1f82:	7028      	strb	r0, [r5, #0]
}
    1f84:	bd70      	pop	{r4, r5, r6, pc}
    1f86:	bf00      	nop
    1f88:	e000ed00 	.word	0xe000ed00
    1f8c:	000077e1 	.word	0x000077e1
    1f90:	000077fc 	.word	0x000077fc
    1f94:	00007720 	.word	0x00007720
    1f98:	00007834 	.word	0x00007834
    1f9c:	00007851 	.word	0x00007851
    1fa0:	0000786c 	.word	0x0000786c
    1fa4:	000077ad 	.word	0x000077ad

00001fa8 <z_arm_fault>:
 * @param callee_regs Callee-saved registers (R4-R11, PSP)
 *
 */
void z_arm_fault(uint32_t msp, uint32_t psp, uint32_t exc_return,
	_callee_saved_t *callee_regs)
{
    1fa8:	e92d 41f0 	stmdb	sp!, {r4, r5, r6, r7, r8, lr}
	uint32_t reason = K_ERR_CPU_EXCEPTION;
	int fault = SCB->ICSR & SCB_ICSR_VECTACTIVE_Msk;
    1fac:	4b5c      	ldr	r3, [pc, #368]	; (2120 <CONFIG_NRF_SPU_RAM_REGION_SIZE+0x120>)
{
    1fae:	4605      	mov	r5, r0
	int fault = SCB->ICSR & SCB_ICSR_VECTACTIVE_Msk;
    1fb0:	685f      	ldr	r7, [r3, #4]
    1fb2:	2600      	movs	r6, #0
{
    1fb4:	b08a      	sub	sp, #40	; 0x28
    1fb6:	f3c7 0408 	ubfx	r4, r7, #0, #9
    1fba:	f386 8811 	msr	BASEPRI, r6
    1fbe:	f3bf 8f6f 	isb	sy
	if ((exc_return & EXC_RETURN_INDICATOR_PREFIX) !=
    1fc2:	f002 437f 	and.w	r3, r2, #4278190080	; 0xff000000
    1fc6:	f1b3 4f7f 	cmp.w	r3, #4278190080	; 0xff000000
    1fca:	d107      	bne.n	1fdc <z_arm_fault+0x34>
	if ((exc_return & EXC_RETURN_MODE_THREAD) &&
    1fcc:	f002 030c 	and.w	r3, r2, #12
    1fd0:	2b08      	cmp	r3, #8
    1fd2:	d114      	bne.n	1ffe <z_arm_fault+0x56>
		PR_EXC("SPSEL in thread mode does not indicate PSP");
    1fd4:	2145      	movs	r1, #69	; 0x45
    1fd6:	4853      	ldr	r0, [pc, #332]	; (2124 <CONFIG_NRF_SPU_RAM_REGION_SIZE+0x124>)
    1fd8:	f004 f834 	bl	6044 <z_log_minimal_printk>
	*nested_exc = false;
    1fdc:	2600      	movs	r6, #0
		return NULL;
    1fde:	4635      	mov	r5, r6
	*recoverable = false;
    1fe0:	f04f 0800 	mov.w	r8, #0
	switch (fault) {
    1fe4:	1ee3      	subs	r3, r4, #3
	*recoverable = false;
    1fe6:	f88d 8007 	strb.w	r8, [sp, #7]
	switch (fault) {
    1fea:	2b09      	cmp	r3, #9
    1fec:	f200 8086 	bhi.w	20fc <CONFIG_NRF_SPU_RAM_REGION_SIZE+0xfc>
    1ff0:	e8df f003 	tbb	[pc, r3]
    1ff4:	757d790a 	.word	0x757d790a
    1ff8:	84848484 	.word	0x84848484
    1ffc:	8184      	.short	0x8184
		if (exc_return & EXC_RETURN_MODE_THREAD) {
    1ffe:	0710      	lsls	r0, r2, #28
			ptr_esf =  (z_arch_esf_t *)psp;
    2000:	bf4c      	ite	mi
    2002:	460d      	movmi	r5, r1
			*nested_exc = true;
    2004:	2601      	movpl	r6, #1
    2006:	e7eb      	b.n	1fe0 <z_arm_fault+0x38>
	PR_FAULT_INFO("***** HARD FAULT *****");
    2008:	2145      	movs	r1, #69	; 0x45
    200a:	4847      	ldr	r0, [pc, #284]	; (2128 <CONFIG_NRF_SPU_RAM_REGION_SIZE+0x128>)
	if ((SCB->HFSR & SCB_HFSR_VECTTBL_Msk) != 0) {
    200c:	4c44      	ldr	r4, [pc, #272]	; (2120 <CONFIG_NRF_SPU_RAM_REGION_SIZE+0x120>)
	PR_FAULT_INFO("***** HARD FAULT *****");
    200e:	f004 f819 	bl	6044 <z_log_minimal_printk>
	*recoverable = false;
    2012:	f88d 8007 	strb.w	r8, [sp, #7]
	if ((SCB->HFSR & SCB_HFSR_VECTTBL_Msk) != 0) {
    2016:	6ae3      	ldr	r3, [r4, #44]	; 0x2c
    2018:	079a      	lsls	r2, r3, #30
    201a:	d505      	bpl.n	2028 <CONFIG_NRF_SPU_RAM_REGION_SIZE+0x28>
		PR_EXC("  Bus fault on vector table read");
    201c:	2145      	movs	r1, #69	; 0x45
    201e:	4843      	ldr	r0, [pc, #268]	; (212c <CONFIG_NRF_SPU_RAM_REGION_SIZE+0x12c>)
	PR_FAULT_INFO(
    2020:	f004 f810 	bl	6044 <z_log_minimal_printk>
	uint32_t reason = K_ERR_CPU_EXCEPTION;
    2024:	2400      	movs	r4, #0
    2026:	e032      	b.n	208e <CONFIG_NRF_SPU_RAM_REGION_SIZE+0x8e>
	} else if ((SCB->HFSR & SCB_HFSR_DEBUGEVT_Msk) != 0) {
    2028:	6ae3      	ldr	r3, [r4, #44]	; 0x2c
    202a:	2b00      	cmp	r3, #0
    202c:	da02      	bge.n	2034 <CONFIG_NRF_SPU_RAM_REGION_SIZE+0x34>
		PR_EXC("  Debug event");
    202e:	2145      	movs	r1, #69	; 0x45
    2030:	483f      	ldr	r0, [pc, #252]	; (2130 <CONFIG_NRF_SPU_RAM_REGION_SIZE+0x130>)
    2032:	e7f5      	b.n	2020 <CONFIG_NRF_SPU_RAM_REGION_SIZE+0x20>
	} else if ((SCB->HFSR & SCB_HFSR_FORCED_Msk) != 0) {
    2034:	6ae3      	ldr	r3, [r4, #44]	; 0x2c
    2036:	005b      	lsls	r3, r3, #1
    2038:	d5f4      	bpl.n	2024 <CONFIG_NRF_SPU_RAM_REGION_SIZE+0x24>
		PR_EXC("  Fault escalation (see below)");
    203a:	2145      	movs	r1, #69	; 0x45
    203c:	483d      	ldr	r0, [pc, #244]	; (2134 <CONFIG_NRF_SPU_RAM_REGION_SIZE+0x134>)
    203e:	f004 f801 	bl	6044 <z_log_minimal_printk>
	SCB->CCR |= SCB_CCR_BFHFNMIGN_Msk;
    2042:	6963      	ldr	r3, [r4, #20]
	uint16_t *ret_addr = (uint16_t *)esf->basic.pc;
    2044:	69aa      	ldr	r2, [r5, #24]
	SCB->CCR |= SCB_CCR_BFHFNMIGN_Msk;
    2046:	f443 7380 	orr.w	r3, r3, #256	; 0x100
    204a:	6163      	str	r3, [r4, #20]
  __ASM volatile ("dsb 0xF":::"memory");
    204c:	f3bf 8f4f 	dsb	sy
  __ASM volatile ("isb 0xF":::"memory");
    2050:	f3bf 8f6f 	isb	sy
	SCB->CCR &= ~SCB_CCR_BFHFNMIGN_Msk;
    2054:	6963      	ldr	r3, [r4, #20]
	uint16_t fault_insn = *(ret_addr - 1);
    2056:	f832 2c02 	ldrh.w	r2, [r2, #-2]
	SCB->CCR &= ~SCB_CCR_BFHFNMIGN_Msk;
    205a:	f423 7380 	bic.w	r3, r3, #256	; 0x100
    205e:	6163      	str	r3, [r4, #20]
  __ASM volatile ("dsb 0xF":::"memory");
    2060:	f3bf 8f4f 	dsb	sy
  __ASM volatile ("isb 0xF":::"memory");
    2064:	f3bf 8f6f 	isb	sy
	if (((fault_insn & 0xff00) == _SVC_OPCODE) &&
    2068:	f64d 7302 	movw	r3, #57090	; 0xdf02
    206c:	429a      	cmp	r2, r3
    206e:	d008      	beq.n	2082 <CONFIG_NRF_SPU_RAM_REGION_SIZE+0x82>
		} else if ((SCB->CFSR & SCB_CFSR_MEMFAULTSR_Msk) != 0) {
    2070:	6aa3      	ldr	r3, [r4, #40]	; 0x28
    2072:	b2db      	uxtb	r3, r3
    2074:	b32b      	cbz	r3, 20c2 <CONFIG_NRF_SPU_RAM_REGION_SIZE+0xc2>
			reason = mem_manage_fault(esf, 1, recoverable);
    2076:	2001      	movs	r0, #1
    2078:	f10d 0107 	add.w	r1, sp, #7
		reason = mem_manage_fault(esf, 0, recoverable);
    207c:	f7ff ff36 	bl	1eec <mem_manage_fault.constprop.0>
    2080:	e02f      	b.n	20e2 <CONFIG_NRF_SPU_RAM_REGION_SIZE+0xe2>
			PR_EXC("ARCH_EXCEPT with reason %x\n", esf->basic.r0);
    2082:	2145      	movs	r1, #69	; 0x45
    2084:	682a      	ldr	r2, [r5, #0]
    2086:	482c      	ldr	r0, [pc, #176]	; (2138 <CONFIG_NRF_SPU_RAM_REGION_SIZE+0x138>)
    2088:	f003 ffdc 	bl	6044 <z_log_minimal_printk>
			reason = esf->basic.r0;
    208c:	682c      	ldr	r4, [r5, #0]
#ifdef CONFIG_DEBUG_COREDUMP
	z_arm_coredump_fault_sp = POINTER_TO_UINT(esf);
#endif

	reason = fault_handle(esf, fault, &recoverable);
	if (recoverable) {
    208e:	f89d 3007 	ldrb.w	r3, [sp, #7]
    2092:	b99b      	cbnz	r3, 20bc <CONFIG_NRF_SPU_RAM_REGION_SIZE+0xbc>
		return;
	}

	/* Copy ESF */
#if !defined(CONFIG_EXTRA_EXCEPTION_INFO)
	memcpy(&esf_copy, esf, sizeof(z_arch_esf_t));
    2094:	2220      	movs	r2, #32
    2096:	4629      	mov	r1, r5
    2098:	a802      	add	r0, sp, #8
    209a:	f004 f87c 	bl	6196 <memcpy>
	/* Overwrite stacked IPSR to mark a nested exception,
	 * or a return to Thread mode. Note that this may be
	 * required, if the retrieved ESF contents are invalid
	 * due to, for instance, a stacking error.
	 */
	if (nested_exc) {
    209e:	9b09      	ldr	r3, [sp, #36]	; 0x24
    20a0:	2e00      	cmp	r6, #0
    20a2:	d038      	beq.n	2116 <CONFIG_NRF_SPU_RAM_REGION_SIZE+0x116>
		if ((esf_copy.basic.xpsr & IPSR_ISR_Msk) == 0) {
    20a4:	f3c3 0208 	ubfx	r2, r3, #0, #9
    20a8:	b922      	cbnz	r2, 20b4 <CONFIG_NRF_SPU_RAM_REGION_SIZE+0xb4>
			esf_copy.basic.xpsr |= IPSR_ISR_Msk;
    20aa:	ea6f 2353 	mvn.w	r3, r3, lsr #9
    20ae:	ea6f 2343 	mvn.w	r3, r3, lsl #9
		}
	} else {
		esf_copy.basic.xpsr &= ~(IPSR_ISR_Msk);
    20b2:	9309      	str	r3, [sp, #36]	; 0x24
	}

	z_arm_fatal_error(reason, &esf_copy);
    20b4:	4620      	mov	r0, r4
    20b6:	a902      	add	r1, sp, #8
    20b8:	f7ff fd90 	bl	1bdc <z_arm_fatal_error>
}
    20bc:	b00a      	add	sp, #40	; 0x28
    20be:	e8bd 81f0 	ldmia.w	sp!, {r4, r5, r6, r7, r8, pc}
		} else if ((SCB->CFSR & SCB_CFSR_BUSFAULTSR_Msk) != 0) {
    20c2:	6aa3      	ldr	r3, [r4, #40]	; 0x28
    20c4:	f413 4f7f 	tst.w	r3, #65280	; 0xff00
    20c8:	d005      	beq.n	20d6 <CONFIG_NRF_SPU_RAM_REGION_SIZE+0xd6>
			reason = bus_fault(esf, 1, recoverable);
    20ca:	2001      	movs	r0, #1
    20cc:	f10d 0107 	add.w	r1, sp, #7
		reason = bus_fault(esf, 0, recoverable);
    20d0:	f7ff feb2 	bl	1e38 <bus_fault.constprop.0>
    20d4:	e005      	b.n	20e2 <CONFIG_NRF_SPU_RAM_REGION_SIZE+0xe2>
		} else if ((SCB->CFSR & SCB_CFSR_USGFAULTSR_Msk) != 0) {
    20d6:	6aa3      	ldr	r3, [r4, #40]	; 0x28
    20d8:	f5b3 3f80 	cmp.w	r3, #65536	; 0x10000
    20dc:	d3a2      	bcc.n	2024 <CONFIG_NRF_SPU_RAM_REGION_SIZE+0x24>
			reason = usage_fault(esf);
    20de:	f7ff fe55 	bl	1d8c <usage_fault.constprop.0>
    20e2:	4604      	mov	r4, r0
    20e4:	e7d3      	b.n	208e <CONFIG_NRF_SPU_RAM_REGION_SIZE+0x8e>
		reason = mem_manage_fault(esf, 0, recoverable);
    20e6:	2000      	movs	r0, #0
    20e8:	f10d 0107 	add.w	r1, sp, #7
    20ec:	e7c6      	b.n	207c <CONFIG_NRF_SPU_RAM_REGION_SIZE+0x7c>
		reason = bus_fault(esf, 0, recoverable);
    20ee:	2000      	movs	r0, #0
    20f0:	f10d 0107 	add.w	r1, sp, #7
    20f4:	e7ec      	b.n	20d0 <CONFIG_NRF_SPU_RAM_REGION_SIZE+0xd0>
	PR_FAULT_INFO(
    20f6:	2145      	movs	r1, #69	; 0x45
    20f8:	4810      	ldr	r0, [pc, #64]	; (213c <CONFIG_NRF_SPU_RAM_REGION_SIZE+0x13c>)
    20fa:	e791      	b.n	2020 <CONFIG_NRF_SPU_RAM_REGION_SIZE+0x20>
	PR_FAULT_INFO("***** %s %d) *****",
    20fc:	4910      	ldr	r1, [pc, #64]	; (2140 <CONFIG_NRF_SPU_RAM_REGION_SIZE+0x140>)
    20fe:	f417 7ff8 	tst.w	r7, #496	; 0x1f0
    2102:	4a10      	ldr	r2, [pc, #64]	; (2144 <CONFIG_NRF_SPU_RAM_REGION_SIZE+0x144>)
    2104:	4810      	ldr	r0, [pc, #64]	; (2148 <CONFIG_NRF_SPU_RAM_REGION_SIZE+0x148>)
    2106:	bf08      	it	eq
    2108:	460a      	moveq	r2, r1
    210a:	f1a4 0310 	sub.w	r3, r4, #16
    210e:	2145      	movs	r1, #69	; 0x45
    2110:	f003 ff98 	bl	6044 <z_log_minimal_printk>
}
    2114:	e786      	b.n	2024 <CONFIG_NRF_SPU_RAM_REGION_SIZE+0x24>
		esf_copy.basic.xpsr &= ~(IPSR_ISR_Msk);
    2116:	f423 73ff 	bic.w	r3, r3, #510	; 0x1fe
    211a:	f023 0301 	bic.w	r3, r3, #1
    211e:	e7c8      	b.n	20b2 <CONFIG_NRF_SPU_RAM_REGION_SIZE+0xb2>
    2120:	e000ed00 	.word	0xe000ed00
    2124:	000078be 	.word	0x000078be
    2128:	000078ee 	.word	0x000078ee
    212c:	0000790a 	.word	0x0000790a
    2130:	00007930 	.word	0x00007930
    2134:	00007943 	.word	0x00007943
    2138:	00007967 	.word	0x00007967
    213c:	00007988 	.word	0x00007988
    2140:	00007890 	.word	0x00007890
    2144:	000078a5 	.word	0x000078a5
    2148:	000079b1 	.word	0x000079b1

0000214c <z_arm_fault_init>:
 */
void z_arm_fault_init(void)
{
#if defined(CONFIG_ARMV6_M_ARMV8_M_BASELINE)
#elif defined(CONFIG_ARMV7_M_ARMV8_M_MAINLINE)
	SCB->CCR |= SCB_CCR_DIV_0_TRP_Msk;
    214c:	4b04      	ldr	r3, [pc, #16]	; (2160 <z_arm_fault_init+0x14>)
    214e:	695a      	ldr	r2, [r3, #20]
    2150:	f042 0210 	orr.w	r2, r2, #16
    2154:	615a      	str	r2, [r3, #20]
	 *
	 * For Non-Secure Firmware this could allow the Non-Secure Main
	 * Stack to attempt to descend into secure region, in which case a
	 * Secure Hard Fault will occur and we can track the fault from there.
	 */
	SCB->CCR |= SCB_CCR_STKOFHFNMIGN_Msk;
    2156:	695a      	ldr	r2, [r3, #20]
    2158:	f442 6280 	orr.w	r2, r2, #1024	; 0x400
    215c:	615a      	str	r2, [r3, #20]
#endif /* CONFIG_BUILTIN_STACK_GUARD */
#ifdef CONFIG_TRAP_UNALIGNED_ACCESS
	SCB->CCR |= SCB_CCR_UNALIGN_TRP_Msk;
#endif /* CONFIG_TRAP_UNALIGNED_ACCESS */
}
    215e:	4770      	bx	lr
    2160:	e000ed00 	.word	0xe000ed00

00002164 <z_arm_bus_fault>:
#else
#error Unknown ARM architecture
#endif /* CONFIG_ARMV6_M_ARMV8_M_BASELINE */
SECTION_SUBSEC_FUNC(TEXT,__fault,z_arm_exc_spurious)

	mrs r0, MSP
    2164:	f3ef 8008 	mrs	r0, MSP
	mrs r1, PSP
    2168:	f3ef 8109 	mrs	r1, PSP
	push {r0, lr}
    216c:	b501      	push	{r0, lr}
#elif defined(CONFIG_ARMV7_M_ARMV8_M_MAINLINE)
	push {r4-r11}
#endif
	mov  r3, sp /* pointer to _callee_saved_t */
#endif /* CONFIG_EXTRA_EXCEPTION_INFO */
	mov r2, lr /* EXC_RETURN */
    216e:	4672      	mov	r2, lr
	bl z_arm_fault
    2170:	f7ff ff1a 	bl	1fa8 <z_arm_fault>
	 * in this routine. Therefore, we can just reset
	 * the MSP to its value prior to entering the function
	 */
	add sp, #40
#endif
	pop {r0, pc}
    2174:	bd01      	pop	{r0, pc}
    2176:	bf00      	nop

00002178 <z_arm_interrupt_init>:
 *
 */

void z_arm_interrupt_init(void)
{
	int irq = 0;
    2178:	2300      	movs	r3, #0
    NVIC->IPR[((uint32_t)IRQn)]               = (uint8_t)((priority << (8U - __NVIC_PRIO_BITS)) & (uint32_t)0xFFUL);
    217a:	2120      	movs	r1, #32
    217c:	4803      	ldr	r0, [pc, #12]	; (218c <z_arm_interrupt_init+0x14>)
    217e:	18c2      	adds	r2, r0, r3

	for (; irq < CONFIG_NUM_IRQS; irq++) {
    2180:	3301      	adds	r3, #1
    2182:	2b41      	cmp	r3, #65	; 0x41
    2184:	f882 1300 	strb.w	r1, [r2, #768]	; 0x300
    2188:	d1f9      	bne.n	217e <z_arm_interrupt_init+0x6>
		NVIC_SetPriority((IRQn_Type)irq, _IRQ_PRIO_OFFSET);
	}
}
    218a:	4770      	bx	lr
    218c:	e000e100 	.word	0xe000e100

00002190 <__start>:
    strb r0, [r1]
#endif /* CONFIG_DEBUG_THREAD_INFO */

#if defined(CONFIG_INIT_ARCH_HW_AT_BOOT)
    /* Reset CONTROL register */
    movs.n r0, #0
    2190:	2000      	movs	r0, #0
    msr CONTROL, r0
    2192:	f380 8814 	msr	CONTROL, r0
    isb
    2196:	f3bf 8f6f 	isb	sy
#if defined(CONFIG_CPU_CORTEX_M_HAS_SPLIM)
    /* Clear SPLIM registers */
    movs.n r0, #0
    219a:	2000      	movs	r0, #0
    msr MSPLIM, r0
    219c:	f380 880a 	msr	MSPLIM, r0
    msr PSPLIM, r0
    21a0:	f380 880b 	msr	PSPLIM, r0
#if defined(CONFIG_PM_S2RAM)
    bl arch_pm_s2ram_resume
#endif /* CONFIG_PM_S2RAM */

#if defined(CONFIG_PLATFORM_SPECIFIC_INIT)
    bl z_arm_platform_init
    21a4:	f7ff fc9a 	bl	1adc <z_arm_platform_init>
#endif

#if defined(CONFIG_INIT_ARCH_HW_AT_BOOT)
#if defined(CONFIG_CPU_HAS_ARM_MPU)
    /* Disable MPU */
    movs.n r0, #0
    21a8:	2000      	movs	r0, #0
    ldr r1, =_SCS_MPU_CTRL
    21aa:	490e      	ldr	r1, [pc, #56]	; (21e4 <__start+0x54>)
    str r0, [r1]
    21ac:	6008      	str	r0, [r1, #0]
    dsb
    21ae:	f3bf 8f4f 	dsb	sy
#endif /* CONFIG_CPU_HAS_ARM_MPU */
    ldr r0, =z_main_stack + CONFIG_MAIN_STACK_SIZE
    21b2:	480d      	ldr	r0, [pc, #52]	; (21e8 <__start+0x58>)
    msr msp, r0
    21b4:	f380 8808 	msr	MSP, r0

    /* Initialize core architecture registers and system blocks */
    bl z_arm_init_arch_hw_at_boot
    21b8:	f000 f83e 	bl	2238 <z_arm_init_arch_hw_at_boot>

    /* lock interrupts: will get unlocked when switch to main task */
#if defined(CONFIG_ARMV6_M_ARMV8_M_BASELINE)
    cpsid i
#elif defined(CONFIG_ARMV7_M_ARMV8_M_MAINLINE)
    movs.n r0, #_EXC_IRQ_DEFAULT_PRIO
    21bc:	2020      	movs	r0, #32
    msr BASEPRI, r0
    21be:	f380 8811 	msr	BASEPRI, r0

    /*
     * Set PSP and use it to boot without using MSP, so that it
     * gets set to z_interrupt_stacks during initialization.
     */
    ldr r0, =z_interrupt_stacks
    21c2:	480a      	ldr	r0, [pc, #40]	; (21ec <__start+0x5c>)
    ldr r1, =CONFIG_ISR_STACK_SIZE + MPU_GUARD_ALIGN_AND_SIZE
    21c4:	f44f 6100 	mov.w	r1, #2048	; 0x800
    adds r0, r0, r1
    21c8:	1840      	adds	r0, r0, r1
    msr PSP, r0
    21ca:	f380 8809 	msr	PSP, r0
    mrs r0, CONTROL
    21ce:	f3ef 8014 	mrs	r0, CONTROL
    movs r1, #2
    21d2:	2102      	movs	r1, #2
    orrs r0, r1 /* CONTROL_SPSEL_Msk */
    21d4:	4308      	orrs	r0, r1
    msr CONTROL, r0
    21d6:	f380 8814 	msr	CONTROL, r0
    /*
     * When changing the stack pointer, software must use an ISB instruction
     * immediately after the MSR instruction. This ensures that instructions
     * after the ISB instruction execute using the new stack pointer.
     */
    isb
    21da:	f3bf 8f6f 	isb	sy
    /*
     * 'bl' jumps the furthest of the branch instructions that are
     * supported on all platforms. So it is used when jumping to z_arm_prep_c
     * (even though we do not intend to return).
     */
    bl z_arm_prep_c
    21de:	f7ff fd61 	bl	1ca4 <z_arm_prep_c>
    21e2:	0000      	.short	0x0000
    ldr r1, =_SCS_MPU_CTRL
    21e4:	e000ed94 	.word	0xe000ed94
    ldr r0, =z_main_stack + CONFIG_MAIN_STACK_SIZE
    21e8:	20003ff0 	.word	0x20003ff0
    ldr r0, =z_interrupt_stacks
    21ec:	20000ff0 	.word	0x20000ff0

000021f0 <sys_arch_reboot>:
  __ASM volatile ("dsb 0xF":::"memory");
    21f0:	f3bf 8f4f 	dsb	sy
__NO_RETURN __STATIC_INLINE void __NVIC_SystemReset(void)
{
  __DSB();                                                          /* Ensure all outstanding memory accesses included
                                                                       buffered write are completed before reset */
  SCB->AIRCR  = (uint32_t)((0x5FAUL << SCB_AIRCR_VECTKEY_Pos)    |
                           (SCB->AIRCR & SCB_AIRCR_PRIGROUP_Msk) |
    21f4:	4905      	ldr	r1, [pc, #20]	; (220c <sys_arch_reboot+0x1c>)
    21f6:	4b06      	ldr	r3, [pc, #24]	; (2210 <sys_arch_reboot+0x20>)
    21f8:	68ca      	ldr	r2, [r1, #12]
    21fa:	f402 62e0 	and.w	r2, r2, #1792	; 0x700
    21fe:	4313      	orrs	r3, r2
  SCB->AIRCR  = (uint32_t)((0x5FAUL << SCB_AIRCR_VECTKEY_Pos)    |
    2200:	60cb      	str	r3, [r1, #12]
    2202:	f3bf 8f4f 	dsb	sy
                            SCB_AIRCR_SYSRESETREQ_Msk    );         /* Keep priority group unchanged */
  __DSB();                                                          /* Ensure completion of memory access */

  for(;;)                                                           /* wait until reset */
  {
    __NOP();
    2206:	bf00      	nop
  for(;;)                                                           /* wait until reset */
    2208:	e7fd      	b.n	2206 <sys_arch_reboot+0x16>
    220a:	bf00      	nop
    220c:	e000ed00 	.word	0xe000ed00
    2210:	05fa0004 	.word	0x05fa0004

00002214 <z_arm_clear_arm_mpu_config>:
	int i;

	int num_regions =
		((MPU->TYPE & MPU_TYPE_DREGION_Msk) >> MPU_TYPE_DREGION_Pos);

	for (i = 0; i < num_regions; i++) {
    2214:	2300      	movs	r3, #0
* \param rnr Region number to be cleared.
*/
__STATIC_INLINE void ARM_MPU_ClrRegionEx(MPU_Type* mpu, uint32_t rnr)
{
  mpu->RNR = rnr;
  mpu->RLAR = 0U;
    2216:	4618      	mov	r0, r3
		((MPU->TYPE & MPU_TYPE_DREGION_Msk) >> MPU_TYPE_DREGION_Pos);
    2218:	4906      	ldr	r1, [pc, #24]	; (2234 <z_arm_clear_arm_mpu_config+0x20>)
    221a:	f8d1 2090 	ldr.w	r2, [r1, #144]	; 0x90
	int num_regions =
    221e:	f3c2 2207 	ubfx	r2, r2, #8, #8
	for (i = 0; i < num_regions; i++) {
    2222:	4293      	cmp	r3, r2
    2224:	db00      	blt.n	2228 <z_arm_clear_arm_mpu_config+0x14>
		ARM_MPU_ClrRegion(i);
	}
}
    2226:	4770      	bx	lr
  mpu->RNR = rnr;
    2228:	f8c1 3098 	str.w	r3, [r1, #152]	; 0x98
  mpu->RLAR = 0U;
    222c:	f8c1 00a0 	str.w	r0, [r1, #160]	; 0xa0
	for (i = 0; i < num_regions; i++) {
    2230:	3301      	adds	r3, #1
    2232:	e7f6      	b.n	2222 <z_arm_clear_arm_mpu_config+0xe>
    2234:	e000ed00 	.word	0xe000ed00

00002238 <z_arm_init_arch_hw_at_boot>:
 * This routine resets Cortex-M system control block
 * components and core registers.
 *
 */
void z_arm_init_arch_hw_at_boot(void)
{
    2238:	b510      	push	{r4, lr}
  __ASM volatile ("cpsid i" : : : "memory");
    223a:	b672      	cpsid	i
  __ASM volatile ("MSR faultmask, %0" : : "r" (faultMask) : "memory");
    223c:	2400      	movs	r4, #0
    223e:	f384 8813 	msr	FAULTMASK, r4

	/* Initialize System Control Block components */

#if defined(CONFIG_CPU_HAS_ARM_MPU) || defined(CONFIG_CPU_HAS_NXP_MPU)
	/* Clear MPU region configuration */
	z_arm_clear_arm_mpu_config();
    2242:	f7ff ffe7 	bl	2214 <z_arm_clear_arm_mpu_config>
    2246:	4623      	mov	r3, r4
#endif /* CONFIG_CPU_HAS_ARM_MPU */

	/* Disable NVIC interrupts */
	for (uint8_t i = 0; i < ARRAY_SIZE(NVIC->ICER); i++) {
		NVIC->ICER[i] = 0xFFFFFFFF;
    2248:	f04f 30ff 	mov.w	r0, #4294967295	; 0xffffffff
    224c:	4a0c      	ldr	r2, [pc, #48]	; (2280 <z_arm_init_arch_hw_at_boot+0x48>)
    224e:	f103 0120 	add.w	r1, r3, #32
	for (uint8_t i = 0; i < ARRAY_SIZE(NVIC->ICER); i++) {
    2252:	3301      	adds	r3, #1
    2254:	2b10      	cmp	r3, #16
		NVIC->ICER[i] = 0xFFFFFFFF;
    2256:	f842 0021 	str.w	r0, [r2, r1, lsl #2]
	for (uint8_t i = 0; i < ARRAY_SIZE(NVIC->ICER); i++) {
    225a:	d1f8      	bne.n	224e <z_arm_init_arch_hw_at_boot+0x16>
    225c:	2300      	movs	r3, #0
	}
	/* Clear pending NVIC interrupts */
	for (uint8_t i = 0; i < ARRAY_SIZE(NVIC->ICPR); i++) {
		NVIC->ICPR[i] = 0xFFFFFFFF;
    225e:	f04f 30ff 	mov.w	r0, #4294967295	; 0xffffffff
    2262:	4a07      	ldr	r2, [pc, #28]	; (2280 <z_arm_init_arch_hw_at_boot+0x48>)
    2264:	f103 0160 	add.w	r1, r3, #96	; 0x60
	for (uint8_t i = 0; i < ARRAY_SIZE(NVIC->ICPR); i++) {
    2268:	3301      	adds	r3, #1
    226a:	2b10      	cmp	r3, #16
		NVIC->ICPR[i] = 0xFFFFFFFF;
    226c:	f842 0021 	str.w	r0, [r2, r1, lsl #2]
	for (uint8_t i = 0; i < ARRAY_SIZE(NVIC->ICPR); i++) {
    2270:	d1f8      	bne.n	2264 <z_arm_init_arch_hw_at_boot+0x2c>
  __ASM volatile ("cpsie i" : : : "memory");
    2272:	b662      	cpsie	i
  __ASM volatile ("dsb 0xF":::"memory");
    2274:	f3bf 8f4f 	dsb	sy
  __ASM volatile ("isb 0xF":::"memory");
    2278:	f3bf 8f6f 	isb	sy
	/* Restore Interrupts */
	__enable_irq();

	__DSB();
	__ISB();
}
    227c:	bd10      	pop	{r4, pc}
    227e:	bf00      	nop
    2280:	e000e100 	.word	0xe000e100

00002284 <__stdout_hook_install>:

static int (*_stdout_hook)(int c) = _stdout_hook_default;

void __stdout_hook_install(int (*hook)(int c))
{
	_stdout_hook = hook;
    2284:	4b01      	ldr	r3, [pc, #4]	; (228c <__stdout_hook_install+0x8>)
    2286:	6018      	str	r0, [r3, #0]
}
    2288:	4770      	bx	lr
    228a:	bf00      	nop
    228c:	20000010 	.word	0x20000010

00002290 <onoff_stop>:
}

static clock_control_subsys_t get_subsys(struct onoff_manager *mgr)
{
	struct nrf_clock_control_data *data = CLOCK_DEVICE->data;
	size_t offset = (size_t)(mgr - data->mgr);
    2290:	4b08      	ldr	r3, [pc, #32]	; (22b4 <onoff_stop+0x24>)
	return (clock_control_subsys_t)offset;
}

static void onoff_stop(struct onoff_manager *mgr,
			onoff_notify_fn notify)
{
    2292:	b570      	push	{r4, r5, r6, lr}
	size_t offset = (size_t)(mgr - data->mgr);
    2294:	1ac3      	subs	r3, r0, r3
{
    2296:	460d      	mov	r5, r1
	int res;

	res = stop(CLOCK_DEVICE, get_subsys(mgr), CTX_ONOFF);
    2298:	4907      	ldr	r1, [pc, #28]	; (22b8 <onoff_stop+0x28>)
	size_t offset = (size_t)(mgr - data->mgr);
    229a:	109b      	asrs	r3, r3, #2
{
    229c:	4604      	mov	r4, r0
	res = stop(CLOCK_DEVICE, get_subsys(mgr), CTX_ONOFF);
    229e:	4359      	muls	r1, r3
    22a0:	2240      	movs	r2, #64	; 0x40
    22a2:	4806      	ldr	r0, [pc, #24]	; (22bc <onoff_stop+0x2c>)
    22a4:	f003 ffaa 	bl	61fc <stop>
	notify(mgr, res);
    22a8:	462b      	mov	r3, r5
	res = stop(CLOCK_DEVICE, get_subsys(mgr), CTX_ONOFF);
    22aa:	4601      	mov	r1, r0
	notify(mgr, res);
    22ac:	4620      	mov	r0, r4
}
    22ae:	e8bd 4070 	ldmia.w	sp!, {r4, r5, r6, lr}
	notify(mgr, res);
    22b2:	4718      	bx	r3
    22b4:	20000e4c 	.word	0x20000e4c
    22b8:	b6db6db7 	.word	0xb6db6db7
    22bc:	00006998 	.word	0x00006998

000022c0 <onoff_start>:
static void onoff_start(struct onoff_manager *mgr,
			onoff_notify_fn notify)
{
	int err;

	err = async_start(CLOCK_DEVICE, get_subsys(mgr),
    22c0:	2340      	movs	r3, #64	; 0x40
{
    22c2:	b573      	push	{r0, r1, r4, r5, r6, lr}
	size_t offset = (size_t)(mgr - data->mgr);
    22c4:	4c0b      	ldr	r4, [pc, #44]	; (22f4 <onoff_start+0x34>)
	err = async_start(CLOCK_DEVICE, get_subsys(mgr),
    22c6:	9300      	str	r3, [sp, #0]
	size_t offset = (size_t)(mgr - data->mgr);
    22c8:	1b04      	subs	r4, r0, r4
	err = async_start(CLOCK_DEVICE, get_subsys(mgr),
    22ca:	460b      	mov	r3, r1
{
    22cc:	460d      	mov	r5, r1
	err = async_start(CLOCK_DEVICE, get_subsys(mgr),
    22ce:	490a      	ldr	r1, [pc, #40]	; (22f8 <onoff_start+0x38>)
	size_t offset = (size_t)(mgr - data->mgr);
    22d0:	10a4      	asrs	r4, r4, #2
	err = async_start(CLOCK_DEVICE, get_subsys(mgr),
    22d2:	4361      	muls	r1, r4
{
    22d4:	4606      	mov	r6, r0
	err = async_start(CLOCK_DEVICE, get_subsys(mgr),
    22d6:	4a09      	ldr	r2, [pc, #36]	; (22fc <onoff_start+0x3c>)
    22d8:	4809      	ldr	r0, [pc, #36]	; (2300 <onoff_start+0x40>)
    22da:	f003 ffbb 	bl	6254 <async_start>
			  onoff_started_callback, notify, CTX_ONOFF);
	if (err < 0) {
    22de:	1e01      	subs	r1, r0, #0
    22e0:	da05      	bge.n	22ee <onoff_start+0x2e>
		notify(mgr, err);
    22e2:	4630      	mov	r0, r6
    22e4:	462b      	mov	r3, r5
	}
}
    22e6:	b002      	add	sp, #8
    22e8:	e8bd 4070 	ldmia.w	sp!, {r4, r5, r6, lr}
		notify(mgr, err);
    22ec:	4718      	bx	r3
}
    22ee:	b002      	add	sp, #8
    22f0:	bd70      	pop	{r4, r5, r6, pc}
    22f2:	bf00      	nop
    22f4:	20000e4c 	.word	0x20000e4c
    22f8:	b6db6db7 	.word	0xb6db6db7
    22fc:	000062c5 	.word	0x000062c5
    2300:	00006998 	.word	0x00006998

00002304 <generic_hfclk_stop>:
{
    2304:	b510      	push	{r4, lr}
	__asm__ volatile(
    2306:	f04f 0320 	mov.w	r3, #32
    230a:	f3ef 8411 	mrs	r4, BASEPRI
    230e:	f383 8812 	msr	BASEPRI_MAX, r3
    2312:	f3bf 8f6f 	isb	sy
	hfclk_users &= ~HF_USER_GENERIC;
    2316:	4a07      	ldr	r2, [pc, #28]	; (2334 <generic_hfclk_stop+0x30>)
    2318:	6813      	ldr	r3, [r2, #0]
    231a:	f023 0102 	bic.w	r1, r3, #2
	if (!(hfclk_users & HF_USER_BT)) {
    231e:	07db      	lsls	r3, r3, #31
	hfclk_users &= ~HF_USER_GENERIC;
    2320:	6011      	str	r1, [r2, #0]
	if (!(hfclk_users & HF_USER_BT)) {
    2322:	d402      	bmi.n	232a <generic_hfclk_stop+0x26>
    nrfx_clock_start(NRF_CLOCK_DOMAIN_HFCLK);
}

NRFX_STATIC_INLINE void nrfx_clock_hfclk_stop(void)
{
    nrfx_clock_stop(NRF_CLOCK_DOMAIN_HFCLK);
    2324:	2001      	movs	r0, #1
    2326:	f004 fab8 	bl	689a <nrfx_clock_stop>
	__asm__ volatile(
    232a:	f384 8811 	msr	BASEPRI, r4
    232e:	f3bf 8f6f 	isb	sy
}
    2332:	bd10      	pop	{r4, pc}
    2334:	20000e9c 	.word	0x20000e9c

00002338 <clk_init>:
#endif /* NRF_CLOCK_HAS_HFCLKAUDIO */
#endif
}

static int clk_init(const struct device *dev)
{
    2338:	b570      	push	{r4, r5, r6, lr}
	static const struct onoff_transitions transitions = {
		.start = onoff_start,
		.stop = onoff_stop
	};

	IRQ_CONNECT(DT_INST_IRQN(0), DT_INST_IRQ(0, priority),
    233a:	2200      	movs	r2, #0
    233c:	2101      	movs	r1, #1
{
    233e:	4604      	mov	r4, r0
	IRQ_CONNECT(DT_INST_IRQN(0), DT_INST_IRQ(0, priority),
    2340:	2005      	movs	r0, #5
    2342:	f7ff fc95 	bl	1c70 <z_arm_irq_priority_set>
		    nrfx_isr, nrfx_power_clock_irq_handler, 0);

	nrfx_err = nrfx_clock_init(clock_event_handler);
    2346:	480f      	ldr	r0, [pc, #60]	; (2384 <clk_init+0x4c>)
    2348:	f001 f908 	bl	355c <nrfx_clock_init>
	if (nrfx_err != NRFX_SUCCESS) {
    234c:	4b0e      	ldr	r3, [pc, #56]	; (2388 <clk_init+0x50>)
    234e:	4298      	cmp	r0, r3
    2350:	d115      	bne.n	237e <clk_init+0x46>
		struct nrf_clock_control_data *data = dev->data;

		z_nrf_clock_calibration_init(data->mgr);
	}

	nrfx_clock_enable();
    2352:	f004 fa54 	bl	67fe <nrfx_clock_enable>
	struct nrf_clock_control_data *data = dev->data;
    2356:	6926      	ldr	r6, [r4, #16]
	for (enum clock_control_nrf_type i = 0;
		i < CLOCK_CONTROL_NRF_TYPE_COUNT; i++) {
		struct nrf_clock_control_sub_data *subdata =
						get_sub_data(dev, i);

		err = onoff_manager_init(get_onoff_manager(dev, i),
    2358:	490c      	ldr	r1, [pc, #48]	; (238c <clk_init+0x54>)
    235a:	4630      	mov	r0, r6
    235c:	f003 fde8 	bl	5f30 <onoff_manager_init>
					 &transitions);
		if (err < 0) {
    2360:	2800      	cmp	r0, #0
    2362:	db0b      	blt.n	237c <clk_init+0x44>
			return err;
		}

		subdata->flags = CLOCK_CONTROL_STATUS_OFF;
    2364:	2501      	movs	r5, #1
    2366:	6435      	str	r5, [r6, #64]	; 0x40
	struct nrf_clock_control_data *data = dev->data;
    2368:	6924      	ldr	r4, [r4, #16]
		err = onoff_manager_init(get_onoff_manager(dev, i),
    236a:	4908      	ldr	r1, [pc, #32]	; (238c <clk_init+0x54>)
    236c:	f104 001c 	add.w	r0, r4, #28
    2370:	f003 fdde 	bl	5f30 <onoff_manager_init>
		if (err < 0) {
    2374:	2800      	cmp	r0, #0
    2376:	db01      	blt.n	237c <clk_init+0x44>
	}

	return 0;
    2378:	2000      	movs	r0, #0
		subdata->flags = CLOCK_CONTROL_STATUS_OFF;
    237a:	64e5      	str	r5, [r4, #76]	; 0x4c
}
    237c:	bd70      	pop	{r4, r5, r6, pc}
		return -EIO;
    237e:	f06f 0004 	mvn.w	r0, #4
    2382:	e7fb      	b.n	237c <clk_init+0x44>
    2384:	000023c5 	.word	0x000023c5
    2388:	0bad0000 	.word	0x0bad0000
    238c:	00006d74 	.word	0x00006d74

00002390 <clkstarted_handle.constprop.0>:
static void clkstarted_handle(const struct device *dev,
    2390:	4601      	mov	r1, r0
	clock_control_cb_t callback = sub_data->cb;
    2392:	230c      	movs	r3, #12
	sub_data->cb = NULL;
    2394:	2200      	movs	r2, #0
static void clkstarted_handle(const struct device *dev,
    2396:	b570      	push	{r4, r5, r6, lr}
	clock_control_cb_t callback = sub_data->cb;
    2398:	434b      	muls	r3, r1
    239a:	4808      	ldr	r0, [pc, #32]	; (23bc <clkstarted_handle.constprop.0+0x2c>)
    239c:	18c4      	adds	r4, r0, r3
	set_on_state(&sub_data->flags);
    239e:	3340      	adds	r3, #64	; 0x40
	void *user_data = sub_data->user_data;
    23a0:	e9d4 560e 	ldrd	r5, r6, [r4, #56]	; 0x38
	set_on_state(&sub_data->flags);
    23a4:	4418      	add	r0, r3
	sub_data->cb = NULL;
    23a6:	63a2      	str	r2, [r4, #56]	; 0x38
	set_on_state(&sub_data->flags);
    23a8:	f003 ff15 	bl	61d6 <set_on_state>
	if (callback) {
    23ac:	b12d      	cbz	r5, 23ba <clkstarted_handle.constprop.0+0x2a>
		callback(dev, (clock_control_subsys_t)type, user_data);
    23ae:	4632      	mov	r2, r6
    23b0:	462b      	mov	r3, r5
}
    23b2:	e8bd 4070 	ldmia.w	sp!, {r4, r5, r6, lr}
		callback(dev, (clock_control_subsys_t)type, user_data);
    23b6:	4802      	ldr	r0, [pc, #8]	; (23c0 <clkstarted_handle.constprop.0+0x30>)
    23b8:	4718      	bx	r3
}
    23ba:	bd70      	pop	{r4, r5, r6, pc}
    23bc:	20000e4c 	.word	0x20000e4c
    23c0:	00006998 	.word	0x00006998

000023c4 <clock_event_handler>:
	switch (event) {
    23c4:	b110      	cbz	r0, 23cc <clock_event_handler+0x8>
    23c6:	2801      	cmp	r0, #1
    23c8:	d004      	beq.n	23d4 <clock_event_handler+0x10>
    23ca:	4770      	bx	lr
		if (GET_STATUS(data->flags) == CLOCK_CONTROL_STATUS_STARTING) {
    23cc:	4b03      	ldr	r3, [pc, #12]	; (23dc <clock_event_handler+0x18>)
    23ce:	6c1b      	ldr	r3, [r3, #64]	; 0x40
    23d0:	075b      	lsls	r3, r3, #29
    23d2:	d101      	bne.n	23d8 <clock_event_handler+0x14>
		clkstarted_handle(dev, CLOCK_CONTROL_NRF_TYPE_LFCLK);
    23d4:	f7ff bfdc 	b.w	2390 <clkstarted_handle.constprop.0>
}
    23d8:	4770      	bx	lr
    23da:	bf00      	nop
    23dc:	20000e4c 	.word	0x20000e4c

000023e0 <generic_hfclk_start>:
{
    23e0:	b508      	push	{r3, lr}
	__asm__ volatile(
    23e2:	f04f 0320 	mov.w	r3, #32
    23e6:	f3ef 8111 	mrs	r1, BASEPRI
    23ea:	f383 8812 	msr	BASEPRI_MAX, r3
    23ee:	f3bf 8f6f 	isb	sy
	hfclk_users |= HF_USER_GENERIC;
    23f2:	4a12      	ldr	r2, [pc, #72]	; (243c <generic_hfclk_start+0x5c>)
    23f4:	6813      	ldr	r3, [r2, #0]
    23f6:	f043 0002 	orr.w	r0, r3, #2
    23fa:	6010      	str	r0, [r2, #0]
	if (hfclk_users & HF_USER_BT) {
    23fc:	07da      	lsls	r2, r3, #31
    23fe:	d408      	bmi.n	2412 <generic_hfclk_start+0x32>
	__asm__ volatile(
    2400:	f381 8811 	msr	BASEPRI, r1
    2404:	f3bf 8f6f 	isb	sy
}
    2408:	e8bd 4008 	ldmia.w	sp!, {r3, lr}
    nrfx_clock_start(NRF_CLOCK_DOMAIN_HFCLK);
    240c:	2001      	movs	r0, #1
    240e:	f004 ba04 	b.w	681a <nrfx_clock_start>
            break;
        case NRF_CLOCK_DOMAIN_HFCLK:
            if (p_clk_src != NULL)
            {
                (*(nrf_clock_hfclk_t *)p_clk_src) =
                    (nrf_clock_hfclk_t)((p_reg->HFCLKSTAT & CLOCK_HFCLKSTAT_SRC_Msk)
    2412:	f04f 2350 	mov.w	r3, #1342197760	; 0x50005000
    2416:	f8d3 240c 	ldr.w	r2, [r3, #1036]	; 0x40c
                                        >> CLOCK_HFCLKSTAT_SRC_Pos);
            }
            if ((p_reg->HFCLKSTAT & CLOCK_HFCLKSTAT_STATE_Msk)
    241a:	f8d3 340c 	ldr.w	r3, [r3, #1036]	; 0x40c
		if (type == NRF_CLOCK_HFCLK_HIGH_ACCURACY) {
    241e:	07d3      	lsls	r3, r2, #31
    2420:	d5ee      	bpl.n	2400 <generic_hfclk_start+0x20>
			set_on_state(get_hf_flags());
    2422:	4807      	ldr	r0, [pc, #28]	; (2440 <generic_hfclk_start+0x60>)
    2424:	f003 fed7 	bl	61d6 <set_on_state>
    2428:	f381 8811 	msr	BASEPRI, r1
    242c:	f3bf 8f6f 	isb	sy
}
    2430:	e8bd 4008 	ldmia.w	sp!, {r3, lr}
		clkstarted_handle(CLOCK_DEVICE,
    2434:	2000      	movs	r0, #0
    2436:	f7ff bfab 	b.w	2390 <clkstarted_handle.constprop.0>
    243a:	bf00      	nop
    243c:	20000e9c 	.word	0x20000e9c
    2440:	20000e8c 	.word	0x20000e8c

00002444 <z_nrf_clock_control_lf_on>:
{
    2444:	e92d 43f8 	stmdb	sp!, {r3, r4, r5, r6, r7, r8, r9, lr}
{
	/* This builtin, as described by Intel, is not a traditional
	 * test-and-set operation, but rather an atomic exchange operation. It
	 * writes value into *ptr, and returns the previous contents of *ptr.
	 */
	return __atomic_exchange_n(target, value, __ATOMIC_SEQ_CST);
    2448:	2201      	movs	r2, #1
    244a:	4607      	mov	r7, r0
    244c:	4934      	ldr	r1, [pc, #208]	; (2520 <z_nrf_clock_control_lf_on+0xdc>)
    244e:	e8d1 3fef 	ldaex	r3, [r1]
    2452:	e8c1 2fe0 	stlex	r0, r2, [r1]
    2456:	2800      	cmp	r0, #0
    2458:	d1f9      	bne.n	244e <z_nrf_clock_control_lf_on+0xa>
	if (atomic_set(&on, 1) == 0) {
    245a:	b933      	cbnz	r3, 246a <z_nrf_clock_control_lf_on+0x26>
 */
static inline void sys_notify_init_spinwait(struct sys_notify *notify)
{
	__ASSERT_NO_MSG(notify != NULL);

	*notify = (struct sys_notify){
    245c:	4931      	ldr	r1, [pc, #196]	; (2524 <z_nrf_clock_control_lf_on+0xe0>)
		err = onoff_request(mgr, &cli);
    245e:	4832      	ldr	r0, [pc, #200]	; (2528 <z_nrf_clock_control_lf_on+0xe4>)
    2460:	604b      	str	r3, [r1, #4]
    2462:	60cb      	str	r3, [r1, #12]
    2464:	608a      	str	r2, [r1, #8]
    2466:	f003 fd76 	bl	5f56 <onoff_request>
	switch (start_mode) {
    246a:	1e7b      	subs	r3, r7, #1
    246c:	2b01      	cmp	r3, #1
    246e:	d82d      	bhi.n	24cc <z_nrf_clock_control_lf_on+0x88>
	if ((mode == CLOCK_CONTROL_NRF_LF_START_AVAILABLE) &&
    2470:	2f01      	cmp	r7, #1
    2472:	d107      	bne.n	2484 <z_nrf_clock_control_lf_on+0x40>
    return clk_src;
}

NRF_STATIC_INLINE nrf_clock_lfclk_t nrf_clock_lf_srccopy_get(NRF_CLOCK_Type const * p_reg)
{
    return (nrf_clock_lfclk_t)((p_reg->LFCLKSRCCOPY & CLOCK_LFCLKSRCCOPY_SRC_Msk)
    2474:	f04f 2350 	mov.w	r3, #1342197760	; 0x50005000
    2478:	f8d3 341c 	ldr.w	r3, [r3, #1052]	; 0x41c
	    (target_type == NRF_CLOCK_LFCLK_Xtal) &&
    247c:	f003 0303 	and.w	r3, r3, #3
    2480:	2b02      	cmp	r3, #2
    2482:	d023      	beq.n	24cc <z_nrf_clock_control_lf_on+0x88>
	bool isr_mode = k_is_in_isr() || k_is_pre_kernel();
    2484:	f004 fa24 	bl	68d0 <k_is_in_isr>
    2488:	4605      	mov	r5, r0
    248a:	bb08      	cbnz	r0, 24d0 <z_nrf_clock_control_lf_on+0x8c>
	return !z_sys_post_kernel;
    248c:	4b27      	ldr	r3, [pc, #156]	; (252c <z_nrf_clock_control_lf_on+0xe8>)
    248e:	781b      	ldrb	r3, [r3, #0]
    2490:	b1f3      	cbz	r3, 24d0 <z_nrf_clock_control_lf_on+0x8c>
    p_reg->INTENCLR = mask;
    2492:	f04f 2350 	mov.w	r3, #1342197760	; 0x50005000
    2496:	2202      	movs	r2, #2
	int key = isr_mode ? irq_lock() : 0;
    2498:	4606      	mov	r6, r0
    249a:	f8c3 2308 	str.w	r2, [r3, #776]	; 0x308
                    (nrf_clock_lfclk_t)((p_reg->LFCLKSTAT & CLOCK_LFCLKSTAT_SRC_Msk)
    249e:	f04f 2450 	mov.w	r4, #1342197760	; 0x50005000
    *((volatile uint32_t *)((uint8_t *)p_reg + (uint32_t)event)) = 0x0UL;
    24a2:	f04f 0800 	mov.w	r8, #0
    NVIC->ICPR[(((uint32_t)IRQn) >> 5UL)] = (uint32_t)(1UL << (((uint32_t)IRQn) & 0x1FUL));
    24a6:	f8df 9088 	ldr.w	r9, [pc, #136]	; 2530 <z_nrf_clock_control_lf_on+0xec>
                    (nrf_clock_lfclk_t)((p_reg->LFCLKSTAT & CLOCK_LFCLKSTAT_SRC_Msk)
    24aa:	f8d4 3418 	ldr.w	r3, [r4, #1048]	; 0x418
            if ((p_reg->LFCLKSTAT & CLOCK_LFCLKSTAT_STATE_Msk)
    24ae:	f8d4 2418 	ldr.w	r2, [r4, #1048]	; 0x418
    24b2:	03d2      	lsls	r2, r2, #15
    24b4:	d516      	bpl.n	24e4 <z_nrf_clock_control_lf_on+0xa0>
	while (!(nrfx_clock_is_running(d, (void *)&type)
    24b6:	f003 0303 	and.w	r3, r3, #3
    24ba:	2b02      	cmp	r3, #2
    24bc:	d001      	beq.n	24c2 <z_nrf_clock_control_lf_on+0x7e>
		     || (mode == CLOCK_CONTROL_NRF_LF_START_AVAILABLE)))) {
    24be:	2f01      	cmp	r7, #1
    24c0:	d110      	bne.n	24e4 <z_nrf_clock_control_lf_on+0xa0>
	if (isr_mode) {
    24c2:	b33d      	cbz	r5, 2514 <z_nrf_clock_control_lf_on+0xd0>
    24c4:	f386 8811 	msr	BASEPRI, r6
    24c8:	f3bf 8f6f 	isb	sy
}
    24cc:	e8bd 83f8 	ldmia.w	sp!, {r3, r4, r5, r6, r7, r8, r9, pc}
	__asm__ volatile(
    24d0:	f04f 0320 	mov.w	r3, #32
    24d4:	f3ef 8611 	mrs	r6, BASEPRI
    24d8:	f383 8812 	msr	BASEPRI_MAX, r3
    24dc:	f3bf 8f6f 	isb	sy
	bool isr_mode = k_is_in_isr() || k_is_pre_kernel();
    24e0:	2501      	movs	r5, #1
    24e2:	e7dc      	b.n	249e <z_nrf_clock_control_lf_on+0x5a>
 *
 * @param key Interrupt locking key obtained from irq_lock().
 */
static inline void k_cpu_atomic_idle(unsigned int key)
{
	arch_cpu_atomic_idle(key);
    24e4:	4630      	mov	r0, r6
    24e6:	f7ff fb6d 	bl	1bc4 <arch_cpu_atomic_idle>
    return (nrf_clock_lfclk_t)(p_reg->LFCLKSRC);
    24ea:	f8d4 3518 	ldr.w	r3, [r4, #1304]	; 0x518
		if ((target_type ==  NRF_CLOCK_LFCLK_Xtal)
    24ee:	b2db      	uxtb	r3, r3
    24f0:	2b01      	cmp	r3, #1
    24f2:	d1da      	bne.n	24aa <z_nrf_clock_control_lf_on+0x66>
    return (bool)*((volatile uint32_t *)((uint8_t *)p_reg + event));
    24f4:	f8d4 2104 	ldr.w	r2, [r4, #260]	; 0x104
		    && nrf_clock_event_check(NRF_CLOCK,
    24f8:	2a00      	cmp	r2, #0
    24fa:	d0d6      	beq.n	24aa <z_nrf_clock_control_lf_on+0x66>
    *((volatile uint32_t *)((uint8_t *)p_reg + (uint32_t)event)) = 0x0UL;
    24fc:	f8c4 8104 	str.w	r8, [r4, #260]	; 0x104
#ifndef NRF_DECLARE_ONLY

NRF_STATIC_INLINE void nrf_event_readback(void * p_event_reg)
{
#if NRFX_CHECK(NRFX_EVENT_READBACK_ENABLED) && !defined(NRF51)
    (void)*((volatile uint32_t *)(p_event_reg));
    2500:	f8d4 2104 	ldr.w	r2, [r4, #260]	; 0x104
    p_reg->LFCLKSRC = (uint32_t)(source);
    2504:	2202      	movs	r2, #2
    2506:	f8c4 2518 	str.w	r2, [r4, #1304]	; 0x518
    250a:	2220      	movs	r2, #32
    250c:	f8c9 2180 	str.w	r2, [r9, #384]	; 0x180
    *((volatile uint32_t *)((uint8_t *)p_reg + (uint32_t)task)) = 0x1UL;
    2510:	60a3      	str	r3, [r4, #8]
}
    2512:	e7ca      	b.n	24aa <z_nrf_clock_control_lf_on+0x66>
    p_reg->INTENSET = mask;
    2514:	f04f 2350 	mov.w	r3, #1342197760	; 0x50005000
    2518:	2202      	movs	r2, #2
    251a:	f8c3 2304 	str.w	r2, [r3, #772]	; 0x304
}
    251e:	e7d5      	b.n	24cc <z_nrf_clock_control_lf_on+0x88>
    2520:	20000e48 	.word	0x20000e48
    2524:	20000e38 	.word	0x20000e38
    2528:	20000e68 	.word	0x20000e68
    252c:	20000fe9 	.word	0x20000fe9
    2530:	e000e100 	.word	0xe000e100

00002534 <uart_console_init>:
 * @brief Initialize one UART as the console/debug port
 *
 * @return 0 if successful, otherwise failed.
 */
static int uart_console_init(const struct device *arg)
{
    2534:	b508      	push	{r3, lr}
    2536:	4807      	ldr	r0, [pc, #28]	; (2554 <uart_console_init+0x20>)
    2538:	f004 f9bb 	bl	68b2 <z_device_is_ready>

	ARG_UNUSED(arg);

	if (!device_is_ready(uart_console_dev)) {
    253c:	b138      	cbz	r0, 254e <uart_console_init+0x1a>
	__stdout_hook_install(console_out);
    253e:	4806      	ldr	r0, [pc, #24]	; (2558 <uart_console_init+0x24>)
    2540:	f7ff fea0 	bl	2284 <__stdout_hook_install>
	__printk_hook_install(console_out);
    2544:	4804      	ldr	r0, [pc, #16]	; (2558 <uart_console_init+0x24>)
    2546:	f7fe ff55 	bl	13f4 <__printk_hook_install>
		return -ENODEV;
	}

	uart_console_hook_install();

	return 0;
    254a:	2000      	movs	r0, #0
}
    254c:	bd08      	pop	{r3, pc}
		return -ENODEV;
    254e:	f06f 0012 	mvn.w	r0, #18
    2552:	e7fb      	b.n	254c <uart_console_init+0x18>
    2554:	000069e0 	.word	0x000069e0
    2558:	0000255d 	.word	0x0000255d

0000255c <console_out>:
	if ('\n' == c) {
    255c:	280a      	cmp	r0, #10
{
    255e:	b538      	push	{r3, r4, r5, lr}
    2560:	4604      	mov	r4, r0
    2562:	4d07      	ldr	r5, [pc, #28]	; (2580 <console_out+0x24>)
	if ('\n' == c) {
    2564:	d104      	bne.n	2570 <console_out+0x14>
					unsigned char out_char)
{
	const struct uart_driver_api *api =
		(const struct uart_driver_api *)dev->api;

	api->poll_out(dev, out_char);
    2566:	68ab      	ldr	r3, [r5, #8]
    2568:	210d      	movs	r1, #13
    256a:	4628      	mov	r0, r5
    256c:	685b      	ldr	r3, [r3, #4]
    256e:	4798      	blx	r3
    2570:	68ab      	ldr	r3, [r5, #8]
    2572:	4803      	ldr	r0, [pc, #12]	; (2580 <console_out+0x24>)
    2574:	685b      	ldr	r3, [r3, #4]
    2576:	b2e1      	uxtb	r1, r4
    2578:	4798      	blx	r3
}
    257a:	4620      	mov	r0, r4
    257c:	bd38      	pop	{r3, r4, r5, pc}
    257e:	bf00      	nop
    2580:	000069e0 	.word	0x000069e0

00002584 <gpio_nrfx_pin_interrupt_configure>:

static int gpio_nrfx_pin_interrupt_configure(const struct device *port,
					     gpio_pin_t pin,
					     enum gpio_int_mode mode,
					     enum gpio_int_trig trig)
{
    2584:	b530      	push	{r4, r5, lr}
	return port->config;
    2586:	6840      	ldr	r0, [r0, #4]
	uint32_t abs_pin = NRF_GPIO_PIN_MAP(get_port_cfg(port)->port_num, pin);
    2588:	f001 041f 	and.w	r4, r1, #31
    258c:	7b05      	ldrb	r5, [r0, #12]
	nrfx_err_t err;
	uint8_t ch;

	if (mode == GPIO_INT_MODE_DISABLED) {
    258e:	f5b2 1f00 	cmp.w	r2, #2097152	; 0x200000
{
    2592:	b085      	sub	sp, #20
	uint32_t abs_pin = NRF_GPIO_PIN_MAP(get_port_cfg(port)->port_num, pin);
    2594:	ea44 1445 	orr.w	r4, r4, r5, lsl #5
	if (mode == GPIO_INT_MODE_DISABLED) {
    2598:	d105      	bne.n	25a6 <gpio_nrfx_pin_interrupt_configure+0x22>
		nrfx_gpiote_trigger_disable(abs_pin);
    259a:	4620      	mov	r0, r4
    259c:	f001 fa74 	bl	3a88 <nrfx_gpiote_trigger_disable>

		return 0;
    25a0:	2000      	movs	r0, #0
	}

	nrfx_gpiote_trigger_enable(abs_pin, true);

	return 0;
}
    25a2:	b005      	add	sp, #20
    25a4:	bd30      	pop	{r4, r5, pc}
	nrfx_gpiote_trigger_config_t trigger_config = {
    25a6:	2500      	movs	r5, #0
	if (mode == GPIO_INT_MODE_LEVEL) {
    25a8:	f5b2 0f80 	cmp.w	r2, #4194304	; 0x400000
	nrfx_gpiote_trigger_config_t trigger_config = {
    25ac:	e9cd 5502 	strd	r5, r5, [sp, #8]
	if (mode == GPIO_INT_MODE_LEVEL) {
    25b0:	d114      	bne.n	25dc <gpio_nrfx_pin_interrupt_configure+0x58>
		return trig == GPIO_INT_TRIG_LOW ? NRFX_GPIOTE_TRIGGER_LOW :
    25b2:	f1b3 7f00 	cmp.w	r3, #33554432	; 0x2000000
	nrfx_gpiote_trigger_config_t trigger_config = {
    25b6:	bf0c      	ite	eq
    25b8:	2304      	moveq	r3, #4
    25ba:	2305      	movne	r3, #5
    25bc:	f88d 3008 	strb.w	r3, [sp, #8]
	err = nrfx_gpiote_input_configure(abs_pin, NULL, &trigger_config, NULL);
    25c0:	2300      	movs	r3, #0
    25c2:	4620      	mov	r0, r4
    25c4:	4619      	mov	r1, r3
    25c6:	aa02      	add	r2, sp, #8
    25c8:	f001 f894 	bl	36f4 <nrfx_gpiote_input_configure>
	if (err != NRFX_SUCCESS) {
    25cc:	4b1c      	ldr	r3, [pc, #112]	; (2640 <gpio_nrfx_pin_interrupt_configure+0xbc>)
    25ce:	4298      	cmp	r0, r3
    25d0:	d133      	bne.n	263a <gpio_nrfx_pin_interrupt_configure+0xb6>
	nrfx_gpiote_trigger_enable(abs_pin, true);
    25d2:	2101      	movs	r1, #1
    25d4:	4620      	mov	r0, r4
    25d6:	f001 fa13 	bl	3a00 <nrfx_gpiote_trigger_enable>
	return 0;
    25da:	e7e1      	b.n	25a0 <gpio_nrfx_pin_interrupt_configure+0x1c>
	return trig == GPIO_INT_TRIG_BOTH ? NRFX_GPIOTE_TRIGGER_TOGGLE :
    25dc:	f1b3 6fc0 	cmp.w	r3, #100663296	; 0x6000000
    25e0:	d020      	beq.n	2624 <gpio_nrfx_pin_interrupt_configure+0xa0>
    25e2:	f1b3 7f00 	cmp.w	r3, #33554432	; 0x2000000
    25e6:	bf14      	ite	ne
    25e8:	2301      	movne	r3, #1
    25ea:	2302      	moveq	r3, #2
	nrfx_gpiote_trigger_config_t trigger_config = {
    25ec:	f88d 3008 	strb.w	r3, [sp, #8]
	if (!(BIT(pin) & get_port_cfg(port)->edge_sense) &&
    25f0:	6883      	ldr	r3, [r0, #8]
    25f2:	40cb      	lsrs	r3, r1
    25f4:	07d9      	lsls	r1, r3, #31
    25f6:	d4e3      	bmi.n	25c0 <gpio_nrfx_pin_interrupt_configure+0x3c>
    25f8:	f1b2 7fa0 	cmp.w	r2, #20971520	; 0x1400000
    25fc:	d1e0      	bne.n	25c0 <gpio_nrfx_pin_interrupt_configure+0x3c>

NRF_STATIC_INLINE nrf_gpio_pin_dir_t nrf_gpio_pin_dir_get(uint32_t pin_number)
{
    NRF_GPIO_Type * reg = nrf_gpio_pin_port_decode(&pin_number);

    return (nrf_gpio_pin_dir_t)((reg->PIN_CNF[pin_number] &
    25fe:	4a11      	ldr	r2, [pc, #68]	; (2644 <gpio_nrfx_pin_interrupt_configure+0xc0>)
}

NRF_STATIC_INLINE uint32_t nrf_gpio_pin_port_number_extract(uint32_t * p_pin)
{
    uint32_t pin_number = *p_pin;
    *p_pin = pin_number & 0x1F;
    2600:	f004 031f 	and.w	r3, r4, #31
    return (nrf_gpio_pin_dir_t)((reg->PIN_CNF[pin_number] &
    2604:	3380      	adds	r3, #128	; 0x80
    2606:	f852 3023 	ldr.w	r3, [r2, r3, lsl #2]
	    (mode == GPIO_INT_MODE_EDGE) &&
    260a:	07db      	lsls	r3, r3, #31
    260c:	d4d8      	bmi.n	25c0 <gpio_nrfx_pin_interrupt_configure+0x3c>
		err = nrfx_gpiote_channel_get(abs_pin, &ch);
    260e:	f10d 0507 	add.w	r5, sp, #7
    2612:	4629      	mov	r1, r5
    2614:	4620      	mov	r0, r4
    2616:	f001 f99f 	bl	3958 <nrfx_gpiote_channel_get>
		if (err == NRFX_ERROR_INVALID_PARAM) {
    261a:	4b0b      	ldr	r3, [pc, #44]	; (2648 <gpio_nrfx_pin_interrupt_configure+0xc4>)
    261c:	4298      	cmp	r0, r3
    261e:	d003      	beq.n	2628 <gpio_nrfx_pin_interrupt_configure+0xa4>
		trigger_config.p_in_channel = &ch;
    2620:	9503      	str	r5, [sp, #12]
    2622:	e7cd      	b.n	25c0 <gpio_nrfx_pin_interrupt_configure+0x3c>
	return trig == GPIO_INT_TRIG_BOTH ? NRFX_GPIOTE_TRIGGER_TOGGLE :
    2624:	2303      	movs	r3, #3
    2626:	e7e1      	b.n	25ec <gpio_nrfx_pin_interrupt_configure+0x68>
			err = nrfx_gpiote_channel_alloc(&ch);
    2628:	4628      	mov	r0, r5
    262a:	f001 f9e3 	bl	39f4 <nrfx_gpiote_channel_alloc>
			if (err != NRFX_SUCCESS) {
    262e:	4b04      	ldr	r3, [pc, #16]	; (2640 <gpio_nrfx_pin_interrupt_configure+0xbc>)
    2630:	4298      	cmp	r0, r3
    2632:	d0f5      	beq.n	2620 <gpio_nrfx_pin_interrupt_configure+0x9c>
				return -ENOMEM;
    2634:	f06f 000b 	mvn.w	r0, #11
    2638:	e7b3      	b.n	25a2 <gpio_nrfx_pin_interrupt_configure+0x1e>
		return -EINVAL;
    263a:	f06f 0015 	mvn.w	r0, #21
    263e:	e7b0      	b.n	25a2 <gpio_nrfx_pin_interrupt_configure+0x1e>
    2640:	0bad0000 	.word	0x0bad0000
    2644:	50842500 	.word	0x50842500
    2648:	0bad0004 	.word	0x0bad0004

0000264c <gpio_nrfx_init>:
}

#define GPIOTE_NODE DT_INST(0, nordic_nrf_gpiote)

static int gpio_nrfx_init(const struct device *port)
{
    264c:	b510      	push	{r4, lr}
	nrfx_err_t err;

	if (nrfx_gpiote_is_init()) {
    264e:	f001 f9c1 	bl	39d4 <nrfx_gpiote_is_init>
    2652:	4604      	mov	r4, r0
    2654:	b968      	cbnz	r0, 2672 <gpio_nrfx_init+0x26>
		return 0;
	}

	err = nrfx_gpiote_init(0/*not used*/);
    2656:	f001 f995 	bl	3984 <nrfx_gpiote_init>
	if (err != NRFX_SUCCESS) {
    265a:	4b08      	ldr	r3, [pc, #32]	; (267c <gpio_nrfx_init+0x30>)
    265c:	4298      	cmp	r0, r3
    265e:	d10a      	bne.n	2676 <gpio_nrfx_init+0x2a>
		return -EIO;
	}

	nrfx_gpiote_global_callback_set(nrfx_gpio_handler, NULL);
    2660:	4621      	mov	r1, r4
    2662:	4807      	ldr	r0, [pc, #28]	; (2680 <gpio_nrfx_init+0x34>)
    2664:	f001 f972 	bl	394c <nrfx_gpiote_global_callback_set>

	IRQ_CONNECT(DT_IRQN(GPIOTE_NODE), DT_IRQ(GPIOTE_NODE, priority),
    2668:	4622      	mov	r2, r4
    266a:	2105      	movs	r1, #5
    266c:	200d      	movs	r0, #13
    266e:	f7ff faff 	bl	1c70 <z_arm_irq_priority_set>
		return 0;
    2672:	2000      	movs	r0, #0
		    nrfx_isr, nrfx_gpiote_irq_handler, 0);

	return 0;
}
    2674:	bd10      	pop	{r4, pc}
		return -EIO;
    2676:	f06f 0004 	mvn.w	r0, #4
    267a:	e7fb      	b.n	2674 <gpio_nrfx_init+0x28>
    267c:	0bad0000 	.word	0x0bad0000
    2680:	00002685 	.word	0x00002685

00002684 <nrfx_gpio_handler>:
	DT_INST_FOREACH_STATUS_OKAY(GPIO_NRF_GET_DEV)
    2684:	0943      	lsrs	r3, r0, #5
{
    2686:	b570      	push	{r4, r5, r6, lr}
	DT_INST_FOREACH_STATUS_OKAY(GPIO_NRF_GET_DEV)
    2688:	d107      	bne.n	269a <nrfx_gpio_handler+0x16>
	return list->head;
    268a:	4b0b      	ldr	r3, [pc, #44]	; (26b8 <nrfx_gpio_handler+0x34>)
    268c:	6859      	ldr	r1, [r3, #4]
					const struct device *port,
					uint32_t pins)
{
	struct gpio_callback *cb, *tmp;

	SYS_SLIST_FOR_EACH_CONTAINER_SAFE(list, cb, tmp, node) {
    268e:	b121      	cbz	r1, 269a <nrfx_gpio_handler+0x16>
	gpio_fire_callbacks(list, port, BIT(pin));
    2690:	2501      	movs	r5, #1
	return node->next;
    2692:	680c      	ldr	r4, [r1, #0]
		if (cb->pin_mask & pins) {
			__ASSERT(cb->handler, "No callback handler!");
			cb->handler(port, cb, cb->pin_mask & pins);
    2694:	4e09      	ldr	r6, [pc, #36]	; (26bc <nrfx_gpio_handler+0x38>)
    2696:	4085      	lsls	r5, r0
	SYS_SLIST_FOR_EACH_CONTAINER_SAFE(list, cb, tmp, node) {
    2698:	b901      	cbnz	r1, 269c <nrfx_gpio_handler+0x18>
}
    269a:	bd70      	pop	{r4, r5, r6, pc}
		if (cb->pin_mask & pins) {
    269c:	688a      	ldr	r2, [r1, #8]
    269e:	402a      	ands	r2, r5
    26a0:	d002      	beq.n	26a8 <nrfx_gpio_handler+0x24>
			cb->handler(port, cb, cb->pin_mask & pins);
    26a2:	4630      	mov	r0, r6
    26a4:	684b      	ldr	r3, [r1, #4]
    26a6:	4798      	blx	r3
	SYS_SLIST_FOR_EACH_CONTAINER_SAFE(list, cb, tmp, node) {
    26a8:	b11c      	cbz	r4, 26b2 <nrfx_gpio_handler+0x2e>
    26aa:	6823      	ldr	r3, [r4, #0]
    26ac:	4621      	mov	r1, r4
    26ae:	461c      	mov	r4, r3
    26b0:	e7f2      	b.n	2698 <nrfx_gpio_handler+0x14>
    26b2:	4623      	mov	r3, r4
    26b4:	e7fa      	b.n	26ac <nrfx_gpio_handler+0x28>
    26b6:	bf00      	nop
    26b8:	20000ea0 	.word	0x20000ea0
    26bc:	000069b0 	.word	0x000069b0

000026c0 <gpio_nrfx_pin_configure>:
{
    26c0:	e92d 41ff 	stmdb	sp!, {r0, r1, r2, r3, r4, r5, r6, r7, r8, lr}
	return port->config;
    26c4:	6847      	ldr	r7, [r0, #4]
	nrfx_gpiote_pin_t abs_pin = NRF_GPIO_PIN_MAP(cfg->port_num, pin);
    26c6:	f001 051f 	and.w	r5, r1, #31
    26ca:	7b3b      	ldrb	r3, [r7, #12]
{
    26cc:	4614      	mov	r4, r2
	nrfx_gpiote_pin_t abs_pin = NRF_GPIO_PIN_MAP(cfg->port_num, pin);
    26ce:	ea45 1543 	orr.w	r5, r5, r3, lsl #5
{
    26d2:	460e      	mov	r6, r1
	err = nrfx_gpiote_channel_get(abs_pin, &ch);
    26d4:	4628      	mov	r0, r5
    26d6:	f10d 0103 	add.w	r1, sp, #3
    26da:	f001 f93d 	bl	3958 <nrfx_gpiote_channel_get>
	if ((flags & (GPIO_INPUT | GPIO_OUTPUT)) == GPIO_DISCONNECTED) {
    26de:	f414 3f40 	tst.w	r4, #196608	; 0x30000
	err = nrfx_gpiote_channel_get(abs_pin, &ch);
    26e2:	4680      	mov	r8, r0
	if ((flags & (GPIO_INPUT | GPIO_OUTPUT)) == GPIO_DISCONNECTED) {
    26e4:	d10b      	bne.n	26fe <gpio_nrfx_pin_configure+0x3e>
		(void)nrfx_gpiote_pin_uninit(abs_pin);
    26e6:	4628      	mov	r0, r5
    26e8:	f001 f9f6 	bl	3ad8 <nrfx_gpiote_pin_uninit>
		if (free_ch) {
    26ec:	4b3c      	ldr	r3, [pc, #240]	; (27e0 <gpio_nrfx_pin_configure+0x120>)
    26ee:	4598      	cmp	r8, r3
    26f0:	d103      	bne.n	26fa <gpio_nrfx_pin_configure+0x3a>
			err = nrfx_gpiote_channel_free(ch);
    26f2:	f89d 0003 	ldrb.w	r0, [sp, #3]
    26f6:	f001 f977 	bl	39e8 <nrfx_gpiote_channel_free>
		return 0;
    26fa:	2000      	movs	r0, #0
    26fc:	e00c      	b.n	2718 <gpio_nrfx_pin_configure+0x58>
	nrfx_gpiote_trigger_config_t trigger_config = {
    26fe:	2300      	movs	r3, #0
	err = nrfx_gpiote_input_configure(abs_pin, NULL, &trigger_config, NULL);
    2700:	4628      	mov	r0, r5
    2702:	4619      	mov	r1, r3
    2704:	aa02      	add	r2, sp, #8
	nrfx_gpiote_trigger_config_t trigger_config = {
    2706:	e9cd 3302 	strd	r3, r3, [sp, #8]
	err = nrfx_gpiote_input_configure(abs_pin, NULL, &trigger_config, NULL);
    270a:	f000 fff3 	bl	36f4 <nrfx_gpiote_input_configure>
	if (err != NRFX_SUCCESS) {
    270e:	4b34      	ldr	r3, [pc, #208]	; (27e0 <gpio_nrfx_pin_configure+0x120>)
    2710:	4298      	cmp	r0, r3
    2712:	d004      	beq.n	271e <gpio_nrfx_pin_configure+0x5e>
		return NRF_GPIO_PIN_PULLUP;
    2714:	f06f 0015 	mvn.w	r0, #21
}
    2718:	b004      	add	sp, #16
    271a:	e8bd 81f0 	ldmia.w	sp!, {r4, r5, r6, r7, r8, pc}
	if (free_ch) {
    271e:	4580      	cmp	r8, r0
    2720:	d103      	bne.n	272a <gpio_nrfx_pin_configure+0x6a>
		err = nrfx_gpiote_channel_free(ch);
    2722:	f89d 0003 	ldrb.w	r0, [sp, #3]
    2726:	f001 f95f 	bl	39e8 <nrfx_gpiote_channel_free>
	if (flags & GPIO_OUTPUT) {
    272a:	03a3      	lsls	r3, r4, #14
    272c:	d549      	bpl.n	27c2 <gpio_nrfx_pin_configure+0x102>
	switch (flags & (NRF_GPIO_DRIVE_MSK | GPIO_OPEN_DRAIN)) {
    272e:	f240 3306 	movw	r3, #774	; 0x306
    2732:	4023      	ands	r3, r4
    2734:	f5b3 7f83 	cmp.w	r3, #262	; 0x106
    2738:	d019      	beq.n	276e <gpio_nrfx_pin_configure+0xae>
    273a:	d80c      	bhi.n	2756 <gpio_nrfx_pin_configure+0x96>
    273c:	2b06      	cmp	r3, #6
    273e:	d017      	beq.n	2770 <gpio_nrfx_pin_configure+0xb0>
    2740:	d804      	bhi.n	274c <gpio_nrfx_pin_configure+0x8c>
    2742:	b1ab      	cbz	r3, 2770 <gpio_nrfx_pin_configure+0xb0>
    2744:	2b02      	cmp	r3, #2
    2746:	d1e5      	bne.n	2714 <gpio_nrfx_pin_configure+0x54>
		*drive = NRF_GPIO_PIN_D0S1;
    2748:	2304      	movs	r3, #4
    274a:	e011      	b.n	2770 <gpio_nrfx_pin_configure+0xb0>
	switch (flags & (NRF_GPIO_DRIVE_MSK | GPIO_OPEN_DRAIN)) {
    274c:	f5b3 7f80 	cmp.w	r3, #256	; 0x100
    2750:	d1e0      	bne.n	2714 <gpio_nrfx_pin_configure+0x54>
		*drive = NRF_GPIO_PIN_H0S1;
    2752:	2301      	movs	r3, #1
    2754:	e00c      	b.n	2770 <gpio_nrfx_pin_configure+0xb0>
	switch (flags & (NRF_GPIO_DRIVE_MSK | GPIO_OPEN_DRAIN)) {
    2756:	f240 2202 	movw	r2, #514	; 0x202
    275a:	4293      	cmp	r3, r2
    275c:	d026      	beq.n	27ac <gpio_nrfx_pin_configure+0xec>
    275e:	f5b3 7f40 	cmp.w	r3, #768	; 0x300
    2762:	d025      	beq.n	27b0 <gpio_nrfx_pin_configure+0xf0>
    2764:	f5b3 7f00 	cmp.w	r3, #512	; 0x200
    2768:	d1d4      	bne.n	2714 <gpio_nrfx_pin_configure+0x54>
		*drive = NRF_GPIO_PIN_S0H1;
    276a:	2302      	movs	r3, #2
    276c:	e000      	b.n	2770 <gpio_nrfx_pin_configure+0xb0>
		*drive = NRF_GPIO_PIN_H0D1;
    276e:	2307      	movs	r3, #7
		nrfx_gpiote_output_config_t output_config = {
    2770:	f88d 3004 	strb.w	r3, [sp, #4]
				NRF_GPIO_PIN_INPUT_CONNECT :
    2774:	f484 3380 	eor.w	r3, r4, #65536	; 0x10000
    2778:	f3c3 4300 	ubfx	r3, r3, #16, #1
	if (flags & GPIO_PULL_UP) {
    277c:	06e0      	lsls	r0, r4, #27
		nrfx_gpiote_output_config_t output_config = {
    277e:	f88d 3005 	strb.w	r3, [sp, #5]
		return NRF_GPIO_PIN_PULLUP;
    2782:	bf4c      	ite	mi
    2784:	2303      	movmi	r3, #3
	} else if (flags & GPIO_PULL_DOWN) {
    2786:	f3c4 1340 	ubfxpl	r3, r4, #5, #1
		if (flags & GPIO_OUTPUT_INIT_HIGH) {
    278a:	0321      	lsls	r1, r4, #12
		nrfx_gpiote_output_config_t output_config = {
    278c:	f88d 3006 	strb.w	r3, [sp, #6]
		if (flags & GPIO_OUTPUT_INIT_HIGH) {
    2790:	d510      	bpl.n	27b4 <gpio_nrfx_pin_configure+0xf4>
			nrf_gpio_port_out_set(cfg->port, BIT(pin));
    2792:	2301      	movs	r3, #1
    2794:	687a      	ldr	r2, [r7, #4]
    2796:	40b3      	lsls	r3, r6
    p_reg->OUTSET = set_mask;
    2798:	6093      	str	r3, [r2, #8]
		err = nrfx_gpiote_output_configure(abs_pin, &output_config, NULL);
    279a:	2200      	movs	r2, #0
    279c:	4628      	mov	r0, r5
    279e:	a901      	add	r1, sp, #4
    27a0:	f001 f854 	bl	384c <nrfx_gpiote_output_configure>
	return (err != NRFX_SUCCESS) ? -EINVAL : 0;
    27a4:	4b0e      	ldr	r3, [pc, #56]	; (27e0 <gpio_nrfx_pin_configure+0x120>)
    27a6:	4298      	cmp	r0, r3
    27a8:	d0a7      	beq.n	26fa <gpio_nrfx_pin_configure+0x3a>
    27aa:	e7b3      	b.n	2714 <gpio_nrfx_pin_configure+0x54>
		*drive = NRF_GPIO_PIN_D0H1;
    27ac:	2305      	movs	r3, #5
    27ae:	e7df      	b.n	2770 <gpio_nrfx_pin_configure+0xb0>
	switch (flags & (NRF_GPIO_DRIVE_MSK | GPIO_OPEN_DRAIN)) {
    27b0:	2303      	movs	r3, #3
    27b2:	e7dd      	b.n	2770 <gpio_nrfx_pin_configure+0xb0>
		} else if (flags & GPIO_OUTPUT_INIT_LOW) {
    27b4:	0362      	lsls	r2, r4, #13
			nrf_gpio_port_out_clear(cfg->port, BIT(pin));
    27b6:	bf41      	itttt	mi
    27b8:	2301      	movmi	r3, #1
    27ba:	687a      	ldrmi	r2, [r7, #4]
    27bc:	40b3      	lslmi	r3, r6
    p_reg->OUTCLR = clr_mask;
    27be:	60d3      	strmi	r3, [r2, #12]
}
    27c0:	e7eb      	b.n	279a <gpio_nrfx_pin_configure+0xda>
	if (flags & GPIO_PULL_UP) {
    27c2:	06e3      	lsls	r3, r4, #27
	err = nrfx_gpiote_input_configure(abs_pin, &input_config, NULL, NULL);
    27c4:	f04f 0300 	mov.w	r3, #0
		return NRF_GPIO_PIN_PULLUP;
    27c8:	bf4c      	ite	mi
    27ca:	2403      	movmi	r4, #3
	} else if (flags & GPIO_PULL_DOWN) {
    27cc:	f3c4 1440 	ubfxpl	r4, r4, #5, #1
	err = nrfx_gpiote_input_configure(abs_pin, &input_config, NULL, NULL);
    27d0:	461a      	mov	r2, r3
    27d2:	4628      	mov	r0, r5
    27d4:	a901      	add	r1, sp, #4
	nrfx_gpiote_input_config_t input_config = {
    27d6:	f88d 4004 	strb.w	r4, [sp, #4]
	err = nrfx_gpiote_input_configure(abs_pin, &input_config, NULL, NULL);
    27da:	f000 ff8b 	bl	36f4 <nrfx_gpiote_input_configure>
    27de:	e7e1      	b.n	27a4 <gpio_nrfx_pin_configure+0xe4>
    27e0:	0bad0000 	.word	0x0bad0000

000027e4 <flash_nrf_pages_layout>:

static void flash_nrf_pages_layout(const struct device *dev,
				     const struct flash_pages_layout **layout,
				     size_t *layout_size)
{
	*layout = &dev_layout;
    27e4:	4b02      	ldr	r3, [pc, #8]	; (27f0 <flash_nrf_pages_layout+0xc>)
    27e6:	600b      	str	r3, [r1, #0]
	*layout_size = 1;
    27e8:	2301      	movs	r3, #1
    27ea:	6013      	str	r3, [r2, #0]
}
    27ec:	4770      	bx	lr
    27ee:	bf00      	nop
    27f0:	20000eac 	.word	0x20000eac

000027f4 <flash_nrf_get_parameters>:
flash_nrf_get_parameters(const struct device *dev)
{
	ARG_UNUSED(dev);

	return &flash_nrf_parameters;
}
    27f4:	4800      	ldr	r0, [pc, #0]	; (27f8 <flash_nrf_get_parameters+0x4>)
    27f6:	4770      	bx	lr
    27f8:	00006dfc 	.word	0x00006dfc

000027fc <nrf_flash_init>:
	.page_layout = flash_nrf_pages_layout,
#endif
};

static int nrf_flash_init(const struct device *dev)
{
    27fc:	b510      	push	{r4, lr}
#ifndef CONFIG_SOC_FLASH_NRF_RADIO_SYNC_NONE
	nrf_flash_sync_init();
#endif /* !CONFIG_SOC_FLASH_NRF_RADIO_SYNC_NONE */

#if defined(CONFIG_FLASH_PAGE_LAYOUT)
	dev_layout.pages_count = nrfx_nvmc_flash_page_count_get();
    27fe:	f004 f854 	bl	68aa <nrfx_nvmc_flash_page_count_get>
    2802:	4c03      	ldr	r4, [pc, #12]	; (2810 <CONFIG_MAIN_STACK_SIZE+0x10>)
    2804:	6020      	str	r0, [r4, #0]
	dev_layout.pages_size = nrfx_nvmc_flash_page_size_get();
    2806:	f004 f84d 	bl	68a4 <nrfx_nvmc_flash_page_size_get>
    280a:	6060      	str	r0, [r4, #4]
#endif

	return 0;
}
    280c:	2000      	movs	r0, #0
    280e:	bd10      	pop	{r4, pc}
    2810:	20000eac 	.word	0x20000eac

00002814 <flash_nrf_erase>:
{
    2814:	b5f8      	push	{r3, r4, r5, r6, r7, lr}
    2816:	460e      	mov	r6, r1
    2818:	4614      	mov	r4, r2
	uint32_t pg_size = nrfx_nvmc_flash_page_size_get();
    281a:	f004 f843 	bl	68a4 <nrfx_nvmc_flash_page_size_get>
	if (is_regular_addr_valid(addr, size)) {
    281e:	4621      	mov	r1, r4
	uint32_t pg_size = nrfx_nvmc_flash_page_size_get();
    2820:	4605      	mov	r5, r0
	if (is_regular_addr_valid(addr, size)) {
    2822:	4630      	mov	r0, r6
    2824:	f003 fdab 	bl	637e <is_regular_addr_valid>
		if (((addr % pg_size) != 0) || ((size % pg_size) != 0)) {
    2828:	4637      	mov	r7, r6
	if (is_regular_addr_valid(addr, size)) {
    282a:	b300      	cbz	r0, 286e <flash_nrf_erase+0x5a>
		if (((addr % pg_size) != 0) || ((size % pg_size) != 0)) {
    282c:	fbb6 f3f5 	udiv	r3, r6, r5
    2830:	fb05 6313 	mls	r3, r5, r3, r6
    2834:	b923      	cbnz	r3, 2840 <flash_nrf_erase+0x2c>
    2836:	fbb4 f3f5 	udiv	r3, r4, r5
    283a:	fb05 4313 	mls	r3, r5, r3, r4
    283e:	b143      	cbz	r3, 2852 <flash_nrf_erase+0x3e>
			LOG_ERR("unaligned address: 0x%08lx:%zu",
    2840:	4623      	mov	r3, r4
    2842:	4632      	mov	r2, r6
    2844:	2145      	movs	r1, #69	; 0x45
    2846:	480c      	ldr	r0, [pc, #48]	; (2878 <flash_nrf_erase+0x64>)
		LOG_ERR("invalid address: 0x%08lx:%zu",
    2848:	f003 fbfc 	bl	6044 <z_log_minimal_printk>
			return -EINVAL;
    284c:	f06f 0015 	mvn.w	r0, #21
    2850:	e002      	b.n	2858 <flash_nrf_erase+0x44>
		if (!n_pages) {
    2852:	42a5      	cmp	r5, r4
    2854:	d901      	bls.n	285a <flash_nrf_erase+0x46>
			return 0;
    2856:	2000      	movs	r0, #0
}
    2858:	bdf8      	pop	{r3, r4, r5, r6, r7, pc}

#endif /* !CONFIG_SOC_FLASH_NRF_RADIO_SYNC_NONE */

static int erase_op(void *context)
{
	uint32_t pg_size = nrfx_nvmc_flash_page_size_get();
    285a:	f004 f823 	bl	68a4 <nrfx_nvmc_flash_page_size_get>
    285e:	4605      	mov	r5, r0
		if (nrfx_nvmc_page_partial_erase_continue()) {
			e_ctx->len -= pg_size;
			e_ctx->flash_addr += pg_size;
		}
#else
		(void)nrfx_nvmc_page_erase(e_ctx->flash_addr);
    2860:	4638      	mov	r0, r7
    2862:	f001 fa1b 	bl	3c9c <nrfx_nvmc_page_erase>
			}

		}
#endif /* !CONFIG_SOC_FLASH_NRF_RADIO_SYNC_NONE */

	} while (e_ctx->len > 0);
    2866:	1b64      	subs	r4, r4, r5
    2868:	442f      	add	r7, r5
    286a:	d1f9      	bne.n	2860 <flash_nrf_erase+0x4c>
    286c:	e7f3      	b.n	2856 <flash_nrf_erase+0x42>
		LOG_ERR("invalid address: 0x%08lx:%zu",
    286e:	4623      	mov	r3, r4
    2870:	4632      	mov	r2, r6
    2872:	2145      	movs	r1, #69	; 0x45
    2874:	4801      	ldr	r0, [pc, #4]	; (287c <flash_nrf_erase+0x68>)
    2876:	e7e7      	b.n	2848 <flash_nrf_erase+0x34>
    2878:	000079fa 	.word	0x000079fa
    287c:	00007a1e 	.word	0x00007a1e

00002880 <flash_nrf_write>:
{
    2880:	b5f8      	push	{r3, r4, r5, r6, r7, lr}
    2882:	460e      	mov	r6, r1
	if (is_regular_addr_valid(addr, len)) {
    2884:	4619      	mov	r1, r3
    2886:	4630      	mov	r0, r6
{
    2888:	4617      	mov	r7, r2
    288a:	461d      	mov	r5, r3
	if (is_regular_addr_valid(addr, len)) {
    288c:	f003 fd77 	bl	637e <is_regular_addr_valid>
    2890:	b940      	cbnz	r0, 28a4 <flash_nrf_write+0x24>
		LOG_ERR("invalid address: 0x%08lx:%zu",
    2892:	462b      	mov	r3, r5
    2894:	4632      	mov	r2, r6
    2896:	2145      	movs	r1, #69	; 0x45
    2898:	4811      	ldr	r0, [pc, #68]	; (28e0 <flash_nrf_write+0x60>)
		LOG_ERR("not word-aligned: 0x%08lx:%zu",
    289a:	f003 fbd3 	bl	6044 <z_log_minimal_printk>
		return -EINVAL;
    289e:	f06f 0015 	mvn.w	r0, #21
}
    28a2:	bdf8      	pop	{r3, r4, r5, r6, r7, pc}
	if (!is_aligned_32(addr) || (len % sizeof(uint32_t))) {
    28a4:	ea46 0405 	orr.w	r4, r6, r5
    28a8:	f014 0403 	ands.w	r4, r4, #3
    28ac:	d004      	beq.n	28b8 <flash_nrf_write+0x38>
		LOG_ERR("not word-aligned: 0x%08lx:%zu",
    28ae:	462b      	mov	r3, r5
    28b0:	4632      	mov	r2, r6
    28b2:	2145      	movs	r1, #69	; 0x45
    28b4:	480b      	ldr	r0, [pc, #44]	; (28e4 <flash_nrf_write+0x64>)
    28b6:	e7f0      	b.n	289a <flash_nrf_write+0x1a>
	if (!len) {
    28b8:	b14d      	cbz	r5, 28ce <flash_nrf_write+0x4e>
		}
#endif /* !CONFIG_SOC_FLASH_NRF_RADIO_SYNC_NONE */
	}
#endif /* CONFIG_SOC_FLASH_NRF_EMULATE_ONE_BYTE_WRITE_ACCESS */
	/* Write all the 4-byte aligned data */
	while (w_ctx->len >= sizeof(uint32_t)) {
    28ba:	192b      	adds	r3, r5, r4
    28bc:	2b03      	cmp	r3, #3
    28be:	eba6 0004 	sub.w	r0, r6, r4
    28c2:	d806      	bhi.n	28d2 <flash_nrf_write+0x52>

#ifndef NRF_DECLARE_ONLY

NRF_STATIC_INLINE bool nrf_nvmc_ready_check(NRF_NVMC_Type const * p_reg)
{
    return (bool)(p_reg->READY & NVMC_READY_READY_Msk);
    28c4:	4a08      	ldr	r2, [pc, #32]	; (28e8 <flash_nrf_write+0x68>)
    28c6:	f8d2 3400 	ldr.w	r3, [r2, #1024]	; 0x400
	while (!nrfx_nvmc_write_done_check()) {
    28ca:	07db      	lsls	r3, r3, #31
    28cc:	d5fb      	bpl.n	28c6 <flash_nrf_write+0x46>
	return ret;
    28ce:	2000      	movs	r0, #0
    28d0:	e7e7      	b.n	28a2 <flash_nrf_write+0x22>
		if (SUSPEND_POFWARN()) {
			return -ECANCELED;
		}

		nrfx_nvmc_word_write(w_ctx->flash_addr,
				     UNALIGNED_GET((uint32_t *)w_ctx->data_addr));
    28d2:	1b3b      	subs	r3, r7, r4
		nrfx_nvmc_word_write(w_ctx->flash_addr,
    28d4:	6819      	ldr	r1, [r3, #0]
    28d6:	f001 f9ff 	bl	3cd8 <nrfx_nvmc_word_write>
	w_ctx->len -= shift;
    28da:	3c04      	subs	r4, #4
}
    28dc:	e7ed      	b.n	28ba <flash_nrf_write+0x3a>
    28de:	bf00      	nop
    28e0:	00007a1e 	.word	0x00007a1e
    28e4:	00007a40 	.word	0x00007a40
    28e8:	50039000 	.word	0x50039000

000028ec <flash_nrf_read>:
{
    28ec:	b570      	push	{r4, r5, r6, lr}
    28ee:	460d      	mov	r5, r1
	if (is_regular_addr_valid(addr, len)) {
    28f0:	4619      	mov	r1, r3
    28f2:	4628      	mov	r0, r5
{
    28f4:	4616      	mov	r6, r2
    28f6:	461c      	mov	r4, r3
	if (is_regular_addr_valid(addr, len)) {
    28f8:	f003 fd41 	bl	637e <is_regular_addr_valid>
    28fc:	b940      	cbnz	r0, 2910 <flash_nrf_read+0x24>
		LOG_ERR("invalid address: 0x%08lx:%zu",
    28fe:	4808      	ldr	r0, [pc, #32]	; (2920 <flash_nrf_read+0x34>)
    2900:	4623      	mov	r3, r4
    2902:	462a      	mov	r2, r5
    2904:	2145      	movs	r1, #69	; 0x45
    2906:	f003 fb9d 	bl	6044 <z_log_minimal_printk>
    290a:	f06f 0015 	mvn.w	r0, #21
}
    290e:	bd70      	pop	{r4, r5, r6, pc}
	if (!len) {
    2910:	b124      	cbz	r4, 291c <flash_nrf_read+0x30>
	memcpy(data, (void *)addr, len);
    2912:	4622      	mov	r2, r4
    2914:	4629      	mov	r1, r5
    2916:	4630      	mov	r0, r6
    2918:	f003 fc3d 	bl	6196 <memcpy>
		return 0;
    291c:	2000      	movs	r0, #0
    291e:	e7f6      	b.n	290e <flash_nrf_read+0x22>
    2920:	00007a1e 	.word	0x00007a1e

00002924 <uarte_nrfx_poll_out>:
 *
 * @param dev UARTE device struct
 * @param c Character to send
 */
static void uarte_nrfx_poll_out(const struct device *dev, unsigned char c)
{
    2924:	b5f8      	push	{r3, r4, r5, r6, r7, lr}
    2926:	4604      	mov	r4, r0
    2928:	460d      	mov	r5, r1
	struct uarte_nrfx_data *data = dev->data;
    292a:	6907      	ldr	r7, [r0, #16]
	bool isr_mode = k_is_in_isr() || k_is_pre_kernel();
    292c:	f003 ffd0 	bl	68d0 <k_is_in_isr>
    2930:	b990      	cbnz	r0, 2958 <uarte_nrfx_poll_out+0x34>
	return !z_sys_post_kernel;
    2932:	4b2c      	ldr	r3, [pc, #176]	; (29e4 <uarte_nrfx_poll_out+0xc0>)
    2934:	781b      	ldrb	r3, [r3, #0]
    2936:	b17b      	cbz	r3, 2958 <uarte_nrfx_poll_out+0x34>
{
    2938:	2664      	movs	r6, #100	; 0x64
		NRFX_WAIT_FOR(is_tx_ready(dev), 100, 1, res);
    293a:	6860      	ldr	r0, [r4, #4]
    293c:	f003 fdb6 	bl	64ac <is_tx_ready.isra.0>
    2940:	b9e0      	cbnz	r0, 297c <uarte_nrfx_poll_out+0x58>
    2942:	2001      	movs	r0, #1
    2944:	f003 feff 	bl	6746 <nrfx_busy_wait>
    2948:	3e01      	subs	r6, #1
    294a:	d1f6      	bne.n	293a <uarte_nrfx_poll_out+0x16>
    294c:	e7f4      	b.n	2938 <uarte_nrfx_poll_out+0x14>
	__asm__ volatile(
    294e:	f386 8811 	msr	BASEPRI, r6
    2952:	f3bf 8f6f 	isb	sy
		"cpsie i;"
		: : : "memory", "cc");
#else
#error Unknown ARM architecture
#endif /* CONFIG_ARMV6_M_ARMV8_M_BASELINE */
}
    2956:	e7ef      	b.n	2938 <uarte_nrfx_poll_out+0x14>
	__asm__ volatile(
    2958:	f04f 0320 	mov.w	r3, #32
    295c:	f3ef 8611 	mrs	r6, BASEPRI
    2960:	f383 8812 	msr	BASEPRI_MAX, r3
    2964:	f3bf 8f6f 	isb	sy
#endif

	if (isr_mode) {
		while (1) {
			key = irq_lock();
			if (is_tx_ready(dev)) {
    2968:	6860      	ldr	r0, [r4, #4]
    296a:	4631      	mov	r1, r6
    296c:	f003 fd9e 	bl	64ac <is_tx_ready.isra.0>
    2970:	b990      	cbnz	r0, 2998 <uarte_nrfx_poll_out+0x74>
	__asm__ volatile(
    2972:	f386 8811 	msr	BASEPRI, r6
    2976:	f3bf 8f6f 	isb	sy
}
    297a:	e7ed      	b.n	2958 <uarte_nrfx_poll_out+0x34>
	__asm__ volatile(
    297c:	f04f 0320 	mov.w	r3, #32
    2980:	f3ef 8611 	mrs	r6, BASEPRI
    2984:	f383 8812 	msr	BASEPRI_MAX, r3
    2988:	f3bf 8f6f 	isb	sy
			if (is_tx_ready(dev)) {
    298c:	6860      	ldr	r0, [r4, #4]
    298e:	4631      	mov	r1, r6
    2990:	f003 fd8c 	bl	64ac <is_tx_ready.isra.0>
    2994:	2800      	cmp	r0, #0
    2996:	d0da      	beq.n	294e <uarte_nrfx_poll_out+0x2a>
		}
	} else {
		key = wait_tx_ready(dev);
	}

	*data->char_out = c;
    2998:	693b      	ldr	r3, [r7, #16]
    299a:	701d      	strb	r5, [r3, #0]
	const struct uarte_nrfx_config *config = dev->config;
    299c:	6862      	ldr	r2, [r4, #4]

NRF_STATIC_INLINE void nrf_uarte_tx_buffer_set(NRF_UARTE_Type * p_reg,
                                               uint8_t  const * p_buffer,
                                               size_t           length)
{
    p_reg->TXD.PTR    = (uint32_t)p_buffer;
    299e:	6938      	ldr	r0, [r7, #16]
	return config->uarte_regs;
    29a0:	6813      	ldr	r3, [r2, #0]
    29a2:	f8c3 0544 	str.w	r0, [r3, #1348]	; 0x544
    p_reg->TXD.MAXCNT = length;
    29a6:	2001      	movs	r0, #1
    29a8:	f8c3 0548 	str.w	r0, [r3, #1352]	; 0x548
    *((volatile uint32_t *)((uint8_t *)p_reg + (uint32_t)event)) = 0x0UL;
    29ac:	2000      	movs	r0, #0
    29ae:	f8c3 0120 	str.w	r0, [r3, #288]	; 0x120
    29b2:	f8d3 5120 	ldr.w	r5, [r3, #288]	; 0x120
    29b6:	f8c3 0158 	str.w	r0, [r3, #344]	; 0x158
	if (config->flags & UARTE_CFG_FLAG_LOW_POWER) {
    29ba:	6852      	ldr	r2, [r2, #4]
    29bc:	f8d3 0158 	ldr.w	r0, [r3, #344]	; 0x158
    29c0:	06d2      	lsls	r2, r2, #27
    29c2:	d508      	bpl.n	29d6 <uarte_nrfx_poll_out+0xb2>
    p_reg->ENABLE = UARTE_ENABLE_ENABLE_Enabled;
    29c4:	2008      	movs	r0, #8
	return config->uarte_regs;
    29c6:	6862      	ldr	r2, [r4, #4]
    29c8:	6812      	ldr	r2, [r2, #0]
    29ca:	f8c2 0500 	str.w	r0, [r2, #1280]	; 0x500
    p_reg->INTENSET = mask;
    29ce:	f44f 0280 	mov.w	r2, #4194304	; 0x400000
    29d2:	f8c3 2304 	str.w	r2, [r3, #772]	; 0x304
    *((volatile uint32_t *)((uint8_t *)p_reg + (uint32_t)task)) = 0x1UL;
    29d6:	2201      	movs	r2, #1
    29d8:	609a      	str	r2, [r3, #8]
	__asm__ volatile(
    29da:	f381 8811 	msr	BASEPRI, r1
    29de:	f3bf 8f6f 	isb	sy
	tx_start(dev, data->char_out, 1);

	irq_unlock(key);
}
    29e2:	bdf8      	pop	{r3, r4, r5, r6, r7, pc}
    29e4:	20000fe9 	.word	0x20000fe9

000029e8 <uarte_nrfx_configure>:
{
    29e8:	b5f0      	push	{r4, r5, r6, r7, lr}
	switch (cfg->stop_bits) {
    29ea:	794b      	ldrb	r3, [r1, #5]
    29ec:	2b01      	cmp	r3, #1
    29ee:	d026      	beq.n	2a3e <uarte_nrfx_configure+0x56>
    29f0:	2b03      	cmp	r3, #3
    29f2:	d121      	bne.n	2a38 <uarte_nrfx_configure+0x50>
		uarte_cfg.stop = NRF_UARTE_STOP_TWO;
    29f4:	2510      	movs	r5, #16
	if (cfg->data_bits != UART_CFG_DATA_BITS_8) {
    29f6:	798b      	ldrb	r3, [r1, #6]
    29f8:	2b03      	cmp	r3, #3
    29fa:	d11d      	bne.n	2a38 <uarte_nrfx_configure+0x50>
	switch (cfg->flow_ctrl) {
    29fc:	79ce      	ldrb	r6, [r1, #7]
    29fe:	b10e      	cbz	r6, 2a04 <uarte_nrfx_configure+0x1c>
    2a00:	2e01      	cmp	r6, #1
    2a02:	d119      	bne.n	2a38 <uarte_nrfx_configure+0x50>
	switch (cfg->parity) {
    2a04:	790a      	ldrb	r2, [r1, #4]
    2a06:	b112      	cbz	r2, 2a0e <uarte_nrfx_configure+0x26>
    2a08:	2a02      	cmp	r2, #2
    2a0a:	d115      	bne.n	2a38 <uarte_nrfx_configure+0x50>
		uarte_cfg.parity = NRF_UARTE_PARITY_INCLUDED;
    2a0c:	220e      	movs	r2, #14
	if (baudrate_set(dev, cfg->baudrate) != 0) {
    2a0e:	680b      	ldr	r3, [r1, #0]
	return config->uarte_regs;
    2a10:	6844      	ldr	r4, [r0, #4]
	switch (baudrate) {
    2a12:	f5b3 4f16 	cmp.w	r3, #38400	; 0x9600
	return config->uarte_regs;
    2a16:	6827      	ldr	r7, [r4, #0]
	switch (baudrate) {
    2a18:	d067      	beq.n	2aea <uarte_nrfx_configure+0x102>
    2a1a:	d82d      	bhi.n	2a78 <uarte_nrfx_configure+0x90>
    2a1c:	f5b3 5f16 	cmp.w	r3, #9600	; 0x2580
    2a20:	d066      	beq.n	2af0 <uarte_nrfx_configure+0x108>
    2a22:	d816      	bhi.n	2a52 <uarte_nrfx_configure+0x6a>
    2a24:	f5b3 6f96 	cmp.w	r3, #1200	; 0x4b0
    2a28:	d064      	beq.n	2af4 <uarte_nrfx_configure+0x10c>
    2a2a:	d80a      	bhi.n	2a42 <uarte_nrfx_configure+0x5a>
    2a2c:	f5b3 7f96 	cmp.w	r3, #300	; 0x12c
    2a30:	d063      	beq.n	2afa <uarte_nrfx_configure+0x112>
    2a32:	f5b3 7f16 	cmp.w	r3, #600	; 0x258
    2a36:	d063      	beq.n	2b00 <uarte_nrfx_configure+0x118>
		return -ENOTSUP;
    2a38:	f06f 0085 	mvn.w	r0, #133	; 0x85
    2a3c:	e054      	b.n	2ae8 <uarte_nrfx_configure+0x100>
	switch (cfg->stop_bits) {
    2a3e:	2500      	movs	r5, #0
    2a40:	e7d9      	b.n	29f6 <uarte_nrfx_configure+0xe>
	switch (baudrate) {
    2a42:	f5b3 6f16 	cmp.w	r3, #2400	; 0x960
    2a46:	d05e      	beq.n	2b06 <uarte_nrfx_configure+0x11e>
    2a48:	f5b3 5f96 	cmp.w	r3, #4800	; 0x12c0
    2a4c:	d1f4      	bne.n	2a38 <uarte_nrfx_configure+0x50>
		nrf_baudrate = NRF_UARTE_BAUDRATE_4800;
    2a4e:	4b38      	ldr	r3, [pc, #224]	; (2b30 <uarte_nrfx_configure+0x148>)
    2a50:	e03c      	b.n	2acc <uarte_nrfx_configure+0xe4>
	switch (baudrate) {
    2a52:	f5b3 4fe1 	cmp.w	r3, #28800	; 0x7080
    2a56:	d059      	beq.n	2b0c <uarte_nrfx_configure+0x124>
    2a58:	d807      	bhi.n	2a6a <uarte_nrfx_configure+0x82>
    2a5a:	f5b3 5f61 	cmp.w	r3, #14400	; 0x3840
    2a5e:	d057      	beq.n	2b10 <uarte_nrfx_configure+0x128>
    2a60:	f5b3 4f96 	cmp.w	r3, #19200	; 0x4b00
    2a64:	d1e8      	bne.n	2a38 <uarte_nrfx_configure+0x50>
		nrf_baudrate = NRF_UARTE_BAUDRATE_19200;
    2a66:	4b33      	ldr	r3, [pc, #204]	; (2b34 <uarte_nrfx_configure+0x14c>)
    2a68:	e030      	b.n	2acc <uarte_nrfx_configure+0xe4>
	switch (baudrate) {
    2a6a:	f647 2412 	movw	r4, #31250	; 0x7a12
    2a6e:	42a3      	cmp	r3, r4
    2a70:	d1e2      	bne.n	2a38 <uarte_nrfx_configure+0x50>
		nrf_baudrate = NRF_UARTE_BAUDRATE_31250;
    2a72:	f44f 0300 	mov.w	r3, #8388608	; 0x800000
    2a76:	e029      	b.n	2acc <uarte_nrfx_configure+0xe4>
	switch (baudrate) {
    2a78:	f5b3 3f61 	cmp.w	r3, #230400	; 0x38400
    2a7c:	d04a      	beq.n	2b14 <uarte_nrfx_configure+0x12c>
    2a7e:	d813      	bhi.n	2aa8 <uarte_nrfx_configure+0xc0>
    2a80:	f5b3 3f96 	cmp.w	r3, #76800	; 0x12c00
    2a84:	d049      	beq.n	2b1a <uarte_nrfx_configure+0x132>
    2a86:	d809      	bhi.n	2a9c <uarte_nrfx_configure+0xb4>
    2a88:	f64d 24c0 	movw	r4, #56000	; 0xdac0
    2a8c:	42a3      	cmp	r3, r4
    2a8e:	d046      	beq.n	2b1e <uarte_nrfx_configure+0x136>
    2a90:	f5b3 4f61 	cmp.w	r3, #57600	; 0xe100
    2a94:	d1d0      	bne.n	2a38 <uarte_nrfx_configure+0x50>
		nrf_baudrate = NRF_UARTE_BAUDRATE_57600;
    2a96:	f44f 036b 	mov.w	r3, #15400960	; 0xeb0000
    2a9a:	e017      	b.n	2acc <uarte_nrfx_configure+0xe4>
	switch (baudrate) {
    2a9c:	f5b3 3fe1 	cmp.w	r3, #115200	; 0x1c200
    2aa0:	d1ca      	bne.n	2a38 <uarte_nrfx_configure+0x50>
		nrf_baudrate = NRF_UARTE_BAUDRATE_115200;
    2aa2:	f04f 73eb 	mov.w	r3, #30801920	; 0x1d60000
    2aa6:	e011      	b.n	2acc <uarte_nrfx_configure+0xe4>
	switch (baudrate) {
    2aa8:	f5b3 2f61 	cmp.w	r3, #921600	; 0xe1000
    2aac:	d03a      	beq.n	2b24 <uarte_nrfx_configure+0x13c>
    2aae:	d808      	bhi.n	2ac2 <uarte_nrfx_configure+0xda>
    2ab0:	4c21      	ldr	r4, [pc, #132]	; (2b38 <uarte_nrfx_configure+0x150>)
    2ab2:	42a3      	cmp	r3, r4
    2ab4:	d039      	beq.n	2b2a <uarte_nrfx_configure+0x142>
    2ab6:	f5b3 2fe1 	cmp.w	r3, #460800	; 0x70800
    2aba:	d1bd      	bne.n	2a38 <uarte_nrfx_configure+0x50>
		nrf_baudrate = NRF_UARTE_BAUDRATE_460800;
    2abc:	f04f 63e8 	mov.w	r3, #121634816	; 0x7400000
    2ac0:	e004      	b.n	2acc <uarte_nrfx_configure+0xe4>
	switch (baudrate) {
    2ac2:	4c1e      	ldr	r4, [pc, #120]	; (2b3c <uarte_nrfx_configure+0x154>)
    2ac4:	42a3      	cmp	r3, r4
    2ac6:	d1b7      	bne.n	2a38 <uarte_nrfx_configure+0x50>
		nrf_baudrate = NRF_UARTE_BAUDRATE_1000000;
    2ac8:	f04f 5380 	mov.w	r3, #268435456	; 0x10000000
	struct uarte_nrfx_data *data = dev->data;
    2acc:	6904      	ldr	r4, [r0, #16]
    p_reg->BAUDRATE = baudrate;
    2ace:	f8c7 3524 	str.w	r3, [r7, #1316]	; 0x524
	return config->uarte_regs;
    2ad2:	6843      	ldr	r3, [r0, #4]
                    | (uint32_t)p_cfg->hwfc;
    2ad4:	4335      	orrs	r5, r6
    2ad6:	681b      	ldr	r3, [r3, #0]
    2ad8:	432a      	orrs	r2, r5
    p_reg->CONFIG = (uint32_t)p_cfg->parity
    2ada:	f8c3 256c 	str.w	r2, [r3, #1388]	; 0x56c
	data->uart_config = *cfg;
    2ade:	1d23      	adds	r3, r4, #4
    2ae0:	c903      	ldmia	r1, {r0, r1}
    2ae2:	e883 0003 	stmia.w	r3, {r0, r1}
	return 0;
    2ae6:	2000      	movs	r0, #0
}
    2ae8:	bdf0      	pop	{r4, r5, r6, r7, pc}
		nrf_baudrate = NRF_UARTE_BAUDRATE_38400;
    2aea:	f44f 031d 	mov.w	r3, #10289152	; 0x9d0000
    2aee:	e7ed      	b.n	2acc <uarte_nrfx_configure+0xe4>
		nrf_baudrate = NRF_UARTE_BAUDRATE_9600;
    2af0:	4b13      	ldr	r3, [pc, #76]	; (2b40 <uarte_nrfx_configure+0x158>)
    2af2:	e7eb      	b.n	2acc <uarte_nrfx_configure+0xe4>
		nrf_baudrate = NRF_UARTE_BAUDRATE_1200;
    2af4:	f44f 239e 	mov.w	r3, #323584	; 0x4f000
    2af8:	e7e8      	b.n	2acc <uarte_nrfx_configure+0xe4>
		nrf_baudrate = 0x00014000;
    2afa:	f44f 33a0 	mov.w	r3, #81920	; 0x14000
    2afe:	e7e5      	b.n	2acc <uarte_nrfx_configure+0xe4>
	switch (baudrate) {
    2b00:	f44f 331c 	mov.w	r3, #159744	; 0x27000
    2b04:	e7e2      	b.n	2acc <uarte_nrfx_configure+0xe4>
		nrf_baudrate = NRF_UARTE_BAUDRATE_2400;
    2b06:	f44f 231d 	mov.w	r3, #643072	; 0x9d000
    2b0a:	e7df      	b.n	2acc <uarte_nrfx_configure+0xe4>
		nrf_baudrate = NRF_UARTE_BAUDRATE_28800;
    2b0c:	4b0d      	ldr	r3, [pc, #52]	; (2b44 <uarte_nrfx_configure+0x15c>)
    2b0e:	e7dd      	b.n	2acc <uarte_nrfx_configure+0xe4>
		nrf_baudrate = NRF_UARTE_BAUDRATE_14400;
    2b10:	4b0d      	ldr	r3, [pc, #52]	; (2b48 <uarte_nrfx_configure+0x160>)
    2b12:	e7db      	b.n	2acc <uarte_nrfx_configure+0xe4>
		nrf_baudrate = NRF_UARTE_BAUDRATE_230400;
    2b14:	f04f 736c 	mov.w	r3, #61865984	; 0x3b00000
    2b18:	e7d8      	b.n	2acc <uarte_nrfx_configure+0xe4>
		nrf_baudrate = NRF_UARTE_BAUDRATE_76800;
    2b1a:	4b0c      	ldr	r3, [pc, #48]	; (2b4c <uarte_nrfx_configure+0x164>)
    2b1c:	e7d6      	b.n	2acc <uarte_nrfx_configure+0xe4>
		nrf_baudrate = NRF_UARTE_BAUDRATE_56000;
    2b1e:	f44f 0365 	mov.w	r3, #15007744	; 0xe50000
    2b22:	e7d3      	b.n	2acc <uarte_nrfx_configure+0xe4>
		nrf_baudrate = NRF_UARTE_BAUDRATE_921600;
    2b24:	f04f 6370 	mov.w	r3, #251658240	; 0xf000000
    2b28:	e7d0      	b.n	2acc <uarte_nrfx_configure+0xe4>
		nrf_baudrate = NRF_UARTE_BAUDRATE_250000;
    2b2a:	f04f 6380 	mov.w	r3, #67108864	; 0x4000000
    2b2e:	e7cd      	b.n	2acc <uarte_nrfx_configure+0xe4>
    2b30:	0013b000 	.word	0x0013b000
    2b34:	004ea000 	.word	0x004ea000
    2b38:	0003d090 	.word	0x0003d090
    2b3c:	000f4240 	.word	0x000f4240
    2b40:	00275000 	.word	0x00275000
    2b44:	0075c000 	.word	0x0075c000
    2b48:	003af000 	.word	0x003af000
    2b4c:	013a9000 	.word	0x013a9000

00002b50 <uarte_instance_init.constprop.0>:
	nrfx_gppi_channels_enable(BIT(data->ppi_ch_endtx));

	return 0;
}

static int uarte_instance_init(const struct device *dev,
    2b50:	e92d 43f7 	stmdb	sp!, {r0, r1, r2, r4, r5, r6, r7, r8, r9, lr}
    p_reg->ENABLE = UARTE_ENABLE_ENABLE_Disabled;
    2b54:	2100      	movs	r1, #0
	const struct uarte_nrfx_config *config = dev->config;
    2b56:	6847      	ldr	r7, [r0, #4]
			       uint8_t interrupts_active)
{
	int err;
	NRF_UARTE_Type *uarte = get_uarte_instance(dev);
	struct uarte_nrfx_data *data = dev->data;
    2b58:	6906      	ldr	r6, [r0, #16]
	return config->uarte_regs;
    2b5a:	683c      	ldr	r4, [r7, #0]
static int uarte_instance_init(const struct device *dev,
    2b5c:	4680      	mov	r8, r0
    2b5e:	f8c4 1500 	str.w	r1, [r4, #1280]	; 0x500
	const struct uarte_nrfx_config *cfg = dev->config;

	nrf_uarte_disable(uarte);

	data->dev = dev;
    2b62:	6030      	str	r0, [r6, #0]

#ifdef CONFIG_PINCTRL
	err = pinctrl_apply_state(cfg->pcfg, PINCTRL_STATE_DEFAULT);
    2b64:	f8d7 900c 	ldr.w	r9, [r7, #12]
				      uint8_t id)
{
	int ret;
	const struct pinctrl_state *state;

	ret = pinctrl_lookup_state(config, id, &state);
    2b68:	aa01      	add	r2, sp, #4
    2b6a:	4648      	mov	r0, r9
    2b6c:	f003 fd11 	bl	6592 <pinctrl_lookup_state>
	if (ret < 0) {
    2b70:	1e05      	subs	r5, r0, #0
    2b72:	db1e      	blt.n	2bb2 <uarte_instance_init.constprop.0+0x62>
		return ret;
	}

	return pinctrl_apply_state_direct(config, state);
    2b74:	9b01      	ldr	r3, [sp, #4]
	return pinctrl_configure_pins(state->pins, state->pin_cnt, reg);
    2b76:	f8d9 2000 	ldr.w	r2, [r9]
    2b7a:	7919      	ldrb	r1, [r3, #4]
    2b7c:	6818      	ldr	r0, [r3, #0]
    2b7e:	f000 fa51 	bl	3024 <pinctrl_configure_pins>
	if (err < 0) {
    2b82:	1e05      	subs	r5, r0, #0
    2b84:	db15      	blt.n	2bb2 <uarte_instance_init.constprop.0+0x62>
	}
#else
	uarte_nrfx_pins_configure(dev, false);
#endif /* CONFIG_PINCTRL */

	err = uarte_nrfx_configure(dev, &data->uart_config);
    2b86:	4640      	mov	r0, r8
    2b88:	1d31      	adds	r1, r6, #4
    2b8a:	f7ff ff2d 	bl	29e8 <uarte_nrfx_configure>
	if (err) {
    2b8e:	4605      	mov	r5, r0
    2b90:	b978      	cbnz	r0, 2bb2 <uarte_instance_init.constprop.0+0x62>
		return err;
	}

	if (IS_ENABLED(CONFIG_UART_ENHANCED_POLL_OUT) &&
	    cfg->flags & UARTE_CFG_FLAG_PPI_ENDTX) {
    2b92:	687b      	ldr	r3, [r7, #4]
	if (IS_ENABLED(CONFIG_UART_ENHANCED_POLL_OUT) &&
    2b94:	0799      	lsls	r1, r3, #30
    2b96:	d51d      	bpl.n	2bd4 <uarte_instance_init.constprop.0+0x84>
	ret = gppi_channel_alloc(&data->ppi_ch_endtx);
    2b98:	f106 0018 	add.w	r0, r6, #24
    2b9c:	f000 fd22 	bl	35e4 <nrfx_dppi_channel_alloc>
	if (ret != NRFX_SUCCESS) {
    2ba0:	4b20      	ldr	r3, [pc, #128]	; (2c24 <uarte_instance_init.constprop.0+0xd4>)
    2ba2:	4298      	cmp	r0, r3
    2ba4:	d009      	beq.n	2bba <uarte_instance_init.constprop.0+0x6a>
		LOG_ERR("Failed to allocate PPI Channel");
    2ba6:	2145      	movs	r1, #69	; 0x45
    2ba8:	481f      	ldr	r0, [pc, #124]	; (2c28 <uarte_instance_init.constprop.0+0xd8>)
    2baa:	f003 fa4b 	bl	6044 <z_log_minimal_printk>
		return -EIO;
    2bae:	f06f 0504 	mvn.w	r5, #4

	/* switch off transmitter to save an energy */
	nrf_uarte_task_trigger(uarte, NRF_UARTE_TASK_STOPTX);

	return 0;
}
    2bb2:	4628      	mov	r0, r5
    2bb4:	b003      	add	sp, #12
    2bb6:	e8bd 83f0 	ldmia.w	sp!, {r4, r5, r6, r7, r8, r9, pc}
}

__STATIC_INLINE void nrfx_gppi_event_endpoint_setup(uint8_t channel, uint32_t eep)
{
    NRFX_ASSERT(eep);
    *((volatile uint32_t *)(eep + 0x80uL)) = ((uint32_t)channel | DPPIC_SUBSCRIBE_CHG_EN_EN_Msk);
    2bba:	7e33      	ldrb	r3, [r6, #24]
    2bbc:	f043 4300 	orr.w	r3, r3, #2147483648	; 0x80000000
    2bc0:	f8c4 31a0 	str.w	r3, [r4, #416]	; 0x1a0
}

__STATIC_INLINE void nrfx_gppi_task_endpoint_setup(uint8_t channel, uint32_t tep)
{
    NRFX_ASSERT(tep);
    *((volatile uint32_t *)(tep + 0x80uL)) = ((uint32_t)channel | DPPIC_SUBSCRIBE_CHG_EN_EN_Msk);
    2bc4:	f8c4 308c 	str.w	r3, [r4, #140]	; 0x8c
	nrfx_gppi_channels_enable(BIT(data->ppi_ch_endtx));
    2bc8:	2301      	movs	r3, #1
    2bca:	7e32      	ldrb	r2, [r6, #24]
    2bcc:	4093      	lsls	r3, r2
}

NRF_STATIC_INLINE void nrf_dppi_channels_enable(NRF_DPPIC_Type * p_reg, uint32_t mask)
{
    p_reg->CHENSET = mask;
    2bce:	4a17      	ldr	r2, [pc, #92]	; (2c2c <uarte_instance_init.constprop.0+0xdc>)
    2bd0:	f8c2 3504 	str.w	r3, [r2, #1284]	; 0x504
    p_reg->ENABLE = UARTE_ENABLE_ENABLE_Enabled;
    2bd4:	2308      	movs	r3, #8
    2bd6:	f8c4 3500 	str.w	r3, [r4, #1280]	; 0x500
		if (!cfg->disable_rx) {
    2bda:	7a3b      	ldrb	r3, [r7, #8]
    2bdc:	b953      	cbnz	r3, 2bf4 <uarte_instance_init.constprop.0+0xa4>
    *((volatile uint32_t *)((uint8_t *)p_reg + (uint32_t)event)) = 0x0UL;
    2bde:	f8c4 3110 	str.w	r3, [r4, #272]	; 0x110
    2be2:	f8d4 3110 	ldr.w	r3, [r4, #272]	; 0x110

NRF_STATIC_INLINE void nrf_uarte_rx_buffer_set(NRF_UARTE_Type * p_reg,
                                               uint8_t *        p_buffer,
                                               size_t           length)
{
    p_reg->RXD.PTR    = (uint32_t)p_buffer;
    2be6:	6973      	ldr	r3, [r6, #20]
    2be8:	f8c4 3534 	str.w	r3, [r4, #1332]	; 0x534
    p_reg->RXD.MAXCNT = length;
    2bec:	2301      	movs	r3, #1
    2bee:	f8c4 3538 	str.w	r3, [r4, #1336]	; 0x538
    *((volatile uint32_t *)((uint8_t *)p_reg + (uint32_t)task)) = 0x1UL;
    2bf2:	6023      	str	r3, [r4, #0]
	if (!(cfg->flags & UARTE_CFG_FLAG_PPI_ENDTX)) {
    2bf4:	687b      	ldr	r3, [r7, #4]
    2bf6:	079a      	lsls	r2, r3, #30
    p_reg->INTENSET = mask;
    2bf8:	bf5c      	itt	pl
    2bfa:	f44f 7380 	movpl.w	r3, #256	; 0x100
    2bfe:	f8c4 3304 	strpl.w	r3, [r4, #772]	; 0x304
	if (cfg->flags & UARTE_CFG_FLAG_LOW_POWER) {
    2c02:	687b      	ldr	r3, [r7, #4]
    2c04:	06db      	lsls	r3, r3, #27
    2c06:	bf44      	itt	mi
    2c08:	f44f 0380 	movmi.w	r3, #4194304	; 0x400000
    2c0c:	f8c4 3304 	strmi.w	r3, [r4, #772]	; 0x304
    p_reg->TXD.PTR    = (uint32_t)p_buffer;
    2c10:	6933      	ldr	r3, [r6, #16]
    2c12:	f8c4 3544 	str.w	r3, [r4, #1348]	; 0x544
    p_reg->TXD.MAXCNT = length;
    2c16:	2300      	movs	r3, #0
    2c18:	f8c4 3548 	str.w	r3, [r4, #1352]	; 0x548
    *((volatile uint32_t *)((uint8_t *)p_reg + (uint32_t)task)) = 0x1UL;
    2c1c:	2301      	movs	r3, #1
    2c1e:	60a3      	str	r3, [r4, #8]
    2c20:	60e3      	str	r3, [r4, #12]
	return 0;
    2c22:	e7c6      	b.n	2bb2 <uarte_instance_init.constprop.0+0x62>
    2c24:	0bad0000 	.word	0x0bad0000
    2c28:	00007a84 	.word	0x00007a84
    2c2c:	50017000 	.word	0x50017000

00002c30 <compare_int_lock>:
#endif
}

static bool compare_int_lock(int32_t chan)
{
	atomic_val_t prev = atomic_and(&int_mask, ~BIT(chan));
    2c30:	2301      	movs	r3, #1
    2c32:	4083      	lsls	r3, r0
{
    2c34:	b570      	push	{r4, r5, r6, lr}
	atomic_val_t prev = atomic_and(&int_mask, ~BIT(chan));
    2c36:	43dc      	mvns	r4, r3
 *
 * @return Previous value of @a target.
 */
static inline atomic_val_t atomic_and(atomic_t *target, atomic_val_t value)
{
	return __atomic_fetch_and(target, value, __ATOMIC_SEQ_CST);
    2c38:	4a0b      	ldr	r2, [pc, #44]	; (2c68 <compare_int_lock+0x38>)
    2c3a:	e8d2 1fef 	ldaex	r1, [r2]
    2c3e:	ea01 0504 	and.w	r5, r1, r4
    2c42:	e8c2 5fe6 	stlex	r6, r5, [r2]
    2c46:	2e00      	cmp	r6, #0
    2c48:	d1f7      	bne.n	2c3a <compare_int_lock+0xa>

	nrf_rtc_int_disable(RTC, RTC_CHANNEL_INT_MASK(chan));
    2c4a:	f44f 3280 	mov.w	r2, #65536	; 0x10000
    2c4e:	4082      	lsls	r2, r0
    2c50:	4806      	ldr	r0, [pc, #24]	; (2c6c <compare_int_lock+0x3c>)
    2c52:	f8c0 2308 	str.w	r2, [r0, #776]	; 0x308
  __ASM volatile ("dmb 0xF":::"memory");
    2c56:	f3bf 8f5f 	dmb	sy
  __ASM volatile ("isb 0xF":::"memory");
    2c5a:	f3bf 8f6f 	isb	sy

	__DMB();
	__ISB();

	return prev & BIT(chan);
    2c5e:	420b      	tst	r3, r1
}
    2c60:	bf14      	ite	ne
    2c62:	2001      	movne	r0, #1
    2c64:	2000      	moveq	r0, #0
    2c66:	bd70      	pop	{r4, r5, r6, pc}
    2c68:	20000eb8 	.word	0x20000eb8
    2c6c:	50015000 	.word	0x50015000

00002c70 <sys_clock_timeout_handler>:
}

static void sys_clock_timeout_handler(int32_t chan,
				      uint64_t expire_time,
				      void *user_data)
{
    2c70:	b470      	push	{r4, r5, r6}
	uint32_t cc_value = absolute_time_to_cc(expire_time);
	uint32_t dticks = (uint32_t)(expire_time - last_count) / CYC_PER_TICK;
    2c72:	490e      	ldr	r1, [pc, #56]	; (2cac <sys_clock_timeout_handler+0x3c>)
	return absolute_time & COUNTER_MAX;
    2c74:	f022 467f 	bic.w	r6, r2, #4278190080	; 0xff000000
	uint32_t dticks = (uint32_t)(expire_time - last_count) / CYC_PER_TICK;
    2c78:	e9d1 3400 	ldrd	r3, r4, [r1]
    2c7c:	1ad0      	subs	r0, r2, r3

	last_count += dticks * CYC_PER_TICK;
    2c7e:	18c3      	adds	r3, r0, r3
    2c80:	f144 0400 	adc.w	r4, r4, #0
    2c84:	e9c1 3400 	strd	r3, r4, [r1]
	return (cc_value >= ANCHOR_RANGE_START) && (cc_value < ANCHOR_RANGE_END);
    2c88:	f5a6 1300 	sub.w	r3, r6, #2097152	; 0x200000
	if (in_anchor_range(cc_value)) {
    2c8c:	f5b3 0f40 	cmp.w	r3, #12582912	; 0xc00000
    2c90:	d209      	bcs.n	2ca6 <sys_clock_timeout_handler+0x36>
		anchor = (((uint64_t)overflow_cnt) << COUNTER_BIT_WIDTH) + cc_value;
    2c92:	4b07      	ldr	r3, [pc, #28]	; (2cb0 <sys_clock_timeout_handler+0x40>)
    2c94:	681b      	ldr	r3, [r3, #0]
    2c96:	0a1a      	lsrs	r2, r3, #8
    2c98:	061b      	lsls	r3, r3, #24
    2c9a:	199c      	adds	r4, r3, r6
    2c9c:	4b05      	ldr	r3, [pc, #20]	; (2cb4 <sys_clock_timeout_handler+0x44>)
    2c9e:	f142 0500 	adc.w	r5, r2, #0
    2ca2:	e9c3 4500 	strd	r4, r5, [r3]
		compare_set(chan, last_count + CYC_PER_TICK,
					  sys_clock_timeout_handler, NULL);
	}

	sys_clock_announce(dticks);
}
    2ca6:	bc70      	pop	{r4, r5, r6}
	sys_clock_announce(dticks);
    2ca8:	f001 b942 	b.w	3f30 <sys_clock_announce>
    2cac:	20000138 	.word	0x20000138
    2cb0:	20000ebc 	.word	0x20000ebc
    2cb4:	20000140 	.word	0x20000140

00002cb8 <compare_int_unlock>:
	if (key) {
    2cb8:	b1d9      	cbz	r1, 2cf2 <compare_int_unlock+0x3a>
		atomic_or(&int_mask, BIT(chan));
    2cba:	2301      	movs	r3, #1
	return __atomic_fetch_or(target, value, __ATOMIC_SEQ_CST);
    2cbc:	4a0d      	ldr	r2, [pc, #52]	; (2cf4 <compare_int_unlock+0x3c>)
    2cbe:	4083      	lsls	r3, r0
    2cc0:	e8d2 cfef 	ldaex	ip, [r2]
    2cc4:	ea4c 0c03 	orr.w	ip, ip, r3
    2cc8:	e8c2 cfe1 	stlex	r1, ip, [r2]
    2ccc:	2900      	cmp	r1, #0
    2cce:	d1f7      	bne.n	2cc0 <compare_int_unlock+0x8>
		nrf_rtc_int_enable(RTC, RTC_CHANNEL_INT_MASK(chan));
    2cd0:	f44f 3380 	mov.w	r3, #65536	; 0x10000
    p_reg->INTENSET = mask;
    2cd4:	4a08      	ldr	r2, [pc, #32]	; (2cf8 <compare_int_unlock+0x40>)
    2cd6:	4083      	lsls	r3, r0
    2cd8:	f8c2 3304 	str.w	r3, [r2, #772]	; 0x304
	return __atomic_load_n(target, __ATOMIC_SEQ_CST);
    2cdc:	4b07      	ldr	r3, [pc, #28]	; (2cfc <compare_int_unlock+0x44>)
    2cde:	e8d3 3faf 	lda	r3, [r3]
		if (atomic_get(&force_isr_mask) & BIT(chan)) {
    2ce2:	40c3      	lsrs	r3, r0
    2ce4:	07db      	lsls	r3, r3, #31
    NVIC->ISPR[(((uint32_t)IRQn) >> 5UL)] = (uint32_t)(1UL << (((uint32_t)IRQn) & 0x1FUL));
    2ce6:	bf42      	ittt	mi
    2ce8:	f44f 1200 	movmi.w	r2, #2097152	; 0x200000
    2cec:	4b04      	ldrmi	r3, [pc, #16]	; (2d00 <compare_int_unlock+0x48>)
    2cee:	f8c3 2100 	strmi.w	r2, [r3, #256]	; 0x100
}
    2cf2:	4770      	bx	lr
    2cf4:	20000eb8 	.word	0x20000eb8
    2cf8:	50015000 	.word	0x50015000
    2cfc:	20000eb4 	.word	0x20000eb4
    2d00:	e000e100 	.word	0xe000e100

00002d04 <z_nrf_rtc_timer_read>:
	uint64_t val = ((uint64_t)overflow_cnt) << COUNTER_BIT_WIDTH;
    2d04:	4b0d      	ldr	r3, [pc, #52]	; (2d3c <z_nrf_rtc_timer_read+0x38>)
    2d06:	6818      	ldr	r0, [r3, #0]
    2d08:	0a01      	lsrs	r1, r0, #8
    2d0a:	0600      	lsls	r0, r0, #24
  __ASM volatile ("dmb 0xF":::"memory");
    2d0c:	f3bf 8f5f 	dmb	sy
     return p_reg->COUNTER;
    2d10:	4b0b      	ldr	r3, [pc, #44]	; (2d40 <z_nrf_rtc_timer_read+0x3c>)
    2d12:	f8d3 3504 	ldr.w	r3, [r3, #1284]	; 0x504
	val += cntr;
    2d16:	1818      	adds	r0, r3, r0
    2d18:	f141 0100 	adc.w	r1, r1, #0
	if (cntr < OVERFLOW_RISK_RANGE_END) {
    2d1c:	f5b3 1f80 	cmp.w	r3, #1048576	; 0x100000
    2d20:	d20a      	bcs.n	2d38 <z_nrf_rtc_timer_read+0x34>
		if (val < anchor) {
    2d22:	4b08      	ldr	r3, [pc, #32]	; (2d44 <z_nrf_rtc_timer_read+0x40>)
    2d24:	e9d3 2300 	ldrd	r2, r3, [r3]
    2d28:	4290      	cmp	r0, r2
    2d2a:	eb71 0303 	sbcs.w	r3, r1, r3
    2d2e:	d203      	bcs.n	2d38 <z_nrf_rtc_timer_read+0x34>
			val += COUNTER_SPAN;
    2d30:	f110 7080 	adds.w	r0, r0, #16777216	; 0x1000000
    2d34:	f141 0100 	adc.w	r1, r1, #0
}
    2d38:	4770      	bx	lr
    2d3a:	bf00      	nop
    2d3c:	20000ebc 	.word	0x20000ebc
    2d40:	50015000 	.word	0x50015000
    2d44:	20000140 	.word	0x20000140

00002d48 <compare_set>:
{
    2d48:	e92d 4ff7 	stmdb	sp!, {r0, r1, r2, r4, r5, r6, r7, r8, r9, sl, fp, lr}
    2d4c:	4616      	mov	r6, r2
    2d4e:	461f      	mov	r7, r3
    2d50:	4604      	mov	r4, r0
	key = compare_int_lock(chan);
    2d52:	f7ff ff6d 	bl	2c30 <compare_int_lock>
    2d56:	9000      	str	r0, [sp, #0]
	uint64_t curr_time = z_nrf_rtc_timer_read();
    2d58:	f7ff ffd4 	bl	2d04 <z_nrf_rtc_timer_read>
	if (curr_time < target_time) {
    2d5c:	42b0      	cmp	r0, r6
    2d5e:	eb71 0307 	sbcs.w	r3, r1, r7
    2d62:	d251      	bcs.n	2e08 <compare_set+0xc0>
		if (target_time - curr_time > COUNTER_HALF_SPAN) {
    2d64:	4b38      	ldr	r3, [pc, #224]	; (2e48 <compare_set+0x100>)
    2d66:	1a30      	subs	r0, r6, r0
    2d68:	eb67 0101 	sbc.w	r1, r7, r1
    2d6c:	4298      	cmp	r0, r3
    2d6e:	f171 0100 	sbcs.w	r1, r1, #0
    2d72:	d266      	bcs.n	2e42 <compare_set+0xfa>
		if (target_time != cc_data[chan].target_time) {
    2d74:	4b35      	ldr	r3, [pc, #212]	; (2e4c <compare_set+0x104>)
    2d76:	eb03 1304 	add.w	r3, r3, r4, lsl #4
    2d7a:	e9d3 2302 	ldrd	r2, r3, [r3, #8]
    2d7e:	429f      	cmp	r7, r3
    2d80:	bf08      	it	eq
    2d82:	4296      	cmpeq	r6, r2
    2d84:	d04a      	beq.n	2e1c <compare_set+0xd4>
	nrf_rtc_event_disable(RTC, RTC_CHANNEL_INT_MASK(chan));
    2d86:	f44f 3980 	mov.w	r9, #65536	; 0x10000
    p_reg->EVTENCLR = mask;
    2d8a:	4931      	ldr	r1, [pc, #196]	; (2e50 <compare_set+0x108>)
    2d8c:	fa09 f904 	lsl.w	r9, r9, r4
	event_clear(chan);
    2d90:	4620      	mov	r0, r4
	return absolute_time & COUNTER_MAX;
    2d92:	f026 4b7f 	bic.w	fp, r6, #4278190080	; 0xff000000
    2d96:	f8c1 9348 	str.w	r9, [r1, #840]	; 0x348
	event_clear(chan);
    2d9a:	f003 fbee 	bl	657a <event_clear>
	uint32_t cc_inc = MIN_CYCLES_FROM_NOW;
    2d9e:	f04f 0a03 	mov.w	sl, #3
	uint32_t cc_val = req_cc;
    2da2:	4658      	mov	r0, fp
	return nrf_rtc_event_check(RTC, RTC_CHANNEL_EVENT_ADDR(chan));
    2da4:	f104 0550 	add.w	r5, r4, #80	; 0x50
    2da8:	00ad      	lsls	r5, r5, #2
    return (bool)*(volatile uint32_t *)((uint8_t *)p_reg + (uint32_t)event);
    2daa:	b2ad      	uxth	r5, r5
    2dac:	f105 2550 	add.w	r5, r5, #1342197760	; 0x50005000
    p_reg->CC[ch] = cc_val;
    2db0:	f504 73a8 	add.w	r3, r4, #336	; 0x150
		if (counter_sub(cc_val, now + MIN_CYCLES_FROM_NOW) >
    2db4:	f8df c0a0 	ldr.w	ip, [pc, #160]	; 2e58 <compare_set+0x110>
    return (bool)*(volatile uint32_t *)((uint8_t *)p_reg + (uint32_t)event);
    2db8:	f505 3580 	add.w	r5, r5, #65536	; 0x10000
    p_reg->CC[ch] = cc_val;
    2dbc:	9301      	str	r3, [sp, #4]
    2dbe:	9a01      	ldr	r2, [sp, #4]
	nrf_rtc_cc_set(RTC, chan, cyc & COUNTER_MAX);
    2dc0:	f020 437f 	bic.w	r3, r0, #4278190080	; 0xff000000
    2dc4:	f841 3022 	str.w	r3, [r1, r2, lsl #2]
    p_reg->EVTENSET = mask;
    2dc8:	f8c1 9344 	str.w	r9, [r1, #836]	; 0x344
     return p_reg->COUNTER;
    2dcc:	f8d1 8504 	ldr.w	r8, [r1, #1284]	; 0x504
	return (a - b) & COUNTER_MAX;
    2dd0:	eba0 0008 	sub.w	r0, r0, r8
    2dd4:	3803      	subs	r0, #3
    2dd6:	f020 407f 	bic.w	r0, r0, #4278190080	; 0xff000000
		if (counter_sub(cc_val, now + MIN_CYCLES_FROM_NOW) >
    2dda:	4560      	cmp	r0, ip
    2ddc:	d91e      	bls.n	2e1c <compare_set+0xd4>
    return (bool)*(volatile uint32_t *)((uint8_t *)p_reg + (uint32_t)event);
    2dde:	6828      	ldr	r0, [r5, #0]
			if (event_check(chan)) {
    2de0:	b168      	cbz	r0, 2dfe <compare_set+0xb6>
     return p_reg->COUNTER;
    2de2:	f8d1 8504 	ldr.w	r8, [r1, #1284]	; 0x504
	return (a - b) & COUNTER_MAX;
    2de6:	eba8 000b 	sub.w	r0, r8, fp
    2dea:	f020 407f 	bic.w	r0, r0, #4278190080	; 0xff000000
				if (counter_sub(now, req_cc) > COUNTER_HALF_SPAN) {
    2dee:	f5b0 0f00 	cmp.w	r0, #8388608	; 0x800000
    2df2:	d913      	bls.n	2e1c <compare_set+0xd4>
					event_clear(chan);
    2df4:	4620      	mov	r0, r4
    2df6:	f003 fbc0 	bl	657a <event_clear>
    2dfa:	f8df c05c 	ldr.w	ip, [pc, #92]	; 2e58 <compare_set+0x110>
			cc_val = now + cc_inc;
    2dfe:	eb0a 0008 	add.w	r0, sl, r8
			cc_inc++;
    2e02:	f10a 0a01 	add.w	sl, sl, #1
	for (;;) {
    2e06:	e7da      	b.n	2dbe <compare_set+0x76>
		atomic_or(&force_isr_mask, BIT(chan));
    2e08:	2301      	movs	r3, #1
	return __atomic_fetch_or(target, value, __ATOMIC_SEQ_CST);
    2e0a:	4a12      	ldr	r2, [pc, #72]	; (2e54 <compare_set+0x10c>)
    2e0c:	40a3      	lsls	r3, r4
    2e0e:	e8d2 0fef 	ldaex	r0, [r2]
    2e12:	4318      	orrs	r0, r3
    2e14:	e8c2 0fe1 	stlex	r1, r0, [r2]
    2e18:	2900      	cmp	r1, #0
    2e1a:	d1f8      	bne.n	2e0e <compare_set+0xc6>
	return ret;
    2e1c:	2500      	movs	r5, #0
	cc_data[chan].target_time = target_time;
    2e1e:	490b      	ldr	r1, [pc, #44]	; (2e4c <compare_set+0x104>)
	cc_data[chan].callback = handler;
    2e20:	980c      	ldr	r0, [sp, #48]	; 0x30
	cc_data[chan].target_time = target_time;
    2e22:	0123      	lsls	r3, r4, #4
    2e24:	eb01 1204 	add.w	r2, r1, r4, lsl #4
	cc_data[chan].callback = handler;
    2e28:	50c8      	str	r0, [r1, r3]
	cc_data[chan].target_time = target_time;
    2e2a:	e9c2 6702 	strd	r6, r7, [r2, #8]
	cc_data[chan].user_context = user_data;
    2e2e:	9b0d      	ldr	r3, [sp, #52]	; 0x34
    2e30:	6053      	str	r3, [r2, #4]
	compare_int_unlock(chan, key);
    2e32:	4620      	mov	r0, r4
    2e34:	9900      	ldr	r1, [sp, #0]
    2e36:	f7ff ff3f 	bl	2cb8 <compare_int_unlock>
}
    2e3a:	4628      	mov	r0, r5
    2e3c:	b003      	add	sp, #12
    2e3e:	e8bd 8ff0 	ldmia.w	sp!, {r4, r5, r6, r7, r8, r9, sl, fp, pc}
			return -EINVAL;
    2e42:	f06f 0515 	mvn.w	r5, #21
    2e46:	e7f4      	b.n	2e32 <compare_set+0xea>
    2e48:	00800001 	.word	0x00800001
    2e4c:	20000128 	.word	0x20000128
    2e50:	50015000 	.word	0x50015000
    2e54:	20000eb4 	.word	0x20000eb4
    2e58:	007ffffd 	.word	0x007ffffd

00002e5c <sys_clock_driver_init>:
{
	return (uint32_t)z_nrf_rtc_timer_read();
}

static int sys_clock_driver_init(const struct device *dev)
{
    2e5c:	b573      	push	{r0, r1, r4, r5, r6, lr}
    p_reg->PRESCALER = val;
    2e5e:	2400      	movs	r4, #0
			CLOCK_CONTROL_NRF_LF_START_STABLE);

	/* TODO: replace with counter driver to access RTC */
	nrf_rtc_prescaler_set(RTC, 0);
	for (int32_t chan = 0; chan < CHAN_COUNT; chan++) {
		cc_data[chan].target_time = TARGET_TIME_INVALID;
    2e60:	f04f 30ff 	mov.w	r0, #4294967295	; 0xffffffff
    2e64:	f04f 31ff 	mov.w	r1, #4294967295	; 0xffffffff
    2e68:	4d16      	ldr	r5, [pc, #88]	; (2ec4 <sys_clock_driver_init+0x68>)
    2e6a:	4b17      	ldr	r3, [pc, #92]	; (2ec8 <sys_clock_driver_init+0x6c>)
    2e6c:	f8c5 4508 	str.w	r4, [r5, #1288]	; 0x508
    2e70:	e9c3 0102 	strd	r0, r1, [r3, #8]
    p_reg->INTENSET = mask;
    2e74:	f44f 3380 	mov.w	r3, #65536	; 0x10000
    2e78:	2602      	movs	r6, #2
    NVIC->ICPR[(((uint32_t)IRQn) >> 5UL)] = (uint32_t)(1UL << (((uint32_t)IRQn) & 0x1FUL));
    2e7a:	f44f 1200 	mov.w	r2, #2097152	; 0x200000
    2e7e:	f8c5 3304 	str.w	r3, [r5, #772]	; 0x304
    2e82:	4b12      	ldr	r3, [pc, #72]	; (2ecc <sys_clock_driver_init+0x70>)

	nrf_rtc_int_enable(RTC, NRF_RTC_INT_OVERFLOW_MASK);

	NVIC_ClearPendingIRQ(RTC_IRQn);

	IRQ_CONNECT(RTC_IRQn, DT_IRQ(DT_NODELABEL(RTC_LABEL), priority),
    2e84:	2101      	movs	r1, #1
    2e86:	f8c5 6304 	str.w	r6, [r5, #772]	; 0x304
    2e8a:	2015      	movs	r0, #21
    2e8c:	f8c3 2180 	str.w	r2, [r3, #384]	; 0x180
    2e90:	4622      	mov	r2, r4
    2e92:	f7fe feed 	bl	1c70 <z_arm_irq_priority_set>
		    rtc_nrf_isr, 0, 0);
	irq_enable(RTC_IRQn);
    2e96:	2015      	movs	r0, #21
    2e98:	f7fe fece 	bl	1c38 <arch_irq_enable>
    *(__IO uint32_t *)((uint32_t)p_reg + task) = 1;
    2e9c:	2301      	movs	r3, #1

	nrf_rtc_task_trigger(RTC, NRF_RTC_TASK_CLEAR);
	nrf_rtc_task_trigger(RTC, NRF_RTC_TASK_START);

	int_mask = BIT_MASK(CHAN_COUNT);
    2e9e:	4a0c      	ldr	r2, [pc, #48]	; (2ed0 <sys_clock_driver_init+0x74>)
    2ea0:	60ab      	str	r3, [r5, #8]
    2ea2:	602b      	str	r3, [r5, #0]
    2ea4:	6013      	str	r3, [r2, #0]
	}

	uint32_t initial_timeout = IS_ENABLED(CONFIG_TICKLESS_KERNEL) ?
		MAX_CYCLES : CYC_PER_TICK;

	compare_set(0, initial_timeout, sys_clock_timeout_handler, NULL);
    2ea6:	4b0b      	ldr	r3, [pc, #44]	; (2ed4 <sys_clock_driver_init+0x78>)
    2ea8:	4a0b      	ldr	r2, [pc, #44]	; (2ed8 <sys_clock_driver_init+0x7c>)
    2eaa:	9300      	str	r3, [sp, #0]
    2eac:	4620      	mov	r0, r4
    2eae:	2300      	movs	r3, #0
    2eb0:	9401      	str	r4, [sp, #4]
    2eb2:	f7ff ff49 	bl	2d48 <compare_set>

	z_nrf_clock_control_lf_on(mode);
    2eb6:	4630      	mov	r0, r6
    2eb8:	f7ff fac4 	bl	2444 <z_nrf_clock_control_lf_on>

	return 0;
}
    2ebc:	4620      	mov	r0, r4
    2ebe:	b002      	add	sp, #8
    2ec0:	bd70      	pop	{r4, r5, r6, pc}
    2ec2:	bf00      	nop
    2ec4:	50015000 	.word	0x50015000
    2ec8:	20000128 	.word	0x20000128
    2ecc:	e000e100 	.word	0xe000e100
    2ed0:	20000eb8 	.word	0x20000eb8
    2ed4:	00002c71 	.word	0x00002c71
    2ed8:	007fffff 	.word	0x007fffff

00002edc <rtc_nrf_isr>:
{
    2edc:	e92d 43f7 	stmdb	sp!, {r0, r1, r2, r4, r5, r6, r7, r8, r9, lr}
    return p_reg->INTENSET & mask;
    2ee0:	4b2e      	ldr	r3, [pc, #184]	; (2f9c <rtc_nrf_isr+0xc0>)
    2ee2:	f8d3 2304 	ldr.w	r2, [r3, #772]	; 0x304
	if (nrf_rtc_int_enable_check(RTC, NRF_RTC_INT_OVERFLOW_MASK) &&
    2ee6:	0790      	lsls	r0, r2, #30
    2ee8:	d50b      	bpl.n	2f02 <rtc_nrf_isr+0x26>
    return (bool)*(volatile uint32_t *)((uint8_t *)p_reg + (uint32_t)event);
    2eea:	f8d3 2104 	ldr.w	r2, [r3, #260]	; 0x104
    2eee:	b142      	cbz	r2, 2f02 <rtc_nrf_isr+0x26>
    *((volatile uint32_t *)((uint8_t *)p_reg + (uint32_t)event)) = 0;
    2ef0:	2200      	movs	r2, #0
    2ef2:	f8c3 2104 	str.w	r2, [r3, #260]	; 0x104
		overflow_cnt++;
    2ef6:	4a2a      	ldr	r2, [pc, #168]	; (2fa0 <rtc_nrf_isr+0xc4>)
    2ef8:	f8d3 3104 	ldr.w	r3, [r3, #260]	; 0x104
    2efc:	6813      	ldr	r3, [r2, #0]
    2efe:	3301      	adds	r3, #1
    2f00:	6013      	str	r3, [r2, #0]
    return p_reg->INTENSET & mask;
    2f02:	4a26      	ldr	r2, [pc, #152]	; (2f9c <rtc_nrf_isr+0xc0>)
    2f04:	f8d2 3304 	ldr.w	r3, [r2, #772]	; 0x304
	if (nrf_rtc_int_enable_check(RTC, RTC_CHANNEL_INT_MASK(chan))) {
    2f08:	03d9      	lsls	r1, r3, #15
    2f0a:	d527      	bpl.n	2f5c <rtc_nrf_isr+0x80>
	return __atomic_fetch_and(target, value, __ATOMIC_SEQ_CST);
    2f0c:	4b25      	ldr	r3, [pc, #148]	; (2fa4 <rtc_nrf_isr+0xc8>)
    2f0e:	e8d3 1fef 	ldaex	r1, [r3]
    2f12:	f021 0001 	bic.w	r0, r1, #1
    2f16:	e8c3 0fe4 	stlex	r4, r0, [r3]
    2f1a:	2c00      	cmp	r4, #0
    2f1c:	d1f7      	bne.n	2f0e <rtc_nrf_isr+0x32>
		if ((atomic_and(&force_isr_mask, ~BIT(chan)) & BIT(chan)) ||
    2f1e:	07cb      	lsls	r3, r1, #31
    2f20:	d402      	bmi.n	2f28 <rtc_nrf_isr+0x4c>
    return (bool)*(volatile uint32_t *)((uint8_t *)p_reg + (uint32_t)event);
    2f22:	f8d2 3140 	ldr.w	r3, [r2, #320]	; 0x140
    2f26:	b1cb      	cbz	r3, 2f5c <rtc_nrf_isr+0x80>
    *((volatile uint32_t *)((uint8_t *)p_reg + (uint32_t)event)) = 0;
    2f28:	2500      	movs	r5, #0
    2f2a:	4c1c      	ldr	r4, [pc, #112]	; (2f9c <rtc_nrf_isr+0xc0>)
    2f2c:	f8c4 5140 	str.w	r5, [r4, #320]	; 0x140
    2f30:	f8d4 3140 	ldr.w	r3, [r4, #320]	; 0x140
		curr_time = z_nrf_rtc_timer_read();
    2f34:	f7ff fee6 	bl	2d04 <z_nrf_rtc_timer_read>
	__asm__ volatile(
    2f38:	f04f 0320 	mov.w	r3, #32
    2f3c:	f3ef 8211 	mrs	r2, BASEPRI
    2f40:	f383 8812 	msr	BASEPRI_MAX, r3
    2f44:	f3bf 8f6f 	isb	sy
		expire_time = cc_data[chan].target_time;
    2f48:	4b17      	ldr	r3, [pc, #92]	; (2fa8 <rtc_nrf_isr+0xcc>)
    2f4a:	e9d3 6702 	ldrd	r6, r7, [r3, #8]
		if (curr_time >= expire_time) {
    2f4e:	42b0      	cmp	r0, r6
    2f50:	41b9      	sbcs	r1, r7
    2f52:	d206      	bcs.n	2f62 <rtc_nrf_isr+0x86>
	__asm__ volatile(
    2f54:	f382 8811 	msr	BASEPRI, r2
    2f58:	f3bf 8f6f 	isb	sy
}
    2f5c:	b003      	add	sp, #12
    2f5e:	e8bd 83f0 	ldmia.w	sp!, {r4, r5, r6, r7, r8, r9, pc}
			cc_data[chan].target_time = TARGET_TIME_INVALID;
    2f62:	f04f 38ff 	mov.w	r8, #4294967295	; 0xffffffff
			user_context = cc_data[chan].user_context;
    2f66:	e9d3 1000 	ldrd	r1, r0, [r3]
			cc_data[chan].target_time = TARGET_TIME_INVALID;
    2f6a:	f04f 39ff 	mov.w	r9, #4294967295	; 0xffffffff
			cc_data[chan].callback = NULL;
    2f6e:	601d      	str	r5, [r3, #0]
			cc_data[chan].target_time = TARGET_TIME_INVALID;
    2f70:	e9c3 8902 	strd	r8, r9, [r3, #8]
    p_reg->EVTENCLR = mask;
    2f74:	f44f 3380 	mov.w	r3, #65536	; 0x10000
    2f78:	f8c4 3348 	str.w	r3, [r4, #840]	; 0x348
    *((volatile uint32_t *)((uint8_t *)p_reg + (uint32_t)event)) = 0;
    2f7c:	f8c4 5140 	str.w	r5, [r4, #320]	; 0x140
    2f80:	f8d4 3140 	ldr.w	r3, [r4, #320]	; 0x140
    2f84:	f382 8811 	msr	BASEPRI, r2
    2f88:	f3bf 8f6f 	isb	sy
		if (handler) {
    2f8c:	2900      	cmp	r1, #0
    2f8e:	d0e5      	beq.n	2f5c <rtc_nrf_isr+0x80>
			handler(chan, expire_time, user_context);
    2f90:	9000      	str	r0, [sp, #0]
    2f92:	4632      	mov	r2, r6
    2f94:	463b      	mov	r3, r7
    2f96:	4628      	mov	r0, r5
    2f98:	4788      	blx	r1
    2f9a:	e7df      	b.n	2f5c <rtc_nrf_isr+0x80>
    2f9c:	50015000 	.word	0x50015000
    2fa0:	20000ebc 	.word	0x20000ebc
    2fa4:	20000eb4 	.word	0x20000eb4
    2fa8:	20000128 	.word	0x20000128

00002fac <sys_clock_set_timeout>:
	if (ticks == K_TICKS_FOREVER) {
    2fac:	1c43      	adds	r3, r0, #1
{
    2fae:	b513      	push	{r0, r1, r4, lr}
	if (ticks == K_TICKS_FOREVER) {
    2fb0:	d021      	beq.n	2ff6 <sys_clock_set_timeout+0x4a>
		cyc = CLAMP(ticks, 1, (int32_t)MAX_TICKS);
    2fb2:	2801      	cmp	r0, #1
    2fb4:	dd21      	ble.n	2ffa <sys_clock_set_timeout+0x4e>
    2fb6:	4a12      	ldr	r2, [pc, #72]	; (3000 <sys_clock_set_timeout+0x54>)
    2fb8:	4b12      	ldr	r3, [pc, #72]	; (3004 <sys_clock_set_timeout+0x58>)
    2fba:	4290      	cmp	r0, r2
    2fbc:	bfd4      	ite	le
    2fbe:	4604      	movle	r4, r0
    2fc0:	461c      	movgt	r4, r3
	uint32_t unannounced = z_nrf_rtc_timer_read() - last_count;
    2fc2:	f7ff fe9f 	bl	2d04 <z_nrf_rtc_timer_read>
    2fc6:	4b10      	ldr	r3, [pc, #64]	; (3008 <sys_clock_set_timeout+0x5c>)
	if (cyc > MAX_CYCLES) {
    2fc8:	490e      	ldr	r1, [pc, #56]	; (3004 <sys_clock_set_timeout+0x58>)
	uint32_t unannounced = z_nrf_rtc_timer_read() - last_count;
    2fca:	e9d3 2300 	ldrd	r2, r3, [r3]
    2fce:	1a80      	subs	r0, r0, r2
		cyc = 0;
    2fd0:	f5b0 0f00 	cmp.w	r0, #8388608	; 0x800000
    2fd4:	bf28      	it	cs
    2fd6:	2400      	movcs	r4, #0
	cyc += unannounced;
    2fd8:	4404      	add	r4, r0
	if (cyc > MAX_CYCLES) {
    2fda:	428c      	cmp	r4, r1
    2fdc:	bf28      	it	cs
    2fde:	460c      	movcs	r4, r1
	uint64_t target_time = cyc + last_count;
    2fe0:	2000      	movs	r0, #0
	compare_set(0, target_time, sys_clock_timeout_handler, NULL);
    2fe2:	490a      	ldr	r1, [pc, #40]	; (300c <sys_clock_set_timeout+0x60>)
	uint64_t target_time = cyc + last_count;
    2fe4:	18a2      	adds	r2, r4, r2
	compare_set(0, target_time, sys_clock_timeout_handler, NULL);
    2fe6:	9001      	str	r0, [sp, #4]
    2fe8:	9100      	str	r1, [sp, #0]
    2fea:	f143 0300 	adc.w	r3, r3, #0
    2fee:	f7ff feab 	bl	2d48 <compare_set>
}
    2ff2:	b002      	add	sp, #8
    2ff4:	bd10      	pop	{r4, pc}
		cyc = MAX_TICKS * CYC_PER_TICK;
    2ff6:	4c03      	ldr	r4, [pc, #12]	; (3004 <sys_clock_set_timeout+0x58>)
    2ff8:	e7e3      	b.n	2fc2 <sys_clock_set_timeout+0x16>
		cyc = CLAMP(ticks, 1, (int32_t)MAX_TICKS);
    2ffa:	2401      	movs	r4, #1
    2ffc:	e7e1      	b.n	2fc2 <sys_clock_set_timeout+0x16>
    2ffe:	bf00      	nop
    3000:	007ffffe 	.word	0x007ffffe
    3004:	007fffff 	.word	0x007fffff
    3008:	20000138 	.word	0x20000138
    300c:	00002c71 	.word	0x00002c71

00003010 <sys_clock_elapsed>:
{
    3010:	b508      	push	{r3, lr}
	return (z_nrf_rtc_timer_read() - last_count) / CYC_PER_TICK;
    3012:	f7ff fe77 	bl	2d04 <z_nrf_rtc_timer_read>
    3016:	4b02      	ldr	r3, [pc, #8]	; (3020 <sys_clock_elapsed+0x10>)
    3018:	681b      	ldr	r3, [r3, #0]
}
    301a:	1ac0      	subs	r0, r0, r3
    301c:	bd08      	pop	{r3, pc}
    301e:	bf00      	nop
    3020:	20000138 	.word	0x20000138

00003024 <pinctrl_configure_pins>:
#define NRF_PSEL_QSPI(reg, line) ((NRF_QSPI_Type *)reg)->PSEL.line
#endif

int pinctrl_configure_pins(const pinctrl_soc_pin_t *pins, uint8_t pin_cnt,
			   uintptr_t reg)
{
    3024:	e92d 41f0 	stmdb	sp!, {r4, r5, r6, r7, r8, lr}
    nrf_gpio_port_out_set(reg, 1UL << pin_number);
    3028:	2701      	movs	r7, #1
    p_reg->OUTSET = set_mask;
    302a:	4e3f      	ldr	r6, [pc, #252]	; (3128 <pinctrl_configure_pins+0x104>)
    302c:	eb00 0181 	add.w	r1, r0, r1, lsl #2
	for (uint8_t i = 0U; i < pin_cnt; i++) {
    3030:	4281      	cmp	r1, r0
    3032:	d102      	bne.n	303a <pinctrl_configure_pins+0x16>
			nrf_gpio_cfg(pin, dir, input, NRF_GET_PULL(pins[i]),
				     drive, NRF_GPIO_PIN_NOSENSE);
		}
	}

	return 0;
    3034:	2000      	movs	r0, #0
}
    3036:	e8bd 81f0 	ldmia.w	sp!, {r4, r5, r6, r7, r8, pc}
		nrf_gpio_pin_drive_t drive = NRF_GET_DRIVE(pins[i]);
    303a:	6805      	ldr	r5, [r0, #0]
		uint32_t pin = NRF_GET_PIN(pins[i]);
    303c:	f005 037f 	and.w	r3, r5, #127	; 0x7f
		nrf_gpio_pin_drive_t drive = NRF_GET_DRIVE(pins[i]);
    3040:	f3c5 2443 	ubfx	r4, r5, #9, #4
			pin = 0xFFFFFFFFU;
    3044:	2b7f      	cmp	r3, #127	; 0x7f
		switch (NRF_GET_FUN(pins[i])) {
    3046:	ea4f 4515 	mov.w	r5, r5, lsr #16
			pin = 0xFFFFFFFFU;
    304a:	bf08      	it	eq
    304c:	f04f 33ff 	moveq.w	r3, #4294967295	; 0xffffffff
		switch (NRF_GET_FUN(pins[i])) {
    3050:	2d19      	cmp	r5, #25
    3052:	d866      	bhi.n	3122 <pinctrl_configure_pins+0xfe>
    3054:	e8df f005 	tbb	[pc, r5]
    3058:	1e1b160d 	.word	0x1e1b160d
    305c:	651e2d21 	.word	0x651e2d21
    3060:	31656565 	.word	0x31656565
    3064:	65656551 	.word	0x65656551
    3068:	65656565 	.word	0x65656565
    306c:	5c546565 	.word	0x5c546565
    3070:	625f      	.short	0x625f
			NRF_PSEL_UART(reg, TXD) = pin;
    3072:	f8c2 350c 	str.w	r3, [r2, #1292]	; 0x50c
    *p_pin = pin_number & 0x1F;
    3076:	f003 051f 	and.w	r5, r3, #31
    nrf_gpio_port_out_set(reg, 1UL << pin_number);
    307a:	fa07 f505 	lsl.w	r5, r7, r5
    p_reg->OUTSET = set_mask;
    307e:	60b5      	str	r5, [r6, #8]
}
    3080:	2501      	movs	r5, #1
    3082:	e002      	b.n	308a <pinctrl_configure_pins+0x66>
			NRF_PSEL_UART(reg, RXD) = pin;
    3084:	f8c2 3514 	str.w	r3, [r2, #1300]	; 0x514
			input = NRF_GPIO_PIN_INPUT_CONNECT;
    3088:	2500      	movs	r5, #0
    308a:	46ac      	mov	ip, r5
    308c:	e01c      	b.n	30c8 <pinctrl_configure_pins+0xa4>
			NRF_PSEL_UART(reg, RTS) = pin;
    308e:	f8c2 3508 	str.w	r3, [r2, #1288]	; 0x508
			if (write != NO_WRITE) {
    3092:	e7f0      	b.n	3076 <pinctrl_configure_pins+0x52>
			NRF_PSEL_UART(reg, CTS) = pin;
    3094:	f8c2 3510 	str.w	r3, [r2, #1296]	; 0x510
			if (write != NO_WRITE) {
    3098:	e7f6      	b.n	3088 <pinctrl_configure_pins+0x64>
			input = NRF_GPIO_PIN_INPUT_CONNECT;
    309a:	2500      	movs	r5, #0
			NRF_PSEL_SPIM(reg, SCK) = pin;
    309c:	f8c2 3508 	str.w	r3, [r2, #1288]	; 0x508
    *p_pin = pin_number & 0x1F;
    30a0:	f003 0c1f 	and.w	ip, r3, #31
    nrf_gpio_port_out_clear(reg, 1UL << pin_number);
    30a4:	fa07 fc0c 	lsl.w	ip, r7, ip
    p_reg->OUTCLR = clr_mask;
    30a8:	f8c6 c00c 	str.w	ip, [r6, #12]
}
    30ac:	f04f 0c01 	mov.w	ip, #1
    30b0:	e00a      	b.n	30c8 <pinctrl_configure_pins+0xa4>
			NRF_PSEL_SPIM(reg, MOSI) = pin;
    30b2:	f8c2 350c 	str.w	r3, [r2, #1292]	; 0x50c
			pin = 0xFFFFFFFFU;
    30b6:	2501      	movs	r5, #1
    30b8:	e7f2      	b.n	30a0 <pinctrl_configure_pins+0x7c>
			NRF_PSEL_TWIM(reg, SCL) = pin;
    30ba:	f8c2 3508 	str.w	r3, [r2, #1288]	; 0x508
			if (drive == NRF_DRIVE_S0S1) {
    30be:	2c00      	cmp	r4, #0
    30c0:	d1e2      	bne.n	3088 <pinctrl_configure_pins+0x64>
			input = NRF_GPIO_PIN_INPUT_CONNECT;
    30c2:	2500      	movs	r5, #0
				drive = NRF_DRIVE_S0D1;
    30c4:	2406      	movs	r4, #6
			dir = NRF_GPIO_PIN_DIR_INPUT;
    30c6:	46ac      	mov	ip, r5
			if (NRF_GET_LP(pins[i]) == NRF_LP_ENABLE) {
    30c8:	f850 eb04 	ldr.w	lr, [r0], #4
           ((uint32_t)drive << GPIO_PIN_CNF_DRIVE_Pos) |
    30cc:	0224      	lsls	r4, r4, #8
    30ce:	f40e 5800 	and.w	r8, lr, #8192	; 0x2000
				input = NRF_GPIO_PIN_INPUT_DISCONNECT;
    30d2:	f1b8 0f00 	cmp.w	r8, #0
    30d6:	bf1c      	itt	ne
    30d8:	f04f 0c00 	movne.w	ip, #0
    30dc:	2501      	movne	r5, #1
           ((uint32_t)pull << GPIO_PIN_CNF_PULL_Pos)   |
    30de:	f3ce 1ec1 	ubfx	lr, lr, #7, #2
    30e2:	ea44 048e 	orr.w	r4, r4, lr, lsl #2
    *p_pin = pin_number & 0x1F;
    30e6:	f003 031f 	and.w	r3, r3, #31
           ((uint32_t)pull << GPIO_PIN_CNF_PULL_Pos)   |
    30ea:	ea44 040c 	orr.w	r4, r4, ip
    30ee:	ea44 0445 	orr.w	r4, r4, r5, lsl #1
    reg->PIN_CNF[pin_number] = cnf;
    30f2:	3380      	adds	r3, #128	; 0x80
    30f4:	f846 4023 	str.w	r4, [r6, r3, lsl #2]
	for (uint8_t i = 0U; i < pin_cnt; i++) {
    30f8:	e79a      	b.n	3030 <pinctrl_configure_pins+0xc>
			NRF_PSEL_TWIM(reg, SDA) = pin;
    30fa:	f8c2 350c 	str.w	r3, [r2, #1292]	; 0x50c
			if (drive == NRF_DRIVE_S0S1) {
    30fe:	e7de      	b.n	30be <pinctrl_configure_pins+0x9a>
			NRF_PSEL_PWM(reg, OUT[0]) = pin;
    3100:	f8c2 3560 	str.w	r3, [r2, #1376]	; 0x560
			write = NRF_GET_INVERT(pins[i]);
    3104:	6805      	ldr	r5, [r0, #0]
    3106:	f3c5 3580 	ubfx	r5, r5, #14, #1
    if (value == 0)
    310a:	2d00      	cmp	r5, #0
    310c:	d0d3      	beq.n	30b6 <pinctrl_configure_pins+0x92>
    310e:	e7b2      	b.n	3076 <pinctrl_configure_pins+0x52>
			NRF_PSEL_PWM(reg, OUT[1]) = pin;
    3110:	f8c2 3564 	str.w	r3, [r2, #1380]	; 0x564
			write = NRF_GET_INVERT(pins[i]);
    3114:	e7f6      	b.n	3104 <pinctrl_configure_pins+0xe0>
			NRF_PSEL_PWM(reg, OUT[2]) = pin;
    3116:	f8c2 3568 	str.w	r3, [r2, #1384]	; 0x568
			write = NRF_GET_INVERT(pins[i]);
    311a:	e7f3      	b.n	3104 <pinctrl_configure_pins+0xe0>
			NRF_PSEL_PWM(reg, OUT[3]) = pin;
    311c:	f8c2 356c 	str.w	r3, [r2, #1388]	; 0x56c
    3120:	e7f0      	b.n	3104 <pinctrl_configure_pins+0xe0>
		switch (NRF_GET_FUN(pins[i])) {
    3122:	f06f 0085 	mvn.w	r0, #133	; 0x85
    3126:	e786      	b.n	3036 <pinctrl_configure_pins+0x12>
    3128:	50842500 	.word	0x50842500

0000312c <fprotect_area>:

#define SPU_BLOCK_SIZE CONFIG_FPROTECT_BLOCK_SIZE

int fprotect_area(uint32_t start, size_t length)
{
	if (start % SPU_BLOCK_SIZE != 0 ||
    312c:	ea40 0301 	orr.w	r3, r0, r1
    3130:	f3c3 030e 	ubfx	r3, r3, #0, #15
{
    3134:	b530      	push	{r4, r5, lr}
	if (start % SPU_BLOCK_SIZE != 0 ||
    3136:	b98b      	cbnz	r3, 315c <fprotect_area+0x30>
                                               uint32_t       permissions,
                                               bool           lock_conf)
{
    NRFX_ASSERT(!(p_reg->FLASHREGION[region_id].PERM & SPU_FLASHREGION_PERM_LOCK_Msk));

    p_reg->FLASHREGION[region_id].PERM = permissions         |
    3138:	f240 1515 	movw	r5, #277	; 0x115
    313c:	4c09      	ldr	r4, [pc, #36]	; (3164 <fprotect_area+0x38>)
		length % SPU_BLOCK_SIZE != 0) {
		return -EINVAL;
	}

	for (uint32_t i = 0; i < length / SPU_BLOCK_SIZE; i++) {
    313e:	0bc9      	lsrs	r1, r1, #15
		nrf_spu_flashregion_set(NRF_SPU_S,
    3140:	f3c0 30c7 	ubfx	r0, r0, #15, #8
	for (uint32_t i = 0; i < length / SPU_BLOCK_SIZE; i++) {
    3144:	4299      	cmp	r1, r3
    3146:	d101      	bne.n	314c <fprotect_area+0x20>
				NRF_SPU_MEM_PERM_EXECUTE |
				NRF_SPU_MEM_PERM_READ,
				true);
	}

	return 0;
    3148:	2000      	movs	r0, #0
}
    314a:	bd30      	pop	{r4, r5, pc}
		nrf_spu_flashregion_set(NRF_SPU_S,
    314c:	18c2      	adds	r2, r0, r3
    314e:	b2d2      	uxtb	r2, r2
    3150:	f502 72c0 	add.w	r2, r2, #384	; 0x180
    3154:	f844 5022 	str.w	r5, [r4, r2, lsl #2]
	for (uint32_t i = 0; i < length / SPU_BLOCK_SIZE; i++) {
    3158:	3301      	adds	r3, #1
    315a:	e7f3      	b.n	3144 <fprotect_area+0x18>
		return -EINVAL;
    315c:	f06f 0015 	mvn.w	r0, #21
    3160:	e7f3      	b.n	314a <fprotect_area+0x1e>
    3162:	bf00      	nop
    3164:	50003000 	.word	0x50003000

00003168 <k_sys_fatal_error_handler>:
	ARG_UNUSED(reason);

	LOG_PANIC();

	if (IS_ENABLED(CONFIG_RESET_ON_FATAL_ERROR)) {
		LOG_ERR("Resetting system");
    3168:	4803      	ldr	r0, [pc, #12]	; (3178 <k_sys_fatal_error_handler+0x10>)
    316a:	2145      	movs	r1, #69	; 0x45
{
    316c:	b508      	push	{r3, lr}
		LOG_ERR("Resetting system");
    316e:	f002 ff69 	bl	6044 <z_log_minimal_printk>
		sys_arch_reboot(0);
    3172:	2000      	movs	r0, #0
    3174:	f7ff f83c 	bl	21f0 <sys_arch_reboot>
		for (;;) {
			/* Spin endlessly */
		}
	}

	CODE_UNREACHABLE;
    3178:	00007acc 	.word	0x00007acc

0000317c <boot_write_magic>:
    return rc;
}

int
boot_write_magic(const struct flash_area *fap)
{
    317c:	b530      	push	{r4, r5, lr}
    return flash_area_get_size(fap) - BOOT_MAGIC_SZ;
    317e:	6881      	ldr	r1, [r0, #8]
{
    3180:	b085      	sub	sp, #20
    return flash_area_get_size(fap) - BOOT_MAGIC_SZ;
    3182:	3910      	subs	r1, #16
     * returned by boot_magic_off() is the start of magic which is not the
     * start of the flash write boundary and thus writes to the magic will fail.
     * To account for this change, write to magic is first padded with 0xFF
     * before writing to the trailer.
     */
    pad_off = ALIGN_DOWN(off, BOOT_MAX_ALIGN);
    3184:	f021 0407 	bic.w	r4, r1, #7
{
    3188:	4605      	mov	r5, r0

    erased_val = flash_area_erased_val(fap);
    318a:	f002 ffb0 	bl	60ee <flash_area_erased_val>

    memset(&magic[0], erased_val, sizeof(magic));
    318e:	2210      	movs	r2, #16
    erased_val = flash_area_erased_val(fap);
    3190:	4601      	mov	r1, r0
    memset(&magic[0], erased_val, sizeof(magic));
    3192:	4668      	mov	r0, sp
    3194:	f003 f80a 	bl	61ac <memset>
    memcpy(&magic[BOOT_MAGIC_ALIGN_SIZE - BOOT_MAGIC_SZ], BOOT_IMG_MAGIC, BOOT_MAGIC_SZ);
    3198:	2210      	movs	r2, #16
    319a:	4668      	mov	r0, sp
    319c:	4906      	ldr	r1, [pc, #24]	; (31b8 <boot_write_magic+0x3c>)
    319e:	f002 fffa 	bl	6196 <memcpy>

    BOOT_LOG_DBG("writing magic; fa_id=%d off=0x%lx (0x%lx)",
                 flash_area_get_id(fap), (unsigned long)off,
                 (unsigned long)(flash_area_get_off(fap) + off));
    rc = flash_area_write(fap, pad_off, &magic[0], BOOT_MAGIC_ALIGN_SIZE);
    31a2:	2310      	movs	r3, #16
    31a4:	466a      	mov	r2, sp
    31a6:	4621      	mov	r1, r4
    31a8:	4628      	mov	r0, r5
    31aa:	f002 ff6e 	bl	608a <flash_area_write>
    if (rc != 0) {
        return BOOT_EFLASH;
    }

    return 0;
}
    31ae:	3800      	subs	r0, #0
    31b0:	bf18      	it	ne
    31b2:	2001      	movne	r0, #1
    31b4:	b005      	add	sp, #20
    31b6:	bd30      	pop	{r4, r5, pc}
    31b8:	00007020 	.word	0x00007020

000031bc <boot_read_swap_state>:
{
    31bc:	b530      	push	{r4, r5, lr}
    31be:	460d      	mov	r5, r1
    return flash_area_get_size(fap) - BOOT_MAGIC_SZ;
    31c0:	6881      	ldr	r1, [r0, #8]
{
    31c2:	b087      	sub	sp, #28
    rc = flash_area_read(fap, off, magic, BOOT_MAGIC_SZ);
    31c4:	2310      	movs	r3, #16
    31c6:	aa02      	add	r2, sp, #8
    31c8:	3910      	subs	r1, #16
{
    31ca:	4604      	mov	r4, r0
    rc = flash_area_read(fap, off, magic, BOOT_MAGIC_SZ);
    31cc:	f002 ff48 	bl	6060 <flash_area_read>
    if (rc < 0) {
    31d0:	2800      	cmp	r0, #0
    31d2:	da02      	bge.n	31da <boot_read_swap_state+0x1e>
        return BOOT_EFLASH;
    31d4:	2001      	movs	r0, #1
}
    31d6:	b007      	add	sp, #28
    31d8:	bd30      	pop	{r4, r5, pc}
    if (bootutil_buffer_is_erased(fap, magic, BOOT_MAGIC_SZ)) {
    31da:	2210      	movs	r2, #16
    31dc:	4620      	mov	r0, r4
    31de:	a902      	add	r1, sp, #8
    31e0:	f003 fa09 	bl	65f6 <bootutil_buffer_is_erased>
    31e4:	2800      	cmp	r0, #0
    31e6:	d13a      	bne.n	325e <boot_read_swap_state+0xa2>
    if (memcmp(magic, BOOT_IMG_MAGIC, BOOT_MAGIC_SZ) == 0) {
    31e8:	2210      	movs	r2, #16
    31ea:	491e      	ldr	r1, [pc, #120]	; (3264 <boot_read_swap_state+0xa8>)
    31ec:	a802      	add	r0, sp, #8
    31ee:	f002 ffc2 	bl	6176 <memcmp>
    return BOOT_MAGIC_BAD;
    31f2:	2800      	cmp	r0, #0
        state->magic = boot_magic_decode(magic);
    31f4:	bf0c      	ite	eq
    31f6:	2301      	moveq	r3, #1
    31f8:	2302      	movne	r3, #2
        state->magic = BOOT_MAGIC_UNSET;
    31fa:	702b      	strb	r3, [r5, #0]
    off = boot_swap_info_off(fap);
    31fc:	4620      	mov	r0, r4
    31fe:	f003 f9e6 	bl	65ce <boot_swap_info_off>
    rc = flash_area_read(fap, off, &swap_info, sizeof swap_info);
    3202:	2301      	movs	r3, #1
    off = boot_swap_info_off(fap);
    3204:	4601      	mov	r1, r0
    rc = flash_area_read(fap, off, &swap_info, sizeof swap_info);
    3206:	f10d 0207 	add.w	r2, sp, #7
    320a:	4620      	mov	r0, r4
    320c:	f002 ff28 	bl	6060 <flash_area_read>
    if (rc < 0) {
    3210:	2800      	cmp	r0, #0
    3212:	dbdf      	blt.n	31d4 <boot_read_swap_state+0x18>
    state->swap_type = BOOT_GET_SWAP_TYPE(swap_info);
    3214:	f89d 3007 	ldrb.w	r3, [sp, #7]
    if (bootutil_buffer_is_erased(fap, &swap_info, sizeof swap_info) ||
    3218:	4620      	mov	r0, r4
    state->swap_type = BOOT_GET_SWAP_TYPE(swap_info);
    321a:	f003 020f 	and.w	r2, r3, #15
    state->image_num = BOOT_GET_IMAGE_NUM(swap_info);
    321e:	091b      	lsrs	r3, r3, #4
    state->swap_type = BOOT_GET_SWAP_TYPE(swap_info);
    3220:	706a      	strb	r2, [r5, #1]
    state->image_num = BOOT_GET_IMAGE_NUM(swap_info);
    3222:	712b      	strb	r3, [r5, #4]
    if (bootutil_buffer_is_erased(fap, &swap_info, sizeof swap_info) ||
    3224:	2201      	movs	r2, #1
    3226:	f10d 0107 	add.w	r1, sp, #7
    322a:	f003 f9e4 	bl	65f6 <bootutil_buffer_is_erased>
    322e:	b910      	cbnz	r0, 3236 <boot_read_swap_state+0x7a>
    3230:	786b      	ldrb	r3, [r5, #1]
    3232:	2b04      	cmp	r3, #4
    3234:	d903      	bls.n	323e <boot_read_swap_state+0x82>
        state->swap_type = BOOT_SWAP_TYPE_NONE;
    3236:	2301      	movs	r3, #1
    3238:	706b      	strb	r3, [r5, #1]
        state->image_num = 0;
    323a:	2300      	movs	r3, #0
    323c:	712b      	strb	r3, [r5, #4]
    return ALIGN_DOWN(boot_magic_off(fap) - BOOT_MAX_ALIGN, BOOT_MAX_ALIGN);
    323e:	68a2      	ldr	r2, [r4, #8]
    return boot_read_flag(fap, copy_done, boot_copy_done_off(fap));
    3240:	4620      	mov	r0, r4
    return ALIGN_DOWN(boot_magic_off(fap) - BOOT_MAX_ALIGN, BOOT_MAX_ALIGN);
    3242:	3a18      	subs	r2, #24
    3244:	f022 0207 	bic.w	r2, r2, #7
    return boot_read_flag(fap, copy_done, boot_copy_done_off(fap));
    3248:	3a08      	subs	r2, #8
    324a:	1ca9      	adds	r1, r5, #2
    324c:	f003 f9e6 	bl	661c <boot_read_flag>
    if (rc) {
    3250:	2800      	cmp	r0, #0
    3252:	d1bf      	bne.n	31d4 <boot_read_swap_state+0x18>
    return boot_read_image_ok(fap, &state->image_ok);
    3254:	4620      	mov	r0, r4
    3256:	1ce9      	adds	r1, r5, #3
    3258:	f003 fa39 	bl	66ce <boot_read_image_ok>
    325c:	e7bb      	b.n	31d6 <boot_read_swap_state+0x1a>
    325e:	2303      	movs	r3, #3
    3260:	e7cb      	b.n	31fa <boot_read_swap_state+0x3e>
    3262:	bf00      	nop
    3264:	00007020 	.word	0x00007020

00003268 <boot_swap_type_multi>:
    return boot_write_trailer(fap, off, (const uint8_t *) &swap_info, 1);
}

int
boot_swap_type_multi(int image_index)
{
    3268:	b57f      	push	{r0, r1, r2, r3, r4, r5, r6, lr}
    326a:	4605      	mov	r5, r0

    rc = BOOT_HOOK_CALL(boot_read_swap_state_primary_slot_hook,
                        BOOT_HOOK_REGULAR, image_index, &primary_slot);
    if (rc == BOOT_HOOK_REGULAR)
    {
        rc = boot_read_swap_state_by_id(FLASH_AREA_IMAGE_PRIMARY(image_index),
    326c:	4669      	mov	r1, sp
    326e:	2003      	movs	r0, #3
    3270:	f003 fa33 	bl	66da <boot_read_swap_state_by_id>
                                        &primary_slot);
    }
    if (rc) {
    3274:	4604      	mov	r4, r0
    3276:	b110      	cbz	r0, 327e <boot_swap_type_multi+0x16>
        return BOOT_SWAP_TYPE_PANIC;
    3278:	20ff      	movs	r0, #255	; 0xff
        }
    }

    BOOT_LOG_INF("Swap type: none");
    return BOOT_SWAP_TYPE_NONE;
}
    327a:	b004      	add	sp, #16
    327c:	bd70      	pop	{r4, r5, r6, pc}
    rc = boot_read_swap_state_by_id(FLASH_AREA_IMAGE_SECONDARY(image_index),
    327e:	2009      	movs	r0, #9
    3280:	a902      	add	r1, sp, #8
    3282:	f003 fa2a 	bl	66da <boot_read_swap_state_by_id>
    if (rc == BOOT_EFLASH) {
    3286:	2801      	cmp	r0, #1
    3288:	d136      	bne.n	32f8 <boot_swap_type_multi+0x90>
        BOOT_LOG_INF("Secondary image of image pair (%d.) "
    328a:	462a      	mov	r2, r5
    328c:	2149      	movs	r1, #73	; 0x49
    328e:	4828      	ldr	r0, [pc, #160]	; (3330 <boot_swap_type_multi+0xc8>)
    3290:	f002 fed8 	bl	6044 <z_log_minimal_printk>
        secondary_slot.magic = BOOT_MAGIC_UNSET;
    3294:	4b27      	ldr	r3, [pc, #156]	; (3334 <boot_swap_type_multi+0xcc>)
        secondary_slot.image_num = 0;
    3296:	f88d 400c 	strb.w	r4, [sp, #12]
        secondary_slot.magic = BOOT_MAGIC_UNSET;
    329a:	9302      	str	r3, [sp, #8]
            boot_magic_compatible_check(table->magic_secondary_slot,
    329c:	2200      	movs	r2, #0
        if (boot_magic_compatible_check(table->magic_primary_slot,
    329e:	f89d 5000 	ldrb.w	r5, [sp]
            boot_magic_compatible_check(table->magic_secondary_slot,
    32a2:	f89d 6008 	ldrb.w	r6, [sp, #8]
    32a6:	4c24      	ldr	r4, [pc, #144]	; (3338 <boot_swap_type_multi+0xd0>)
        if (boot_magic_compatible_check(table->magic_primary_slot,
    32a8:	4629      	mov	r1, r5
    32aa:	7820      	ldrb	r0, [r4, #0]
    32ac:	f003 f995 	bl	65da <boot_magic_compatible_check>
    32b0:	b348      	cbz	r0, 3306 <boot_swap_type_multi+0x9e>
            boot_magic_compatible_check(table->magic_secondary_slot,
    32b2:	4631      	mov	r1, r6
    32b4:	7860      	ldrb	r0, [r4, #1]
    32b6:	f003 f990 	bl	65da <boot_magic_compatible_check>
                                        primary_slot.magic) &&
    32ba:	b320      	cbz	r0, 3306 <boot_swap_type_multi+0x9e>
            (table->image_ok_primary_slot == BOOT_FLAG_ANY   ||
    32bc:	78a3      	ldrb	r3, [r4, #2]
                                        secondary_slot.magic) &&
    32be:	2b04      	cmp	r3, #4
    32c0:	d003      	beq.n	32ca <boot_swap_type_multi+0x62>
            (table->image_ok_primary_slot == BOOT_FLAG_ANY   ||
    32c2:	f89d 1003 	ldrb.w	r1, [sp, #3]
    32c6:	4299      	cmp	r1, r3
    32c8:	d11d      	bne.n	3306 <boot_swap_type_multi+0x9e>
            (table->image_ok_secondary_slot == BOOT_FLAG_ANY ||
    32ca:	78e3      	ldrb	r3, [r4, #3]
                table->image_ok_primary_slot == primary_slot.image_ok) &&
    32cc:	2b04      	cmp	r3, #4
    32ce:	d003      	beq.n	32d8 <boot_swap_type_multi+0x70>
            (table->image_ok_secondary_slot == BOOT_FLAG_ANY ||
    32d0:	f89d 100b 	ldrb.w	r1, [sp, #11]
    32d4:	4299      	cmp	r1, r3
    32d6:	d116      	bne.n	3306 <boot_swap_type_multi+0x9e>
            (table->copy_done_primary_slot == BOOT_FLAG_ANY  ||
    32d8:	7923      	ldrb	r3, [r4, #4]
                table->image_ok_secondary_slot == secondary_slot.image_ok) &&
    32da:	2b04      	cmp	r3, #4
    32dc:	d10f      	bne.n	32fe <boot_swap_type_multi+0x96>
            BOOT_LOG_INF("Swap type: %s",
    32de:	7963      	ldrb	r3, [r4, #5]
    32e0:	2b02      	cmp	r3, #2
    32e2:	d11b      	bne.n	331c <boot_swap_type_multi+0xb4>
    32e4:	4a15      	ldr	r2, [pc, #84]	; (333c <boot_swap_type_multi+0xd4>)
    32e6:	4816      	ldr	r0, [pc, #88]	; (3340 <boot_swap_type_multi+0xd8>)
    32e8:	2149      	movs	r1, #73	; 0x49
    32ea:	f002 feab 	bl	6044 <z_log_minimal_printk>
            if (table->swap_type != BOOT_SWAP_TYPE_TEST &&
    32ee:	7960      	ldrb	r0, [r4, #5]
    32f0:	1e83      	subs	r3, r0, #2
    32f2:	2b02      	cmp	r3, #2
    32f4:	d9c1      	bls.n	327a <boot_swap_type_multi+0x12>
    32f6:	e7bf      	b.n	3278 <boot_swap_type_multi+0x10>
    } else if (rc) {
    32f8:	2800      	cmp	r0, #0
    32fa:	d0cf      	beq.n	329c <boot_swap_type_multi+0x34>
    32fc:	e7bc      	b.n	3278 <boot_swap_type_multi+0x10>
            (table->copy_done_primary_slot == BOOT_FLAG_ANY  ||
    32fe:	f89d 1002 	ldrb.w	r1, [sp, #2]
    3302:	4299      	cmp	r1, r3
    3304:	d0eb      	beq.n	32de <boot_swap_type_multi+0x76>
    for (i = 0; i < BOOT_SWAP_TABLES_COUNT; i++) {
    3306:	3201      	adds	r2, #1
    3308:	2a03      	cmp	r2, #3
    330a:	f104 0406 	add.w	r4, r4, #6
    330e:	d1cb      	bne.n	32a8 <boot_swap_type_multi+0x40>
    BOOT_LOG_INF("Swap type: none");
    3310:	480c      	ldr	r0, [pc, #48]	; (3344 <boot_swap_type_multi+0xdc>)
    3312:	2149      	movs	r1, #73	; 0x49
    3314:	f002 fe96 	bl	6044 <z_log_minimal_printk>
    return BOOT_SWAP_TYPE_NONE;
    3318:	2001      	movs	r0, #1
    331a:	e7ae      	b.n	327a <boot_swap_type_multi+0x12>
            BOOT_LOG_INF("Swap type: %s",
    331c:	2b03      	cmp	r3, #3
    331e:	d005      	beq.n	332c <boot_swap_type_multi+0xc4>
    3320:	4a09      	ldr	r2, [pc, #36]	; (3348 <boot_swap_type_multi+0xe0>)
    3322:	490a      	ldr	r1, [pc, #40]	; (334c <boot_swap_type_multi+0xe4>)
    3324:	2b04      	cmp	r3, #4
    3326:	bf08      	it	eq
    3328:	460a      	moveq	r2, r1
    332a:	e7dc      	b.n	32e6 <boot_swap_type_multi+0x7e>
    332c:	4a08      	ldr	r2, [pc, #32]	; (3350 <boot_swap_type_multi+0xe8>)
    332e:	e7da      	b.n	32e6 <boot_swap_type_multi+0x7e>
    3330:	00007b11 	.word	0x00007b11
    3334:	03030103 	.word	0x03030103
    3338:	00007b84 	.word	0x00007b84
    333c:	00007af3 	.word	0x00007af3
    3340:	00007b5c 	.word	0x00007b5c
    3344:	00007b6f 	.word	0x00007b6f
    3348:	00007af8 	.word	0x00007af8
    334c:	00007b0a 	.word	0x00007b0a
    3350:	00007aee 	.word	0x00007aee

00003354 <SystemInit>:
{
    SystemCoreClock = __SYSTEM_CLOCK;
}

void SystemInit(void)
{
    3354:	b508      	push	{r3, lr}
        #if defined (NRF9160_XXAA) || defined (DEVELOP_IN_NRF9160)
            #if defined(NRF_TRUSTZONE_NONSECURE)
                uint32_t var1 = *((volatile uint32_t *)((uint32_t)NRF_FICR_NS + 0x00000130ul));
                uint32_t var2 = *((volatile uint32_t *)((uint32_t)NRF_FICR_NS + 0x00000134ul));
            #else
                uint32_t var1 = *((volatile uint32_t *)((uint32_t)NRF_FICR_S + 0x00000130ul));
    3356:	f44f 037f 	mov.w	r3, #16711680	; 0xff0000
    335a:	f8d3 2130 	ldr.w	r2, [r3, #304]	; 0x130
                uint32_t var2 = *((volatile uint32_t *)((uint32_t)NRF_FICR_S + 0x00000134ul));
    335e:	f8d3 3134 	ldr.w	r3, [r3, #308]	; 0x134
  __ASM volatile ("dsb 0xF":::"memory");
    3362:	f3bf 8f4f 	dsb	sy
            #endif
        #endif
        #if defined (NRF9160_XXAA) || defined (DEVELOP_IN_NRF9160)
            __DSB();
            if (var1 == 0x09)
    3366:	2a09      	cmp	r2, #9
        #endif
        
        /* Workaround for Errata 6 "POWER: SLEEPENTER and SLEEPEXIT events asserted after pin reset" found at the Errata document
            for your device located at https://infocenter.nordicsemi.com/index.jsp  */
        if (nrf91_errata_6()){
            NRF_POWER_S->EVENTS_SLEEPENTER = (POWER_EVENTS_SLEEPENTER_EVENTS_SLEEPENTER_NotGenerated << POWER_EVENTS_SLEEPENTER_EVENTS_SLEEPENTER_Pos);
    3368:	bf01      	itttt	eq
    336a:	f04f 2350 	moveq.w	r3, #1342197760	; 0x50005000
    336e:	2200      	moveq	r2, #0
    3370:	f8c3 2114 	streq.w	r2, [r3, #276]	; 0x114
            NRF_POWER_S->EVENTS_SLEEPEXIT = (POWER_EVENTS_SLEEPEXIT_EVENTS_SLEEPEXIT_NotGenerated << POWER_EVENTS_SLEEPEXIT_EVENTS_SLEEPEXIT_Pos);
    3374:	f8c3 2118 	streq.w	r2, [r3, #280]	; 0x118
        }

        /* Workaround for Errata 14 "REGULATORS: LDO mode at startup" found at the Errata document
            for your device located at https://infocenter.nordicsemi.com/index.jsp  */
        if (nrf91_errata_14()){
    3378:	f003 f9d4 	bl	6724 <nrf91_errata_14>
    337c:	b128      	cbz	r0, 338a <SystemInit+0x36>
            *((volatile uint32_t *)0x50004A38) = 0x01ul;
    337e:	2201      	movs	r2, #1
    3380:	4b52      	ldr	r3, [pc, #328]	; (34cc <SystemInit+0x178>)
    3382:	f8c3 2a38 	str.w	r2, [r3, #2616]	; 0xa38
            NRF_REGULATORS_S->DCDCEN = REGULATORS_DCDCEN_DCDCEN_Enabled << REGULATORS_DCDCEN_DCDCEN_Pos;
    3386:	f8c3 2578 	str.w	r2, [r3, #1400]	; 0x578
        #if defined (NRF9160_XXAA) || defined (DEVELOP_IN_NRF9160)
            #if defined(NRF_TRUSTZONE_NONSECURE)
                uint32_t var1 = *((volatile uint32_t *)((uint32_t)NRF_FICR_NS + 0x00000130ul));
                uint32_t var2 = *((volatile uint32_t *)((uint32_t)NRF_FICR_NS + 0x00000134ul));
            #else
                uint32_t var1 = *((volatile uint32_t *)((uint32_t)NRF_FICR_S + 0x00000130ul));
    338a:	f44f 037f 	mov.w	r3, #16711680	; 0xff0000
    338e:	f8d3 2130 	ldr.w	r2, [r3, #304]	; 0x130
                uint32_t var2 = *((volatile uint32_t *)((uint32_t)NRF_FICR_S + 0x00000134ul));
    3392:	f8d3 3134 	ldr.w	r3, [r3, #308]	; 0x134
    3396:	f3bf 8f4f 	dsb	sy
            #endif
        #endif
        #if defined (NRF9160_XXAA) || defined (DEVELOP_IN_NRF9160)
            __DSB();
            if (var1 == 0x09)
    339a:	2a09      	cmp	r2, #9
    339c:	d105      	bne.n	33aa <SystemInit+0x56>
            {
                switch(var2)
    339e:	2b01      	cmp	r3, #1
        }

        /* Workaround for Errata 15 "REGULATORS: LDO mode at startup" found at the Errata document
            for your device located at https://infocenter.nordicsemi.com/index.jsp  */
        if (nrf91_errata_15()){
            NRF_REGULATORS_S->DCDCEN = REGULATORS_DCDCEN_DCDCEN_Enabled << REGULATORS_DCDCEN_DCDCEN_Pos;
    33a0:	bf1e      	ittt	ne
    33a2:	2201      	movne	r2, #1
    33a4:	4b49      	ldrne	r3, [pc, #292]	; (34cc <SystemInit+0x178>)
    33a6:	f8c3 2578 	strne.w	r2, [r3, #1400]	; 0x578
        }

        /* Workaround for Errata 20 "RAM content cannot be trusted upon waking up from System ON Idle or System OFF mode" found at the Errata document
            for your device located at https://infocenter.nordicsemi.com/index.jsp  */
        if (nrf91_errata_20()){
    33aa:	f003 f9bb 	bl	6724 <nrf91_errata_14>
    33ae:	b118      	cbz	r0, 33b8 <SystemInit+0x64>
            *((volatile uint32_t *)0x5003AEE4) = 0xE;
    33b0:	220e      	movs	r2, #14
    33b2:	4b47      	ldr	r3, [pc, #284]	; (34d0 <SystemInit+0x17c>)
    33b4:	f8c3 2ee4 	str.w	r2, [r3, #3812]	; 0xee4
                uint32_t var1 = *((volatile uint32_t *)((uint32_t)NRF_FICR_S + 0x00000130ul));
    33b8:	f44f 037f 	mov.w	r3, #16711680	; 0xff0000
    33bc:	f8d3 2130 	ldr.w	r2, [r3, #304]	; 0x130
                uint32_t var2 = *((volatile uint32_t *)((uint32_t)NRF_FICR_S + 0x00000134ul));
    33c0:	f8d3 3134 	ldr.w	r3, [r3, #308]	; 0x134
    33c4:	f3bf 8f4f 	dsb	sy
            if (var1 == 0x09)
    33c8:	2a09      	cmp	r2, #9
    33ca:	d106      	bne.n	33da <SystemInit+0x86>
        }

        /* Workaround for Errata 31 "XOSC32k Startup Failure" found at the Errata document
            for your device located at https://infocenter.nordicsemi.com/index.jsp  */
        if (nrf91_errata_31()){
            *((volatile uint32_t *)0x5000470Cul) = 0x0;
    33cc:	2200      	movs	r2, #0
    33ce:	4b3f      	ldr	r3, [pc, #252]	; (34cc <SystemInit+0x178>)
    33d0:	f8c3 270c 	str.w	r2, [r3, #1804]	; 0x70c
            *((volatile uint32_t *)0x50004710ul) = 0x1;
    33d4:	2201      	movs	r2, #1
    33d6:	f8c3 2710 	str.w	r2, [r3, #1808]	; 0x710
{
    33da:	2200      	movs	r2, #0
    33dc:	00d3      	lsls	r3, r2, #3
        #endif

        /* Trimming of the device. Copy all the trimming values from FICR into the target addresses. Trim
         until one ADDR is not initialized. */
        
        for (uint32_t index = 0; index < 256ul && !is_empty_word(&NRF_FICR_S->TRIMCNF[index].ADDR); index++){
    33de:	f503 037f 	add.w	r3, r3, #16711680	; 0xff0000
        return false;
    }
    
    bool is_empty_word(uint32_t const volatile * word)
    {
        uint32_t val = *word;
    33e2:	f8d3 1300 	ldr.w	r1, [r3, #768]	; 0x300
    33e6:	f3bf 8f4f 	dsb	sy
        for (uint32_t index = 0; index < 256ul && !is_empty_word(&NRF_FICR_S->TRIMCNF[index].ADDR); index++){
    33ea:	3101      	adds	r1, #1
    33ec:	d008      	beq.n	3400 <SystemInit+0xac>
          *(volatile uint32_t *)NRF_FICR_S->TRIMCNF[index].ADDR = NRF_FICR_S->TRIMCNF[index].DATA;
    33ee:	f8d3 1300 	ldr.w	r1, [r3, #768]	; 0x300
        for (uint32_t index = 0; index < 256ul && !is_empty_word(&NRF_FICR_S->TRIMCNF[index].ADDR); index++){
    33f2:	3201      	adds	r2, #1
          *(volatile uint32_t *)NRF_FICR_S->TRIMCNF[index].ADDR = NRF_FICR_S->TRIMCNF[index].DATA;
    33f4:	f8d3 3304 	ldr.w	r3, [r3, #772]	; 0x304
        for (uint32_t index = 0; index < 256ul && !is_empty_word(&NRF_FICR_S->TRIMCNF[index].ADDR); index++){
    33f8:	f5b2 7f80 	cmp.w	r2, #256	; 0x100
          *(volatile uint32_t *)NRF_FICR_S->TRIMCNF[index].ADDR = NRF_FICR_S->TRIMCNF[index].DATA;
    33fc:	600b      	str	r3, [r1, #0]
        for (uint32_t index = 0; index < 256ul && !is_empty_word(&NRF_FICR_S->TRIMCNF[index].ADDR); index++){
    33fe:	d1ed      	bne.n	33dc <SystemInit+0x88>
        uint32_t HFXOSRC_readout = NRF_UICR_S->HFXOSRC;
    3400:	4b34      	ldr	r3, [pc, #208]	; (34d4 <SystemInit+0x180>)
    3402:	69da      	ldr	r2, [r3, #28]
    3404:	f3bf 8f4f 	dsb	sy
        if ((HFXOSRC_readout & UICR_HFXOSRC_HFXOSRC_Msk) != UICR_HFXOSRC_HFXOSRC_TCXO) {
    3408:	07d1      	lsls	r1, r2, #31
    340a:	d545      	bpl.n	3498 <SystemInit+0x144>
    340c:	f3bf 8f4f 	dsb	sy
            while (NRF_NVMC_S->READY != NVMC_READY_READY_Ready);
    3410:	4b31      	ldr	r3, [pc, #196]	; (34d8 <SystemInit+0x184>)
    3412:	f8d3 2400 	ldr.w	r2, [r3, #1024]	; 0x400
    3416:	2a01      	cmp	r2, #1
    3418:	d1fb      	bne.n	3412 <SystemInit+0xbe>
            NRF_NVMC_S->CONFIG = NVMC_CONFIG_WEN_Wen;
    341a:	f8c3 2504 	str.w	r2, [r3, #1284]	; 0x504
            while (NRF_NVMC_S->READY != NVMC_READY_READY_Ready);
    341e:	f8d3 2400 	ldr.w	r2, [r3, #1024]	; 0x400
    3422:	2a01      	cmp	r2, #1
    3424:	d1fb      	bne.n	341e <SystemInit+0xca>
        uint32_t HFXOSRC_readout = NRF_UICR_S->HFXOSRC;
    3426:	4b2b      	ldr	r3, [pc, #172]	; (34d4 <SystemInit+0x180>)
    3428:	69da      	ldr	r2, [r3, #28]
    342a:	f3bf 8f4f 	dsb	sy
        if ((HFXOSRC_readout & UICR_HFXOSRC_HFXOSRC_Msk) != UICR_HFXOSRC_HFXOSRC_TCXO) {
    342e:	07d2      	lsls	r2, r2, #31
    3430:	d50a      	bpl.n	3448 <SystemInit+0xf4>
                  uicr_erased_value = NRF_UICR_S->HFXOSRC;
    3432:	69da      	ldr	r2, [r3, #28]
                  uicr_new_value = (uicr_erased_value & ~UICR_HFXOSRC_HFXOSRC_Msk) | UICR_HFXOSRC_HFXOSRC_TCXO;
    3434:	f022 0201 	bic.w	r2, r2, #1
                  NRF_UICR_S->HFXOSRC = uicr_new_value;
    3438:	61da      	str	r2, [r3, #28]
    343a:	f3bf 8f4f 	dsb	sy
                  while (NRF_NVMC_S->READY != NVMC_READY_READY_Ready);
    343e:	4a26      	ldr	r2, [pc, #152]	; (34d8 <SystemInit+0x184>)
    3440:	f8d2 3400 	ldr.w	r3, [r2, #1024]	; 0x400
    3444:	2b01      	cmp	r3, #1
    3446:	d1fb      	bne.n	3440 <SystemInit+0xec>
        uint32_t val = *word;
    3448:	4a22      	ldr	r2, [pc, #136]	; (34d4 <SystemInit+0x180>)
    344a:	6a13      	ldr	r3, [r2, #32]
    344c:	f3bf 8f4f 	dsb	sy
        if (is_empty_word(&NRF_UICR_S->HFXOCNT)) {
    3450:	3301      	adds	r3, #1
    3452:	d10c      	bne.n	346e <SystemInit+0x11a>
                  uicr_erased_value = NRF_UICR_S->HFXOCNT;
    3454:	6a13      	ldr	r3, [r2, #32]
                  uicr_new_value = (uicr_erased_value & ~UICR_HFXOCNT_HFXOCNT_Msk) | 0x20;
    3456:	f023 03ff 	bic.w	r3, r3, #255	; 0xff
    345a:	f043 0320 	orr.w	r3, r3, #32
                  NRF_UICR_S->HFXOCNT = uicr_new_value;
    345e:	6213      	str	r3, [r2, #32]
    3460:	f3bf 8f4f 	dsb	sy
                  while (NRF_NVMC_S->READY != NVMC_READY_READY_Ready);
    3464:	4a1c      	ldr	r2, [pc, #112]	; (34d8 <SystemInit+0x184>)
    3466:	f8d2 3400 	ldr.w	r3, [r2, #1024]	; 0x400
    346a:	2b01      	cmp	r3, #1
    346c:	d1fb      	bne.n	3466 <SystemInit+0x112>
            NRF_NVMC_S->CONFIG = NVMC_CONFIG_WEN_Ren;
    346e:	2200      	movs	r2, #0
    3470:	4b19      	ldr	r3, [pc, #100]	; (34d8 <SystemInit+0x184>)
    3472:	f8c3 2504 	str.w	r2, [r3, #1284]	; 0x504
            while (NRF_NVMC_S->READY != NVMC_READY_READY_Ready);
    3476:	f8d3 2400 	ldr.w	r2, [r3, #1024]	; 0x400
    347a:	2a01      	cmp	r2, #1
    347c:	d1fb      	bne.n	3476 <SystemInit+0x122>
    347e:	f3bf 8f4f 	dsb	sy
                           (SCB->AIRCR & SCB_AIRCR_PRIGROUP_Msk) |
    3482:	4916      	ldr	r1, [pc, #88]	; (34dc <SystemInit+0x188>)
    3484:	4b16      	ldr	r3, [pc, #88]	; (34e0 <SystemInit+0x18c>)
    3486:	68ca      	ldr	r2, [r1, #12]
    3488:	f402 62e0 	and.w	r2, r2, #1792	; 0x700
    348c:	4313      	orrs	r3, r2
  SCB->AIRCR  = (uint32_t)((0x5FAUL << SCB_AIRCR_VECTKEY_Pos)    |
    348e:	60cb      	str	r3, [r1, #12]
    3490:	f3bf 8f4f 	dsb	sy
    __NOP();
    3494:	bf00      	nop
  for(;;)                                                           /* wait until reset */
    3496:	e7fd      	b.n	3494 <SystemInit+0x140>
        uint32_t val = *word;
    3498:	6a1b      	ldr	r3, [r3, #32]
    349a:	f3bf 8f4f 	dsb	sy
        if (is_empty_word(&NRF_UICR_S->HFXOCNT)) {
    349e:	3301      	adds	r3, #1
    34a0:	d0b4      	beq.n	340c <SystemInit+0xb8>
        SCB->NSACR |= (3UL << 10);
    34a2:	4b0e      	ldr	r3, [pc, #56]	; (34dc <SystemInit+0x188>)
    34a4:	f8d3 208c 	ldr.w	r2, [r3, #140]	; 0x8c
    34a8:	f442 6240 	orr.w	r2, r2, #3072	; 0xc00
    34ac:	f8c3 208c 	str.w	r2, [r3, #140]	; 0x8c
      SCB->CPACR |= (3UL << 20) | (3UL << 22);
    34b0:	f8d3 2088 	ldr.w	r2, [r3, #136]	; 0x88
    34b4:	f442 0270 	orr.w	r2, r2, #15728640	; 0xf00000
    34b8:	f8c3 2088 	str.w	r2, [r3, #136]	; 0x88
    34bc:	f3bf 8f4f 	dsb	sy
  __ASM volatile ("isb 0xF":::"memory");
    34c0:	f3bf 8f6f 	isb	sy
    SystemCoreClock = __SYSTEM_CLOCK;
    34c4:	4b07      	ldr	r3, [pc, #28]	; (34e4 <SystemInit+0x190>)
    34c6:	4a08      	ldr	r2, [pc, #32]	; (34e8 <SystemInit+0x194>)
    34c8:	601a      	str	r2, [r3, #0]
}
    34ca:	bd08      	pop	{r3, pc}
    34cc:	50004000 	.word	0x50004000
    34d0:	5003a000 	.word	0x5003a000
    34d4:	00ff8000 	.word	0x00ff8000
    34d8:	50039000 	.word	0x50039000
    34dc:	e000ed00 	.word	0xe000ed00
    34e0:	05fa0004 	.word	0x05fa0004
    34e4:	2000004c 	.word	0x2000004c
    34e8:	03d09000 	.word	0x03d09000

000034ec <nrfx_flag32_alloc>:
{
    return (mask & NRFX_BIT(bitpos)) ? false : true;
}

nrfx_err_t nrfx_flag32_alloc(nrfx_atomic_t * p_mask, uint8_t *p_flag)
{
    34ec:	b570      	push	{r4, r5, r6, lr}
        idx = 31 - NRF_CLZ(prev_mask);
        if (idx < 0) {
            return NRFX_ERROR_NO_MEM;
        }

        new_mask = prev_mask & ~NRFX_BIT(idx);
    34ee:	2501      	movs	r5, #1
        prev_mask = *p_mask;
    34f0:	6802      	ldr	r2, [r0, #0]
        idx = 31 - NRF_CLZ(prev_mask);
    34f2:	fab2 f382 	clz	r3, r2
    34f6:	f1c3 031f 	rsb	r3, r3, #31
    34fa:	b2db      	uxtb	r3, r3
        new_mask = prev_mask & ~NRFX_BIT(idx);
    34fc:	fa05 f403 	lsl.w	r4, r5, r3
    3500:	ea22 0404 	bic.w	r4, r2, r4
	return __atomic_compare_exchange_n(target, &old_value, new_value,
    3504:	e8d0 6fef 	ldaex	r6, [r0]
    3508:	4296      	cmp	r6, r2
    350a:	d104      	bne.n	3516 <nrfx_flag32_alloc+0x2a>
    350c:	e8c0 4fec 	stlex	ip, r4, [r0]
    3510:	f1bc 0f00 	cmp.w	ip, #0
    3514:	d1f6      	bne.n	3504 <nrfx_flag32_alloc+0x18>
    } while (!NRFX_ATOMIC_CAS(p_mask, prev_mask, new_mask));
    3516:	d1eb      	bne.n	34f0 <nrfx_flag32_alloc+0x4>

    *p_flag = idx;

    return NRFX_SUCCESS;
}
    3518:	4801      	ldr	r0, [pc, #4]	; (3520 <nrfx_flag32_alloc+0x34>)
    *p_flag = idx;
    351a:	700b      	strb	r3, [r1, #0]
}
    351c:	bd70      	pop	{r4, r5, r6, pc}
    351e:	bf00      	nop
    3520:	0bad0000 	.word	0x0bad0000

00003524 <nrfx_flag32_free>:

nrfx_err_t nrfx_flag32_free(nrfx_atomic_t * p_mask, uint8_t flag)
{
    3524:	b510      	push	{r4, lr}
    uint32_t new_mask, prev_mask;

    if ((NRFX_BIT(flag) & *p_mask))
    3526:	6803      	ldr	r3, [r0, #0]
    3528:	40cb      	lsrs	r3, r1
    352a:	07db      	lsls	r3, r3, #31
    352c:	d410      	bmi.n	3550 <nrfx_flag32_free+0x2c>
        return NRFX_ERROR_INVALID_PARAM;
    }

    do {
        prev_mask = *p_mask;
        new_mask = prev_mask | NRFX_BIT(flag);
    352e:	2301      	movs	r3, #1
    3530:	408b      	lsls	r3, r1
        prev_mask = *p_mask;
    3532:	6802      	ldr	r2, [r0, #0]
        new_mask = prev_mask | NRFX_BIT(flag);
    3534:	ea43 0102 	orr.w	r1, r3, r2
    3538:	e8d0 4fef 	ldaex	r4, [r0]
    353c:	4294      	cmp	r4, r2
    353e:	d104      	bne.n	354a <nrfx_flag32_free+0x26>
    3540:	e8c0 1fec 	stlex	ip, r1, [r0]
    3544:	f1bc 0f00 	cmp.w	ip, #0
    3548:	d1f6      	bne.n	3538 <nrfx_flag32_free+0x14>
    } while (!NRFX_ATOMIC_CAS(p_mask, prev_mask, new_mask));
    354a:	d1f2      	bne.n	3532 <nrfx_flag32_free+0xe>

    return NRFX_SUCCESS;
    354c:	4801      	ldr	r0, [pc, #4]	; (3554 <nrfx_flag32_free+0x30>)
}
    354e:	bd10      	pop	{r4, pc}
        return NRFX_ERROR_INVALID_PARAM;
    3550:	4801      	ldr	r0, [pc, #4]	; (3558 <nrfx_flag32_free+0x34>)
    3552:	e7fc      	b.n	354e <nrfx_flag32_free+0x2a>
    3554:	0bad0000 	.word	0x0bad0000
    3558:	0bad0004 	.word	0x0bad0004

0000355c <nrfx_clock_init>:
nrfx_err_t nrfx_clock_init(nrfx_clock_event_handler_t event_handler)
{
    NRFX_ASSERT(event_handler);

    nrfx_err_t err_code = NRFX_SUCCESS;
    if (m_clock_cb.module_initialized)
    355c:	4b04      	ldr	r3, [pc, #16]	; (3570 <nrfx_clock_init+0x14>)
    355e:	791a      	ldrb	r2, [r3, #4]
    3560:	b922      	cbnz	r2, 356c <nrfx_clock_init+0x10>
    {
#if NRFX_CHECK(NRFX_CLOCK_CONFIG_LF_CAL_ENABLED)
        m_clock_cb.cal_state = CAL_STATE_IDLE;
#endif
        m_clock_cb.event_handler = event_handler;
        m_clock_cb.module_initialized = true;
    3562:	2201      	movs	r2, #1
        m_clock_cb.event_handler = event_handler;
    3564:	6018      	str	r0, [r3, #0]
        m_clock_cb.module_initialized = true;
    3566:	711a      	strb	r2, [r3, #4]
    nrfx_err_t err_code = NRFX_SUCCESS;
    3568:	4802      	ldr	r0, [pc, #8]	; (3574 <nrfx_clock_init+0x18>)
    356a:	4770      	bx	lr
        err_code = NRFX_ERROR_ALREADY_INITIALIZED;
    356c:	4802      	ldr	r0, [pc, #8]	; (3578 <nrfx_clock_init+0x1c>)
#endif
    }

    NRFX_LOG_INFO("Function: %s, error code: %s.", __func__, NRFX_LOG_ERROR_STRING_GET(err_code));
    return err_code;
}
    356e:	4770      	bx	lr
    3570:	20000ec0 	.word	0x20000ec0
    3574:	0bad0000 	.word	0x0bad0000
    3578:	0bad000c 	.word	0x0bad000c

0000357c <nrfx_power_clock_irq_handler>:
    return (bool)*((volatile uint32_t *)((uint8_t *)p_reg + event));
    357c:	f04f 2350 	mov.w	r3, #1342197760	; 0x50005000
    }
}
#endif

void nrfx_clock_irq_handler(void)
{
    3580:	b510      	push	{r4, lr}
    3582:	f8d3 2100 	ldr.w	r2, [r3, #256]	; 0x100
    if (nrf_clock_event_check(NRF_CLOCK, NRF_CLOCK_EVENT_HFCLKSTARTED))
    3586:	b152      	cbz	r2, 359e <nrfx_power_clock_irq_handler+0x22>
    *((volatile uint32_t *)((uint8_t *)p_reg + (uint32_t)event)) = 0x0UL;
    3588:	2000      	movs	r0, #0
    358a:	f8c3 0100 	str.w	r0, [r3, #256]	; 0x100
    358e:	f8d3 2100 	ldr.w	r2, [r3, #256]	; 0x100
    p_reg->INTENCLR = mask;
    3592:	2201      	movs	r2, #1
    3594:	f8c3 2308 	str.w	r2, [r3, #776]	; 0x308
        {
            m_clock_cb.hfclk_started = true;
            m_clock_cb.event_handler(NRFX_CLOCK_EVT_HFCLK_STARTED);
        }
#else
        m_clock_cb.event_handler(NRFX_CLOCK_EVT_HFCLK_STARTED);
    3598:	4b11      	ldr	r3, [pc, #68]	; (35e0 <nrfx_power_clock_irq_handler+0x64>)
    359a:	681b      	ldr	r3, [r3, #0]
    359c:	4798      	blx	r3
    return (bool)*((volatile uint32_t *)((uint8_t *)p_reg + event));
    359e:	f04f 2350 	mov.w	r3, #1342197760	; 0x50005000
    35a2:	f8d3 2104 	ldr.w	r2, [r3, #260]	; 0x104
#endif
    }
    if (nrf_clock_event_check(NRF_CLOCK, NRF_CLOCK_EVENT_LFCLKSTARTED))
    35a6:	b18a      	cbz	r2, 35cc <nrfx_power_clock_irq_handler+0x50>
    *((volatile uint32_t *)((uint8_t *)p_reg + (uint32_t)event)) = 0x0UL;
    35a8:	2200      	movs	r2, #0
    35aa:	f8c3 2104 	str.w	r2, [r3, #260]	; 0x104
    35ae:	f8d3 2104 	ldr.w	r2, [r3, #260]	; 0x104
                    (nrf_clock_lfclk_t)((p_reg->LFCLKSTAT & CLOCK_LFCLKSTAT_SRC_Msk)
    35b2:	f8d3 2418 	ldr.w	r2, [r3, #1048]	; 0x418
            if ((p_reg->LFCLKSTAT & CLOCK_LFCLKSTAT_STATE_Msk)
    35b6:	f8d3 1418 	ldr.w	r1, [r3, #1048]	; 0x418
        NRFX_LOG_DEBUG("Event: NRF_CLOCK_EVENT_LFCLKSTARTED");

#if NRFX_CHECK(NRFX_CLOCK_CONFIG_LFXO_TWO_STAGE_ENABLED)
        nrf_clock_lfclk_t lfclksrc;
        (void)nrf_clock_is_running(NRF_CLOCK, NRF_CLOCK_DOMAIN_LFCLK, &lfclksrc);
        if (lfclksrc == NRF_CLOCK_LFCLK_RC)
    35ba:	f002 0203 	and.w	r2, r2, #3
    35be:	2a01      	cmp	r2, #1
    35c0:	f04f 0102 	mov.w	r1, #2
    35c4:	d103      	bne.n	35ce <nrfx_power_clock_irq_handler+0x52>
    p_reg->LFCLKSRC = (uint32_t)(source);
    35c6:	f8c3 1518 	str.w	r1, [r3, #1304]	; 0x518
    *((volatile uint32_t *)((uint8_t *)p_reg + (uint32_t)task)) = 0x1UL;
    35ca:	609a      	str	r2, [r3, #8]
        nrf_clock_int_disable(NRF_CLOCK, NRF_CLOCK_INT_HF192M_STARTED_MASK);

        m_clock_cb.event_handler(NRFX_CLOCK_EVT_HFCLK192M_STARTED);
    }
#endif
}
    35cc:	bd10      	pop	{r4, pc}
    p_reg->INTENCLR = mask;
    35ce:	f8c3 1308 	str.w	r1, [r3, #776]	; 0x308
            m_clock_cb.event_handler(NRFX_CLOCK_EVT_LFCLK_STARTED);
    35d2:	4b03      	ldr	r3, [pc, #12]	; (35e0 <nrfx_power_clock_irq_handler+0x64>)
    35d4:	2001      	movs	r0, #1
}
    35d6:	e8bd 4010 	ldmia.w	sp!, {r4, lr}
            m_clock_cb.event_handler(NRFX_CLOCK_EVT_LFCLK_STARTED);
    35da:	681b      	ldr	r3, [r3, #0]
    35dc:	4718      	bx	r3
    35de:	bf00      	nop
    35e0:	20000ec0 	.word	0x20000ec0

000035e4 <nrfx_dppi_channel_alloc>:
    // Clear all allocated groups.
    m_allocated_groups = DPPI_AVAILABLE_GROUPS_MASK;
}

nrfx_err_t nrfx_dppi_channel_alloc(uint8_t * p_channel)
{
    35e4:	4601      	mov	r1, r0
    return nrfx_flag32_alloc(&m_allocated_channels, p_channel);
    35e6:	4801      	ldr	r0, [pc, #4]	; (35ec <nrfx_dppi_channel_alloc+0x8>)
    35e8:	f7ff bf80 	b.w	34ec <nrfx_flag32_alloc>
    35ec:	20000050 	.word	0x20000050

000035f0 <nrf_gpio_cfg_sense_set>:
    uint32_t cnf = reg->PIN_CNF[pin_number];
    35f0:	4a06      	ldr	r2, [pc, #24]	; (360c <nrf_gpio_cfg_sense_set+0x1c>)
    *p_pin = pin_number & 0x1F;
    35f2:	f000 001f 	and.w	r0, r0, #31
    35f6:	eb02 0280 	add.w	r2, r2, r0, lsl #2
    uint32_t cnf = reg->PIN_CNF[pin_number];
    35fa:	f8d2 3200 	ldr.w	r3, [r2, #512]	; 0x200
    cnf &= ~to_update;
    35fe:	f423 3340 	bic.w	r3, r3, #196608	; 0x30000
    cnf |= ((uint32_t)(p_dir   ? *p_dir   : 0) << GPIO_PIN_CNF_DIR_Pos)   |
    3602:	ea43 4301 	orr.w	r3, r3, r1, lsl #16
    reg->PIN_CNF[pin_number] = cnf;
    3606:	f8c2 3200 	str.w	r3, [r2, #512]	; 0x200
}
    360a:	4770      	bx	lr
    360c:	50842500 	.word	0x50842500

00003610 <pin_in_use_by_te>:
 *
 * @return True if pin uses GPIOTE task/event.
 */
static bool pin_in_use_by_te(uint32_t pin)
{
    return m_cb.pin_flags[pin] & PIN_FLAG_TE_USED;
    3610:	4b03      	ldr	r3, [pc, #12]	; (3620 <pin_in_use_by_te+0x10>)
    3612:	3008      	adds	r0, #8
    3614:	f833 0010 	ldrh.w	r0, [r3, r0, lsl #1]
}
    3618:	f3c0 1040 	ubfx	r0, r0, #5, #1
    361c:	4770      	bx	lr
    361e:	bf00      	nop
    3620:	20000054 	.word	0x20000054

00003624 <call_handler>:
    nrf_gpiote_event_t event = nrfx_gpiote_in_event_get(pin);
    return nrf_gpiote_event_address_get(NRF_GPIOTE, event);
}

static void call_handler(nrfx_gpiote_pin_t pin, nrfx_gpiote_trigger_t trigger)
{
    3624:	b570      	push	{r4, r5, r6, lr}
    int32_t handler_id = PIN_GET_HANDLER_ID(m_cb.pin_flags[pin]);
    3626:	4c0d      	ldr	r4, [pc, #52]	; (365c <call_handler+0x38>)
    3628:	f100 0308 	add.w	r3, r0, #8
    362c:	f834 3013 	ldrh.w	r3, [r4, r3, lsl #1]
{
    3630:	4605      	mov	r5, r0
    int32_t handler_id = PIN_GET_HANDLER_ID(m_cb.pin_flags[pin]);
    3632:	05da      	lsls	r2, r3, #23
{
    3634:	460e      	mov	r6, r1
    int32_t handler_id = PIN_GET_HANDLER_ID(m_cb.pin_flags[pin]);
    3636:	d507      	bpl.n	3648 <call_handler+0x24>
    3638:	f3c3 2343 	ubfx	r3, r3, #9, #4
    nrfx_gpiote_handler_config_t const * handler = channel_handler_get(pin);

    if (handler)
    {
        handler->handler(pin, trigger, handler->p_context);
    363c:	eb04 02c3 	add.w	r2, r4, r3, lsl #3
    3640:	6852      	ldr	r2, [r2, #4]
    3642:	f854 3033 	ldr.w	r3, [r4, r3, lsl #3]
    3646:	4798      	blx	r3
    }
    if (m_cb.global_handler.handler)
    3648:	68a3      	ldr	r3, [r4, #8]
    364a:	b12b      	cbz	r3, 3658 <call_handler+0x34>
    {
        m_cb.global_handler.handler(pin, trigger, m_cb.global_handler.p_context);
    364c:	4631      	mov	r1, r6
    364e:	4628      	mov	r0, r5
    3650:	68e2      	ldr	r2, [r4, #12]
    }
}
    3652:	e8bd 4070 	ldmia.w	sp!, {r4, r5, r6, lr}
        m_cb.global_handler.handler(pin, trigger, m_cb.global_handler.p_context);
    3656:	4718      	bx	r3
}
    3658:	bd70      	pop	{r4, r5, r6, pc}
    365a:	bf00      	nop
    365c:	20000054 	.word	0x20000054

00003660 <release_handler>:
{
    3660:	b410      	push	{r4}
    int32_t handler_id = PIN_GET_HANDLER_ID(m_cb.pin_flags[pin]);
    3662:	4a13      	ldr	r2, [pc, #76]	; (36b0 <release_handler+0x50>)
    3664:	3008      	adds	r0, #8
    3666:	f832 3010 	ldrh.w	r3, [r2, r0, lsl #1]
    366a:	05d9      	lsls	r1, r3, #23
    366c:	d51c      	bpl.n	36a8 <release_handler+0x48>
    366e:	f3c3 2143 	ubfx	r1, r3, #9, #4
    m_cb.pin_flags[pin] &= ~PIN_HANDLER_MASK;
    3672:	f423 53f8 	bic.w	r3, r3, #7936	; 0x1f00
    3676:	f822 3010 	strh.w	r3, [r2, r0, lsl #1]
    for (uint32_t i = 0; i < MAX_PIN_NUMBER; i++)
    367a:	2000      	movs	r0, #0
    367c:	f102 040e 	add.w	r4, r2, #14
        if (PIN_GET_HANDLER_ID(m_cb.pin_flags[i]) == handler_id)
    3680:	f834 3f02 	ldrh.w	r3, [r4, #2]!
    3684:	f413 7f80 	tst.w	r3, #256	; 0x100
    3688:	d003      	beq.n	3692 <release_handler+0x32>
    368a:	f3c3 2343 	ubfx	r3, r3, #9, #4
    368e:	4299      	cmp	r1, r3
    3690:	d00a      	beq.n	36a8 <release_handler+0x48>
    for (uint32_t i = 0; i < MAX_PIN_NUMBER; i++)
    3692:	3001      	adds	r0, #1
    3694:	2820      	cmp	r0, #32
    3696:	d1f3      	bne.n	3680 <release_handler+0x20>
        m_cb.handlers[handler_id].handler = NULL;
    3698:	2300      	movs	r3, #0
    369a:	f842 3031 	str.w	r3, [r2, r1, lsl #3]
        nrfx_err_t err = nrfx_flag32_free(&m_cb.available_evt_handlers, handler_id);
    369e:	4805      	ldr	r0, [pc, #20]	; (36b4 <release_handler+0x54>)
}
    36a0:	f85d 4b04 	ldr.w	r4, [sp], #4
        nrfx_err_t err = nrfx_flag32_free(&m_cb.available_evt_handlers, handler_id);
    36a4:	f7ff bf3e 	b.w	3524 <nrfx_flag32_free>
}
    36a8:	f85d 4b04 	ldr.w	r4, [sp], #4
    36ac:	4770      	bx	lr
    36ae:	bf00      	nop
    36b0:	20000054 	.word	0x20000054
    36b4:	200000a8 	.word	0x200000a8

000036b8 <pin_handler_trigger_uninit>:
{
    36b8:	b538      	push	{r3, r4, r5, lr}
    36ba:	4602      	mov	r2, r0
    if (pin_in_use_by_te(pin))
    36bc:	f7ff ffa8 	bl	3610 <pin_in_use_by_te>
    36c0:	4c0b      	ldr	r4, [pc, #44]	; (36f0 <pin_handler_trigger_uninit+0x38>)
    36c2:	f102 0508 	add.w	r5, r2, #8
    36c6:	b160      	cbz	r0, 36e2 <pin_handler_trigger_uninit+0x2a>
                         ((init_val << GPIOTE_CONFIG_OUTINIT_Pos) & GPIOTE_CONFIG_OUTINIT_Msk);
}

NRF_STATIC_INLINE void nrf_gpiote_te_default(NRF_GPIOTE_Type * p_reg, uint32_t idx)
{
    p_reg->CONFIG[idx] = 0;
    36c8:	2100      	movs	r1, #0
    return PIN_GET_TE_ID(m_cb.pin_flags[pin]);
    36ca:	f834 3015 	ldrh.w	r3, [r4, r5, lsl #1]
        nrf_gpiote_te_default(NRF_GPIOTE, pin_te_get(pin));
    36ce:	0b5b      	lsrs	r3, r3, #13
    36d0:	009b      	lsls	r3, r3, #2
    36d2:	f103 43a0 	add.w	r3, r3, #1342177280	; 0x50000000
    36d6:	f503 4350 	add.w	r3, r3, #53248	; 0xd000
    36da:	f8c3 1510 	str.w	r1, [r3, #1296]	; 0x510
#if defined(NRF9160_XXAA) || defined(NRF5340_XXAA)
    p_reg->CONFIG[idx] = 0;
    36de:	f8c3 1510 	str.w	r1, [r3, #1296]	; 0x510
    release_handler(pin);
    36e2:	4610      	mov	r0, r2
    36e4:	f7ff ffbc 	bl	3660 <release_handler>
    m_cb.pin_flags[pin] = PIN_FLAG_NOT_USED;
    36e8:	2300      	movs	r3, #0
    36ea:	f824 3015 	strh.w	r3, [r4, r5, lsl #1]
}
    36ee:	bd38      	pop	{r3, r4, r5, pc}
    36f0:	20000054 	.word	0x20000054

000036f4 <nrfx_gpiote_input_configure>:
{
    36f4:	e92d 41f3 	stmdb	sp!, {r0, r1, r4, r5, r6, r7, r8, lr}
    36f8:	4604      	mov	r4, r0
    36fa:	461d      	mov	r5, r3
    if (p_input_config)
    36fc:	b309      	cbz	r1, 3742 <nrfx_gpiote_input_configure+0x4e>
    return PIN_FLAG_IS_OUTPUT(m_cb.pin_flags[pin]);
    36fe:	4f4e      	ldr	r7, [pc, #312]	; (3838 <nrfx_gpiote_input_configure+0x144>)
    3700:	f100 0808 	add.w	r8, r0, #8
    3704:	f837 6018 	ldrh.w	r6, [r7, r8, lsl #1]
    return pin_is_output(pin) && pin_in_use_by_te(pin);
    3708:	07b3      	lsls	r3, r6, #30
    370a:	d506      	bpl.n	371a <nrfx_gpiote_input_configure+0x26>
    370c:	f7ff ff80 	bl	3610 <pin_in_use_by_te>
    3710:	b118      	cbz	r0, 371a <nrfx_gpiote_input_configure+0x26>
            return NRFX_ERROR_INVALID_PARAM;
    3712:	484a      	ldr	r0, [pc, #296]	; (383c <nrfx_gpiote_input_configure+0x148>)
}
    3714:	b002      	add	sp, #8
    3716:	e8bd 81f0 	ldmia.w	sp!, {r4, r5, r6, r7, r8, pc}
    uint32_t cnf = reg->PIN_CNF[pin_number];
    371a:	4849      	ldr	r0, [pc, #292]	; (3840 <nrfx_gpiote_input_configure+0x14c>)
    *p_pin = pin_number & 0x1F;
    371c:	f004 031f 	and.w	r3, r4, #31
    3720:	eb00 0083 	add.w	r0, r0, r3, lsl #2
    uint32_t cnf = reg->PIN_CNF[pin_number];
    3724:	f8d0 3200 	ldr.w	r3, [r0, #512]	; 0x200
           ((uint32_t)(p_pull  ? *p_pull  : 0) << GPIO_PIN_CNF_PULL_Pos)  |
    3728:	7809      	ldrb	r1, [r1, #0]
    cnf &= ~to_update;
    372a:	f023 030f 	bic.w	r3, r3, #15
        m_cb.pin_flags[pin] &= ~PIN_FLAG_OUTPUT;
    372e:	f026 0602 	bic.w	r6, r6, #2
    cnf |= ((uint32_t)(p_dir   ? *p_dir   : 0) << GPIO_PIN_CNF_DIR_Pos)   |
    3732:	ea43 0381 	orr.w	r3, r3, r1, lsl #2
        m_cb.pin_flags[pin] |= PIN_FLAG_IN_USE;
    3736:	f046 0601 	orr.w	r6, r6, #1
    reg->PIN_CNF[pin_number] = cnf;
    373a:	f8c0 3200 	str.w	r3, [r0, #512]	; 0x200
    373e:	f827 6018 	strh.w	r6, [r7, r8, lsl #1]
    if (p_trigger_config)
    3742:	b19a      	cbz	r2, 376c <nrfx_gpiote_input_configure+0x78>
    return PIN_FLAG_IS_OUTPUT(m_cb.pin_flags[pin]);
    3744:	4e3c      	ldr	r6, [pc, #240]	; (3838 <nrfx_gpiote_input_configure+0x144>)
    3746:	f104 0708 	add.w	r7, r4, #8
    374a:	f836 1017 	ldrh.w	r1, [r6, r7, lsl #1]
        nrfx_gpiote_trigger_t trigger = p_trigger_config->trigger;
    374e:	7813      	ldrb	r3, [r2, #0]
        if (pin_is_output(pin))
    3750:	f011 0f02 	tst.w	r1, #2
        bool use_evt = p_trigger_config->p_in_channel ? true : false;
    3754:	6850      	ldr	r0, [r2, #4]
        if (pin_is_output(pin))
    3756:	d00c      	beq.n	3772 <nrfx_gpiote_input_configure+0x7e>
            if (use_evt)
    3758:	2800      	cmp	r0, #0
    375a:	d1da      	bne.n	3712 <nrfx_gpiote_input_configure+0x1e>
        m_cb.pin_flags[pin] &= ~PIN_FLAG_TRIG_MODE_MASK;
    375c:	f836 2017 	ldrh.w	r2, [r6, r7, lsl #1]
    3760:	f022 021c 	bic.w	r2, r2, #28
        m_cb.pin_flags[pin] |= PIN_FLAG_TRIG_MODE_SET(trigger);
    3764:	ea42 0383 	orr.w	r3, r2, r3, lsl #2
    3768:	f826 3017 	strh.w	r3, [r6, r7, lsl #1]
    if (p_handler_config)
    376c:	bbd5      	cbnz	r5, 37e4 <nrfx_gpiote_input_configure+0xf0>
        err = NRFX_SUCCESS;
    376e:	4835      	ldr	r0, [pc, #212]	; (3844 <nrfx_gpiote_input_configure+0x150>)
    3770:	e7d0      	b.n	3714 <nrfx_gpiote_input_configure+0x20>
            m_cb.pin_flags[pin] &= ~(PIN_TE_ID_MASK | PIN_FLAG_TE_USED);
    3772:	f021 0120 	bic.w	r1, r1, #32
    3776:	04c9      	lsls	r1, r1, #19
    3778:	0cc9      	lsrs	r1, r1, #19
    377a:	f826 1017 	strh.w	r1, [r6, r7, lsl #1]
            if (use_evt)
    377e:	2800      	cmp	r0, #0
    3780:	d0ec      	beq.n	375c <nrfx_gpiote_input_configure+0x68>
                if (!edge)
    3782:	2b03      	cmp	r3, #3
    3784:	d8c5      	bhi.n	3712 <nrfx_gpiote_input_configure+0x1e>
                uint8_t ch = *p_trigger_config->p_in_channel;
    3786:	6852      	ldr	r2, [r2, #4]
    3788:	f892 c000 	ldrb.w	ip, [r2]
                if (trigger == NRFX_GPIOTE_TRIGGER_NONE)
    378c:	4662      	mov	r2, ip
    378e:	0092      	lsls	r2, r2, #2
    3790:	f102 42a0 	add.w	r2, r2, #1342177280	; 0x50000000
    3794:	f502 4250 	add.w	r2, r2, #53248	; 0xd000
    3798:	b923      	cbnz	r3, 37a4 <nrfx_gpiote_input_configure+0xb0>
    p_reg->CONFIG[idx] = 0;
    379a:	f8c2 3510 	str.w	r3, [r2, #1296]	; 0x510
    p_reg->CONFIG[idx] = 0;
    379e:	f8c2 3510 	str.w	r3, [r2, #1296]	; 0x510
#endif
}
    37a2:	e7db      	b.n	375c <nrfx_gpiote_input_configure+0x68>
   p_reg->CONFIG[idx] &= ~GPIOTE_CONFIG_MODE_Msk;
    37a4:	f8d2 0510 	ldr.w	r0, [r2, #1296]	; 0x510
                    m_cb.pin_flags[pin] |= PIN_FLAG_TE_ID(ch);
    37a8:	ea41 314c 	orr.w	r1, r1, ip, lsl #13
    37ac:	f020 0003 	bic.w	r0, r0, #3
    37b0:	f8c2 0510 	str.w	r0, [r2, #1296]	; 0x510
  p_reg->CONFIG[idx] &= ~(GPIOTE_CONFIG_PORT_PIN_Msk | GPIOTE_CONFIG_POLARITY_Msk);
    37b4:	f8d2 0510 	ldr.w	r0, [r2, #1296]	; 0x510
    37b8:	f041 0120 	orr.w	r1, r1, #32
    37bc:	f420 3047 	bic.w	r0, r0, #203776	; 0x31c00
    37c0:	f420 7040 	bic.w	r0, r0, #768	; 0x300
    37c4:	f8c2 0510 	str.w	r0, [r2, #1296]	; 0x510
  p_reg->CONFIG[idx] |= ((pin << GPIOTE_CONFIG_PSEL_Pos) & GPIOTE_CONFIG_PORT_PIN_Msk) |
    37c8:	0220      	lsls	r0, r4, #8
    37ca:	f8d2 e510 	ldr.w	lr, [r2, #1296]	; 0x510
    37ce:	f400 50f8 	and.w	r0, r0, #7936	; 0x1f00
    37d2:	ea40 4003 	orr.w	r0, r0, r3, lsl #16
    37d6:	ea40 000e 	orr.w	r0, r0, lr
    37da:	f8c2 0510 	str.w	r0, [r2, #1296]	; 0x510
    37de:	f826 1017 	strh.w	r1, [r6, r7, lsl #1]
    37e2:	e7bb      	b.n	375c <nrfx_gpiote_input_configure+0x68>
    release_handler(pin);
    37e4:	4620      	mov	r0, r4
        err = pin_handler_set(pin, p_handler_config->handler, p_handler_config->p_context);
    37e6:	e9d5 6700 	ldrd	r6, r7, [r5]
    release_handler(pin);
    37ea:	f7ff ff39 	bl	3660 <release_handler>
    if (!handler)
    37ee:	2e00      	cmp	r6, #0
    37f0:	d0bd      	beq.n	376e <nrfx_gpiote_input_configure+0x7a>
        if ((m_cb.handlers[i].handler == handler) && (m_cb.handlers[i].p_context == p_context))
    37f2:	4d11      	ldr	r5, [pc, #68]	; (3838 <nrfx_gpiote_input_configure+0x144>)
    37f4:	e9d5 2300 	ldrd	r2, r3, [r5]
    37f8:	4296      	cmp	r6, r2
    37fa:	d101      	bne.n	3800 <nrfx_gpiote_input_configure+0x10c>
    37fc:	429f      	cmp	r7, r3
    37fe:	d018      	beq.n	3832 <nrfx_gpiote_input_configure+0x13e>
        err = nrfx_flag32_alloc(&m_cb.available_evt_handlers, &id);
    3800:	4811      	ldr	r0, [pc, #68]	; (3848 <nrfx_gpiote_input_configure+0x154>)
    3802:	f10d 0107 	add.w	r1, sp, #7
    3806:	f7ff fe71 	bl	34ec <nrfx_flag32_alloc>
        if (err != NRFX_SUCCESS)
    380a:	4b0e      	ldr	r3, [pc, #56]	; (3844 <nrfx_gpiote_input_configure+0x150>)
    380c:	4298      	cmp	r0, r3
    380e:	d181      	bne.n	3714 <nrfx_gpiote_input_configure+0x20>
        handler_id = (int32_t)id;
    3810:	f89d 2007 	ldrb.w	r2, [sp, #7]
    m_cb.handlers[handler_id].p_context = p_context;
    3814:	eb05 03c2 	add.w	r3, r5, r2, lsl #3
    m_cb.pin_flags[pin] |= PIN_FLAG_HANDLER(handler_id);
    3818:	3408      	adds	r4, #8
    m_cb.handlers[handler_id].p_context = p_context;
    381a:	605f      	str	r7, [r3, #4]
    m_cb.pin_flags[pin] |= PIN_FLAG_HANDLER(handler_id);
    381c:	f835 3014 	ldrh.w	r3, [r5, r4, lsl #1]
    m_cb.handlers[handler_id].handler = handler;
    3820:	f845 6032 	str.w	r6, [r5, r2, lsl #3]
    m_cb.pin_flags[pin] |= PIN_FLAG_HANDLER(handler_id);
    3824:	ea43 2342 	orr.w	r3, r3, r2, lsl #9
    3828:	f443 7380 	orr.w	r3, r3, #256	; 0x100
    382c:	f825 3014 	strh.w	r3, [r5, r4, lsl #1]
    return NRFX_SUCCESS;
    3830:	e79d      	b.n	376e <nrfx_gpiote_input_configure+0x7a>
        if ((m_cb.handlers[i].handler == handler) && (m_cb.handlers[i].p_context == p_context))
    3832:	2200      	movs	r2, #0
    3834:	e7ee      	b.n	3814 <nrfx_gpiote_input_configure+0x120>
    3836:	bf00      	nop
    3838:	20000054 	.word	0x20000054
    383c:	0bad0004 	.word	0x0bad0004
    3840:	50842500 	.word	0x50842500
    3844:	0bad0000 	.word	0x0bad0000
    3848:	200000a8 	.word	0x200000a8

0000384c <nrfx_gpiote_output_configure>:
{
    384c:	b5f8      	push	{r3, r4, r5, r6, r7, lr}
    384e:	4604      	mov	r4, r0
    if (p_config)
    3850:	b379      	cbz	r1, 38b2 <nrfx_gpiote_output_configure+0x66>
    return PIN_FLAG_IS_OUTPUT(m_cb.pin_flags[pin]);
    3852:	4e3a      	ldr	r6, [pc, #232]	; (393c <nrfx_gpiote_output_configure+0xf0>)
    3854:	f100 0708 	add.w	r7, r0, #8
    3858:	f836 5017 	ldrh.w	r5, [r6, r7, lsl #1]
        if (pin_is_input(pin) && pin_in_use_by_te(pin))
    385c:	07ab      	lsls	r3, r5, #30
    385e:	d404      	bmi.n	386a <nrfx_gpiote_output_configure+0x1e>
    3860:	f7ff fed6 	bl	3610 <pin_in_use_by_te>
    3864:	b108      	cbz	r0, 386a <nrfx_gpiote_output_configure+0x1e>
{
    3866:	4836      	ldr	r0, [pc, #216]	; (3940 <nrfx_gpiote_output_configure+0xf4>)
}
    3868:	bdf8      	pop	{r3, r4, r5, r6, r7, pc}
        if (pin_has_trigger(pin) && (p_config->input_connect == NRF_GPIO_PIN_INPUT_DISCONNECT))
    386a:	f015 0f1c 	tst.w	r5, #28
    386e:	784b      	ldrb	r3, [r1, #1]
    3870:	d122      	bne.n	38b8 <nrfx_gpiote_output_configure+0x6c>
    *p_pin = pin_number & 0x1F;
    3872:	f004 001f 	and.w	r0, r4, #31
    uint32_t cnf = reg->PIN_CNF[pin_number];
    3876:	f8df c0cc 	ldr.w	ip, [pc, #204]	; 3944 <nrfx_gpiote_output_configure+0xf8>
    387a:	f100 0e80 	add.w	lr, r0, #128	; 0x80
    387e:	f85c c02e 	ldr.w	ip, [ip, lr, lsl #2]
           ((uint32_t)(p_pull  ? *p_pull  : 0) << GPIO_PIN_CNF_PULL_Pos)  |
    3882:	f891 e002 	ldrb.w	lr, [r1, #2]
           ((uint32_t)(p_input ? *p_input : 0) << GPIO_PIN_CNF_INPUT_Pos) |
    3886:	005b      	lsls	r3, r3, #1
    cnf &= ~to_update;
    3888:	f42c 6ce1 	bic.w	ip, ip, #1800	; 0x708
           ((uint32_t)(p_drive ? *p_drive : 0) << GPIO_PIN_CNF_DRIVE_Pos) |
    388c:	7809      	ldrb	r1, [r1, #0]
    388e:	ea43 038e 	orr.w	r3, r3, lr, lsl #2
    cnf &= ~to_update;
    3892:	f02c 0c07 	bic.w	ip, ip, #7
    3896:	ea43 030c 	orr.w	r3, r3, ip
    389a:	ea43 2301 	orr.w	r3, r3, r1, lsl #8
    reg->PIN_CNF[pin_number] = cnf;
    389e:	4929      	ldr	r1, [pc, #164]	; (3944 <nrfx_gpiote_output_configure+0xf8>)
    cnf |= ((uint32_t)(p_dir   ? *p_dir   : 0) << GPIO_PIN_CNF_DIR_Pos)   |
    38a0:	f043 0301 	orr.w	r3, r3, #1
    reg->PIN_CNF[pin_number] = cnf;
    38a4:	3080      	adds	r0, #128	; 0x80
        m_cb.pin_flags[pin] |= PIN_FLAG_IN_USE | PIN_FLAG_OUTPUT;
    38a6:	f045 0503 	orr.w	r5, r5, #3
    38aa:	f841 3020 	str.w	r3, [r1, r0, lsl #2]
    38ae:	f826 5017 	strh.w	r5, [r6, r7, lsl #1]
    if (p_task_config)
    38b2:	b922      	cbnz	r2, 38be <nrfx_gpiote_output_configure+0x72>
    return NRFX_SUCCESS;
    38b4:	4824      	ldr	r0, [pc, #144]	; (3948 <nrfx_gpiote_output_configure+0xfc>)
    38b6:	e7d7      	b.n	3868 <nrfx_gpiote_output_configure+0x1c>
        if (pin_has_trigger(pin) && (p_config->input_connect == NRF_GPIO_PIN_INPUT_DISCONNECT))
    38b8:	2b01      	cmp	r3, #1
    38ba:	d1da      	bne.n	3872 <nrfx_gpiote_output_configure+0x26>
    38bc:	e7d3      	b.n	3866 <nrfx_gpiote_output_configure+0x1a>
    return PIN_FLAG_IS_OUTPUT(m_cb.pin_flags[pin]);
    38be:	4e1f      	ldr	r6, [pc, #124]	; (393c <nrfx_gpiote_output_configure+0xf0>)
    38c0:	f104 0708 	add.w	r7, r4, #8
    38c4:	f836 0017 	ldrh.w	r0, [r6, r7, lsl #1]
        if (pin_is_input(pin))
    38c8:	0783      	lsls	r3, r0, #30
    38ca:	d5cc      	bpl.n	3866 <nrfx_gpiote_output_configure+0x1a>
        uint32_t ch = p_task_config->task_ch;
    38cc:	f892 c000 	ldrb.w	ip, [r2]
    p_reg->CONFIG[idx] = 0;
    38d0:	2300      	movs	r3, #0
    38d2:	4661      	mov	r1, ip
        m_cb.pin_flags[pin] &= ~(PIN_FLAG_TE_USED | PIN_TE_ID_MASK);
    38d4:	f020 0020 	bic.w	r0, r0, #32
    38d8:	0089      	lsls	r1, r1, #2
    38da:	f101 41a0 	add.w	r1, r1, #1342177280	; 0x50000000
    38de:	04c0      	lsls	r0, r0, #19
    38e0:	f501 4150 	add.w	r1, r1, #53248	; 0xd000
    38e4:	0cc0      	lsrs	r0, r0, #19
    38e6:	f8c1 3510 	str.w	r3, [r1, #1296]	; 0x510
    38ea:	f826 0017 	strh.w	r0, [r6, r7, lsl #1]
    p_reg->CONFIG[idx] = 0;
    38ee:	f8c1 3510 	str.w	r3, [r1, #1296]	; 0x510
        if (p_task_config->polarity != NRF_GPIOTE_POLARITY_NONE)
    38f2:	7855      	ldrb	r5, [r2, #1]
    38f4:	2d00      	cmp	r5, #0
    38f6:	d0dd      	beq.n	38b4 <nrfx_gpiote_output_configure+0x68>
  p_reg->CONFIG[idx] &= ~(GPIOTE_CONFIG_PORT_PIN_Msk |
    38f8:	f8d1 3510 	ldr.w	r3, [r1, #1296]	; 0x510
                                      p_task_config->init_val);
    38fc:	7892      	ldrb	r2, [r2, #2]
    38fe:	f423 1398 	bic.w	r3, r3, #1245184	; 0x130000
    3902:	f423 53f8 	bic.w	r3, r3, #7936	; 0x1f00
    3906:	f8c1 3510 	str.w	r3, [r1, #1296]	; 0x510
  p_reg->CONFIG[idx] |= ((pin << GPIOTE_CONFIG_PSEL_Pos) & GPIOTE_CONFIG_PORT_PIN_Msk) |
    390a:	f8d1 e510 	ldr.w	lr, [r1, #1296]	; 0x510
    390e:	0223      	lsls	r3, r4, #8
    3910:	f403 53f8 	and.w	r3, r3, #7936	; 0x1f00
                        ((polarity << GPIOTE_CONFIG_POLARITY_Pos) & GPIOTE_CONFIG_POLARITY_Msk) |
    3914:	042d      	lsls	r5, r5, #16
  p_reg->CONFIG[idx] |= ((pin << GPIOTE_CONFIG_PSEL_Pos) & GPIOTE_CONFIG_PORT_PIN_Msk) |
    3916:	ea43 030e 	orr.w	r3, r3, lr
                        ((polarity << GPIOTE_CONFIG_POLARITY_Pos) & GPIOTE_CONFIG_POLARITY_Msk) |
    391a:	f405 3540 	and.w	r5, r5, #196608	; 0x30000
                        ((init_val << GPIOTE_CONFIG_OUTINIT_Pos) & GPIOTE_CONFIG_OUTINIT_Msk);
    391e:	0512      	lsls	r2, r2, #20
  p_reg->CONFIG[idx] |= ((pin << GPIOTE_CONFIG_PSEL_Pos) & GPIOTE_CONFIG_PORT_PIN_Msk) |
    3920:	432b      	orrs	r3, r5
                        ((init_val << GPIOTE_CONFIG_OUTINIT_Pos) & GPIOTE_CONFIG_OUTINIT_Msk);
    3922:	f402 1280 	and.w	r2, r2, #1048576	; 0x100000
            m_cb.pin_flags[pin] |= PIN_FLAG_TE_ID(ch);
    3926:	ea40 304c 	orr.w	r0, r0, ip, lsl #13
  p_reg->CONFIG[idx] |= ((pin << GPIOTE_CONFIG_PSEL_Pos) & GPIOTE_CONFIG_PORT_PIN_Msk) |
    392a:	4313      	orrs	r3, r2
    392c:	f040 0020 	orr.w	r0, r0, #32
    3930:	f8c1 3510 	str.w	r3, [r1, #1296]	; 0x510
    3934:	f826 0017 	strh.w	r0, [r6, r7, lsl #1]
    3938:	e7bc      	b.n	38b4 <nrfx_gpiote_output_configure+0x68>
    393a:	bf00      	nop
    393c:	20000054 	.word	0x20000054
    3940:	0bad0004 	.word	0x0bad0004
    3944:	50842500 	.word	0x50842500
    3948:	0bad0000 	.word	0x0bad0000

0000394c <nrfx_gpiote_global_callback_set>:
    m_cb.global_handler.handler = handler;
    394c:	4b01      	ldr	r3, [pc, #4]	; (3954 <nrfx_gpiote_global_callback_set+0x8>)
    m_cb.global_handler.p_context = p_context;
    394e:	e9c3 0102 	strd	r0, r1, [r3, #8]
}
    3952:	4770      	bx	lr
    3954:	20000054 	.word	0x20000054

00003958 <nrfx_gpiote_channel_get>:
{
    3958:	b508      	push	{r3, lr}
    395a:	4602      	mov	r2, r0
    if (pin_in_use_by_te(pin))
    395c:	f7ff fe58 	bl	3610 <pin_in_use_by_te>
    3960:	b138      	cbz	r0, 3972 <nrfx_gpiote_channel_get+0x1a>
        *p_channel = PIN_GET_TE_ID(m_cb.pin_flags[pin]);
    3962:	4b05      	ldr	r3, [pc, #20]	; (3978 <nrfx_gpiote_channel_get+0x20>)
    3964:	3208      	adds	r2, #8
    3966:	f833 3012 	ldrh.w	r3, [r3, r2, lsl #1]
        return NRFX_SUCCESS;
    396a:	4804      	ldr	r0, [pc, #16]	; (397c <nrfx_gpiote_channel_get+0x24>)
        *p_channel = PIN_GET_TE_ID(m_cb.pin_flags[pin]);
    396c:	0b5b      	lsrs	r3, r3, #13
    396e:	700b      	strb	r3, [r1, #0]
}
    3970:	bd08      	pop	{r3, pc}
        return NRFX_ERROR_INVALID_PARAM;
    3972:	4803      	ldr	r0, [pc, #12]	; (3980 <nrfx_gpiote_channel_get+0x28>)
    3974:	e7fc      	b.n	3970 <nrfx_gpiote_channel_get+0x18>
    3976:	bf00      	nop
    3978:	20000054 	.word	0x20000054
    397c:	0bad0000 	.word	0x0bad0000
    3980:	0bad0004 	.word	0x0bad0004

00003984 <nrfx_gpiote_init>:
{
    3984:	b538      	push	{r3, r4, r5, lr}
    if (m_cb.state != NRFX_DRV_STATE_UNINITIALIZED)
    3986:	4c0f      	ldr	r4, [pc, #60]	; (39c4 <nrfx_gpiote_init+0x40>)
    3988:	f894 5058 	ldrb.w	r5, [r4, #88]	; 0x58
    398c:	b9bd      	cbnz	r5, 39be <nrfx_gpiote_init+0x3a>
    memset(m_cb.pin_flags, 0, sizeof(m_cb.pin_flags));
    398e:	2240      	movs	r2, #64	; 0x40
    3990:	4629      	mov	r1, r5
    3992:	f104 0010 	add.w	r0, r4, #16
    3996:	f002 fc09 	bl	61ac <memset>
    NRFX_IRQ_ENABLE(nrfx_get_irq_number(NRF_GPIOTE));
    399a:	200d      	movs	r0, #13
    399c:	f7fe f94c 	bl	1c38 <arch_irq_enable>
    *((volatile uint32_t *)nrf_gpiote_event_address_get(p_reg, event)) = 0;
    39a0:	4b09      	ldr	r3, [pc, #36]	; (39c8 <nrfx_gpiote_init+0x44>)
    return err_code;
    39a2:	480a      	ldr	r0, [pc, #40]	; (39cc <nrfx_gpiote_init+0x48>)
    39a4:	f8c3 517c 	str.w	r5, [r3, #380]	; 0x17c
    39a8:	f8d3 217c 	ldr.w	r2, [r3, #380]	; 0x17c
    p_reg->INTENSET = mask;
    39ac:	f04f 4200 	mov.w	r2, #2147483648	; 0x80000000
    39b0:	f8c3 2304 	str.w	r2, [r3, #772]	; 0x304
    m_cb.state = NRFX_DRV_STATE_INITIALIZED;
    39b4:	2301      	movs	r3, #1
    39b6:	f884 3058 	strb.w	r3, [r4, #88]	; 0x58
    m_cb.available_evt_handlers = NRFX_BIT_MASK(NRFX_GPIOTE_CONFIG_NUM_OF_EVT_HANDLERS);
    39ba:	6563      	str	r3, [r4, #84]	; 0x54
}
    39bc:	bd38      	pop	{r3, r4, r5, pc}
        return err_code;
    39be:	4804      	ldr	r0, [pc, #16]	; (39d0 <nrfx_gpiote_init+0x4c>)
    39c0:	e7fc      	b.n	39bc <nrfx_gpiote_init+0x38>
    39c2:	bf00      	nop
    39c4:	20000054 	.word	0x20000054
    39c8:	5000d000 	.word	0x5000d000
    39cc:	0bad0000 	.word	0x0bad0000
    39d0:	0bad0005 	.word	0x0bad0005

000039d4 <nrfx_gpiote_is_init>:
    return (m_cb.state != NRFX_DRV_STATE_UNINITIALIZED) ? true : false;
    39d4:	4b03      	ldr	r3, [pc, #12]	; (39e4 <nrfx_gpiote_is_init+0x10>)
    39d6:	f893 0058 	ldrb.w	r0, [r3, #88]	; 0x58
}
    39da:	3800      	subs	r0, #0
    39dc:	bf18      	it	ne
    39de:	2001      	movne	r0, #1
    39e0:	4770      	bx	lr
    39e2:	bf00      	nop
    39e4:	20000054 	.word	0x20000054

000039e8 <nrfx_gpiote_channel_free>:
{
    39e8:	4601      	mov	r1, r0
    return nrfx_flag32_free(&m_cb.available_channels_mask, channel);
    39ea:	4801      	ldr	r0, [pc, #4]	; (39f0 <nrfx_gpiote_channel_free+0x8>)
    39ec:	f7ff bd9a 	b.w	3524 <nrfx_flag32_free>
    39f0:	200000a4 	.word	0x200000a4

000039f4 <nrfx_gpiote_channel_alloc>:
{
    39f4:	4601      	mov	r1, r0
    return nrfx_flag32_alloc(&m_cb.available_channels_mask, p_channel);
    39f6:	4801      	ldr	r0, [pc, #4]	; (39fc <nrfx_gpiote_channel_alloc+0x8>)
    39f8:	f7ff bd78 	b.w	34ec <nrfx_flag32_alloc>
    39fc:	200000a4 	.word	0x200000a4

00003a00 <nrfx_gpiote_trigger_enable>:
{
    3a00:	4602      	mov	r2, r0
    3a02:	b510      	push	{r4, lr}
    if (pin_in_use_by_te(pin) && pin_is_input(pin))
    3a04:	f7ff fe04 	bl	3610 <pin_in_use_by_te>
    return PIN_FLAG_IS_OUTPUT(m_cb.pin_flags[pin]);
    3a08:	4b1c      	ldr	r3, [pc, #112]	; (3a7c <nrfx_gpiote_trigger_enable+0x7c>)
    3a0a:	f102 0408 	add.w	r4, r2, #8
    3a0e:	f833 3014 	ldrh.w	r3, [r3, r4, lsl #1]
    if (pin_in_use_by_te(pin) && pin_is_input(pin))
    3a12:	b1e0      	cbz	r0, 3a4e <nrfx_gpiote_trigger_enable+0x4e>
    3a14:	f013 0402 	ands.w	r4, r3, #2
    3a18:	d119      	bne.n	3a4e <nrfx_gpiote_trigger_enable+0x4e>
    return PIN_GET_TE_ID(m_cb.pin_flags[pin]);
    3a1a:	0b5b      	lsrs	r3, r3, #13
#endif

NRF_STATIC_INLINE nrf_gpiote_event_t nrf_gpiote_in_event_get(uint8_t index)
{
    NRFX_ASSERT(index < GPIOTE_CH_NUM);
    return (nrf_gpiote_event_t)NRFX_OFFSETOF(NRF_GPIOTE_Type, EVENTS_IN[index]);
    3a1c:	009a      	lsls	r2, r3, #2
    return ((uint32_t)p_reg + event);
    3a1e:	f102 40a0 	add.w	r0, r2, #1342177280	; 0x50000000
    3a22:	f500 4051 	add.w	r0, r0, #53504	; 0xd100
    3a26:	f102 42a0 	add.w	r2, r2, #1342177280	; 0x50000000
    *((volatile uint32_t *)nrf_gpiote_event_address_get(p_reg, event)) = 0;
    3a2a:	6004      	str	r4, [r0, #0]
    3a2c:	f502 4250 	add.w	r2, r2, #53248	; 0xd000
    3a30:	6800      	ldr	r0, [r0, #0]
   p_reg->CONFIG[idx] |= GPIOTE_CONFIG_MODE_Event;
    3a32:	f8d2 0510 	ldr.w	r0, [r2, #1296]	; 0x510
    3a36:	f040 0001 	orr.w	r0, r0, #1
    3a3a:	f8c2 0510 	str.w	r0, [r2, #1296]	; 0x510
        if (int_enable)
    3a3e:	b129      	cbz	r1, 3a4c <nrfx_gpiote_trigger_enable+0x4c>
            nrf_gpiote_int_enable(NRF_GPIOTE, NRFX_BIT(ch));
    3a40:	2201      	movs	r2, #1
    3a42:	fa02 f303 	lsl.w	r3, r2, r3
    p_reg->INTENSET = mask;
    3a46:	4a0e      	ldr	r2, [pc, #56]	; (3a80 <nrfx_gpiote_trigger_enable+0x80>)
    3a48:	f8c2 3304 	str.w	r3, [r2, #772]	; 0x304
}
    3a4c:	bd10      	pop	{r4, pc}
    nrfx_gpiote_trigger_t trigger = PIN_FLAG_TRIG_MODE_GET(m_cb.pin_flags[pin]);
    3a4e:	f3c3 0382 	ubfx	r3, r3, #2, #3
    if (trigger == NRFX_GPIOTE_TRIGGER_LOW)
    3a52:	2b04      	cmp	r3, #4
    3a54:	d00e      	beq.n	3a74 <nrfx_gpiote_trigger_enable+0x74>
    else if (trigger == NRFX_GPIOTE_TRIGGER_HIGH)
    3a56:	2b05      	cmp	r3, #5
    3a58:	d00e      	beq.n	3a78 <nrfx_gpiote_trigger_enable+0x78>
    return p_reg->IN;
    3a5a:	4b0a      	ldr	r3, [pc, #40]	; (3a84 <nrfx_gpiote_trigger_enable+0x84>)
    3a5c:	6919      	ldr	r1, [r3, #16]
    *p_pin = pin_number & 0x1F;
    3a5e:	f002 031f 	and.w	r3, r2, #31
    return ((nrf_gpio_port_in_read(reg) >> pin_number) & 1UL);
    3a62:	40d9      	lsrs	r1, r3
    3a64:	f001 0101 	and.w	r1, r1, #1
    3a68:	3102      	adds	r1, #2
        nrf_gpio_cfg_sense_set(pin, get_initial_sense(pin));
    3a6a:	4610      	mov	r0, r2
}
    3a6c:	e8bd 4010 	ldmia.w	sp!, {r4, lr}
        nrf_gpio_cfg_sense_set(pin, get_initial_sense(pin));
    3a70:	f7ff bdbe 	b.w	35f0 <nrf_gpio_cfg_sense_set>
        sense = NRF_GPIO_PIN_SENSE_LOW;
    3a74:	2103      	movs	r1, #3
    3a76:	e7f8      	b.n	3a6a <nrfx_gpiote_trigger_enable+0x6a>
        sense = NRF_GPIO_PIN_SENSE_HIGH;
    3a78:	2102      	movs	r1, #2
    3a7a:	e7f6      	b.n	3a6a <nrfx_gpiote_trigger_enable+0x6a>
    3a7c:	20000054 	.word	0x20000054
    3a80:	5000d000 	.word	0x5000d000
    3a84:	50842500 	.word	0x50842500

00003a88 <nrfx_gpiote_trigger_disable>:
{
    3a88:	b508      	push	{r3, lr}
    3a8a:	4602      	mov	r2, r0
    if (pin_in_use_by_te(pin) && pin_is_input(pin))
    3a8c:	f7ff fdc0 	bl	3610 <pin_in_use_by_te>
    3a90:	b1c0      	cbz	r0, 3ac4 <nrfx_gpiote_trigger_disable+0x3c>
    return PIN_FLAG_IS_OUTPUT(m_cb.pin_flags[pin]);
    3a92:	4b0f      	ldr	r3, [pc, #60]	; (3ad0 <nrfx_gpiote_trigger_disable+0x48>)
    3a94:	f102 0108 	add.w	r1, r2, #8
    3a98:	f833 3011 	ldrh.w	r3, [r3, r1, lsl #1]
    if (pin_in_use_by_te(pin) && pin_is_input(pin))
    3a9c:	0799      	lsls	r1, r3, #30
    3a9e:	d411      	bmi.n	3ac4 <nrfx_gpiote_trigger_disable+0x3c>
        nrf_gpiote_int_disable(NRF_GPIOTE, NRFX_BIT(ch));
    3aa0:	2201      	movs	r2, #1
    return PIN_GET_TE_ID(m_cb.pin_flags[pin]);
    3aa2:	0b5b      	lsrs	r3, r3, #13
        nrf_gpiote_int_disable(NRF_GPIOTE, NRFX_BIT(ch));
    3aa4:	409a      	lsls	r2, r3
    p_reg->INTENCLR = mask;
    3aa6:	490b      	ldr	r1, [pc, #44]	; (3ad4 <nrfx_gpiote_trigger_disable+0x4c>)
    3aa8:	009b      	lsls	r3, r3, #2
    3aaa:	f103 43a0 	add.w	r3, r3, #1342177280	; 0x50000000
    3aae:	f8c1 2308 	str.w	r2, [r1, #776]	; 0x308
   p_reg->CONFIG[idx] &= ~GPIOTE_CONFIG_MODE_Msk;
    3ab2:	f503 4350 	add.w	r3, r3, #53248	; 0xd000
    3ab6:	f8d3 2510 	ldr.w	r2, [r3, #1296]	; 0x510
    3aba:	f022 0203 	bic.w	r2, r2, #3
    3abe:	f8c3 2510 	str.w	r2, [r3, #1296]	; 0x510
}
    3ac2:	bd08      	pop	{r3, pc}
        nrf_gpio_cfg_sense_set(pin, NRF_GPIO_PIN_NOSENSE);
    3ac4:	2100      	movs	r1, #0
}
    3ac6:	e8bd 4008 	ldmia.w	sp!, {r3, lr}
        nrf_gpio_cfg_sense_set(pin, NRF_GPIO_PIN_NOSENSE);
    3aca:	4610      	mov	r0, r2
    3acc:	f7ff bd90 	b.w	35f0 <nrf_gpio_cfg_sense_set>
    3ad0:	20000054 	.word	0x20000054
    3ad4:	5000d000 	.word	0x5000d000

00003ad8 <nrfx_gpiote_pin_uninit>:
{
    3ad8:	b510      	push	{r4, lr}
    return m_cb.pin_flags[pin] & PIN_FLAG_IN_USE;
    3ada:	4b0c      	ldr	r3, [pc, #48]	; (3b0c <nrfx_gpiote_pin_uninit+0x34>)
    3adc:	f100 0208 	add.w	r2, r0, #8
    3ae0:	f833 3012 	ldrh.w	r3, [r3, r2, lsl #1]
{
    3ae4:	4604      	mov	r4, r0
    if (!pin_in_use(pin))
    3ae6:	07db      	lsls	r3, r3, #31
    3ae8:	d50d      	bpl.n	3b06 <nrfx_gpiote_pin_uninit+0x2e>
    nrfx_gpiote_trigger_disable(pin);
    3aea:	f7ff ffcd 	bl	3a88 <nrfx_gpiote_trigger_disable>
    pin_handler_trigger_uninit(pin);
    3aee:	4620      	mov	r0, r4
    3af0:	f7ff fde2 	bl	36b8 <pin_handler_trigger_uninit>
    reg->PIN_CNF[pin_number] = cnf;
    3af4:	2202      	movs	r2, #2
    3af6:	4b06      	ldr	r3, [pc, #24]	; (3b10 <nrfx_gpiote_pin_uninit+0x38>)
    *p_pin = pin_number & 0x1F;
    3af8:	f004 041f 	and.w	r4, r4, #31
    reg->PIN_CNF[pin_number] = cnf;
    3afc:	3480      	adds	r4, #128	; 0x80
    3afe:	4805      	ldr	r0, [pc, #20]	; (3b14 <nrfx_gpiote_pin_uninit+0x3c>)
    3b00:	f843 2024 	str.w	r2, [r3, r4, lsl #2]
}
    3b04:	bd10      	pop	{r4, pc}
        return NRFX_ERROR_INVALID_PARAM;
    3b06:	4804      	ldr	r0, [pc, #16]	; (3b18 <nrfx_gpiote_pin_uninit+0x40>)
    3b08:	e7fc      	b.n	3b04 <nrfx_gpiote_pin_uninit+0x2c>
    3b0a:	bf00      	nop
    3b0c:	20000054 	.word	0x20000054
    3b10:	50842500 	.word	0x50842500
    3b14:	0bad0000 	.word	0x0bad0000
    3b18:	0bad0004 	.word	0x0bad0004

00003b1c <nrfx_gpiote_irq_handler>:
        call_handler(pin, gpiote_polarity_to_trigger(polarity));
    }
}

void nrfx_gpiote_irq_handler(void)
{
    3b1c:	e92d 4ff0 	stmdb	sp!, {r4, r5, r6, r7, r8, r9, sl, fp, lr}
    uint32_t status = 0;
    3b20:	2500      	movs	r5, #0
    uint32_t i;
    nrf_gpiote_event_t event = NRF_GPIOTE_EVENT_IN_0;
    uint32_t mask = (uint32_t)NRF_GPIOTE_INT_IN0_MASK;
    3b22:	2201      	movs	r2, #1
    *((volatile uint32_t *)nrf_gpiote_event_address_get(p_reg, event)) = 0;
    3b24:	462c      	mov	r4, r5
{
    3b26:	4b4d      	ldr	r3, [pc, #308]	; (3c5c <nrfx_gpiote_irq_handler+0x140>)
    return p_reg->INTENSET & mask;
    3b28:	484d      	ldr	r0, [pc, #308]	; (3c60 <nrfx_gpiote_irq_handler+0x144>)

    /* collect status of all GPIOTE pin events. Processing is done once all are collected and cleared.*/
    for (i = 0; i < GPIOTE_CH_NUM; i++)
    3b2a:	494e      	ldr	r1, [pc, #312]	; (3c64 <nrfx_gpiote_irq_handler+0x148>)
{
    3b2c:	b085      	sub	sp, #20
    return (bool)*(volatile uint32_t *)((uint8_t *)p_reg + (uint32_t)event);
    3b2e:	681e      	ldr	r6, [r3, #0]
    {
        if (nrf_gpiote_event_check(NRF_GPIOTE, event) &&
    3b30:	b136      	cbz	r6, 3b40 <nrfx_gpiote_irq_handler+0x24>
    return p_reg->INTENSET & mask;
    3b32:	f8d0 6304 	ldr.w	r6, [r0, #772]	; 0x304
    3b36:	4216      	tst	r6, r2
    *((volatile uint32_t *)nrf_gpiote_event_address_get(p_reg, event)) = 0;
    3b38:	bf1e      	ittt	ne
    3b3a:	601c      	strne	r4, [r3, #0]
    3b3c:	681e      	ldrne	r6, [r3, #0]
            nrf_gpiote_int_enable_check(NRF_GPIOTE, mask))
        {
            nrf_gpiote_event_clear(NRF_GPIOTE, event);
            status |= mask;
    3b3e:	4315      	orrne	r5, r2
    for (i = 0; i < GPIOTE_CH_NUM; i++)
    3b40:	3304      	adds	r3, #4
    3b42:	428b      	cmp	r3, r1
        }
        mask <<= 1;
    3b44:	ea4f 0242 	mov.w	r2, r2, lsl #1
    for (i = 0; i < GPIOTE_CH_NUM; i++)
    3b48:	d1f1      	bne.n	3b2e <nrfx_gpiote_irq_handler+0x12>
    return (bool)*(volatile uint32_t *)((uint8_t *)p_reg + (uint32_t)event);
    3b4a:	4f45      	ldr	r7, [pc, #276]	; (3c60 <nrfx_gpiote_irq_handler+0x144>)
    3b4c:	f8d7 317c 	ldr.w	r3, [r7, #380]	; 0x17c
         * in ascending order. */
        event = (nrf_gpiote_event_t)((uint32_t)event + sizeof(uint32_t));
    }

    /* handle PORT event */
    if (nrf_gpiote_event_check(NRF_GPIOTE, NRF_GPIOTE_EVENT_PORT))
    3b50:	b193      	cbz	r3, 3b78 <nrfx_gpiote_irq_handler+0x5c>
        *p_masks = gpio_regs[i]->LATCH;
    3b52:	4e45      	ldr	r6, [pc, #276]	; (3c68 <nrfx_gpiote_irq_handler+0x14c>)
    3b54:	6a33      	ldr	r3, [r6, #32]
    3b56:	9303      	str	r3, [sp, #12]
        gpio_regs[i]->LATCH = *p_masks;
    3b58:	6233      	str	r3, [r6, #32]
__STATIC_INLINE void nrf_bitmask_bit_clear(uint32_t bit, void * p_mask)
{
    uint8_t * p_mask8 = (uint8_t *)p_mask;
    uint32_t byte_idx = BITMASK_BYTE_GET(bit);
    bit = BITMASK_RELBIT_GET(bit);
    p_mask8[byte_idx] &= ~(1 << bit);
    3b5a:	f04f 0a01 	mov.w	sl, #1
    3b5e:	f10d 090c 	add.w	r9, sp, #12
            while (latch[i])
    3b62:	9803      	ldr	r0, [sp, #12]
    3b64:	b970      	cbnz	r0, 3b84 <nrfx_gpiote_irq_handler+0x68>
    *((volatile uint32_t *)nrf_gpiote_event_address_get(p_reg, event)) = 0;
    3b66:	f8c7 017c 	str.w	r0, [r7, #380]	; 0x17c
    3b6a:	f8d7 317c 	ldr.w	r3, [r7, #380]	; 0x17c
        *p_masks = gpio_regs[i]->LATCH;
    3b6e:	6a33      	ldr	r3, [r6, #32]
    3b70:	9303      	str	r3, [sp, #12]
        gpio_regs[i]->LATCH = *p_masks;
    3b72:	6233      	str	r3, [r6, #32]
        if (latch[port_idx])
    3b74:	2b00      	cmp	r3, #0
    3b76:	d1f0      	bne.n	3b5a <nrfx_gpiote_irq_handler+0x3e>
        mask &= ~NRFX_BIT(ch);
    3b78:	2401      	movs	r4, #1
    while (mask)
    3b7a:	2d00      	cmp	r5, #0
    3b7c:	d156      	bne.n	3c2c <nrfx_gpiote_irq_handler+0x110>
        port_event_handle();
    }

    /* Process pin events. */
    gpiote_evt_handle(status);
}
    3b7e:	b005      	add	sp, #20
    3b80:	e8bd 8ff0 	ldmia.w	sp!, {r4, r5, r6, r7, r8, r9, sl, fp, pc}
                uint32_t pin = NRF_CTZ(latch[i]);
    3b84:	fa90 fba0 	rbit	fp, r0
    3b88:	fabb fb8b 	clz	fp, fp
                nrfx_gpiote_trigger_t trigger = PIN_FLAG_TRIG_MODE_GET(m_cb.pin_flags[pin]);
    3b8c:	4a37      	ldr	r2, [pc, #220]	; (3c6c <nrfx_gpiote_irq_handler+0x150>)
    3b8e:	f10b 0308 	add.w	r3, fp, #8
    uint32_t byte_idx = BITMASK_BYTE_GET(bit);
    3b92:	ea4f 0cdb 	mov.w	ip, fp, lsr #3
    3b96:	f832 1013 	ldrh.w	r1, [r2, r3, lsl #1]
    bit = BITMASK_RELBIT_GET(bit);
    3b9a:	f00b 0407 	and.w	r4, fp, #7
    p_mask8[byte_idx] &= ~(1 << bit);
    3b9e:	f819 300c 	ldrb.w	r3, [r9, ip]
    3ba2:	fa0a f404 	lsl.w	r4, sl, r4
    3ba6:	ea23 0304 	bic.w	r3, r3, r4
    3baa:	f809 300c 	strb.w	r3, [r9, ip]
    3bae:	eb06 038b 	add.w	r3, r6, fp, lsl #2
    return (nrf_gpio_pin_sense_t)((reg->PIN_CNF[pin_number] &
    3bb2:	f8d3 4200 	ldr.w	r4, [r3, #512]	; 0x200
    3bb6:	f3c1 0282 	ubfx	r2, r1, #2, #3
    if (is_level(trigger))
    3bba:	06c9      	lsls	r1, r1, #27
                nrfx_gpiote_trigger_t trigger = PIN_FLAG_TRIG_MODE_GET(m_cb.pin_flags[pin]);
    3bbc:	4690      	mov	r8, r2
                                   GPIO_PIN_CNF_SENSE_Msk) >> GPIO_PIN_CNF_SENSE_Pos);
    3bbe:	f3c4 4401 	ubfx	r4, r4, #16, #2
    if (is_level(trigger))
    3bc2:	d518      	bpl.n	3bf6 <nrfx_gpiote_irq_handler+0xda>
        call_handler(pin, trigger);
    3bc4:	4611      	mov	r1, r2
    3bc6:	4658      	mov	r0, fp
    3bc8:	9301      	str	r3, [sp, #4]
    3bca:	f7ff fd2b 	bl	3624 <call_handler>
    return (nrf_gpio_pin_sense_t)((reg->PIN_CNF[pin_number] &
    3bce:	9b01      	ldr	r3, [sp, #4]
    3bd0:	b2e4      	uxtb	r4, r4
    3bd2:	f8d3 3200 	ldr.w	r3, [r3, #512]	; 0x200
        if (nrf_gpio_pin_sense_get(pin) == sense)
    3bd6:	f3c3 4301 	ubfx	r3, r3, #16, #2
    3bda:	429c      	cmp	r4, r3
    3bdc:	d107      	bne.n	3bee <nrfx_gpiote_irq_handler+0xd2>
            nrf_gpio_cfg_sense_set(pin, NRF_GPIO_PIN_NOSENSE);
    3bde:	2100      	movs	r1, #0
    3be0:	4658      	mov	r0, fp
    3be2:	f7ff fd05 	bl	35f0 <nrf_gpio_cfg_sense_set>
            nrf_gpio_cfg_sense_set(pin, sense);
    3be6:	4621      	mov	r1, r4
    3be8:	4658      	mov	r0, fp
    3bea:	f7ff fd01 	bl	35f0 <nrf_gpio_cfg_sense_set>
    reg->LATCH = (1 << pin_number);
    3bee:	fa0a f00b 	lsl.w	r0, sl, fp
    3bf2:	6230      	str	r0, [r6, #32]
}
    3bf4:	e7b5      	b.n	3b62 <nrfx_gpiote_irq_handler+0x46>
                NRF_GPIO_PIN_SENSE_LOW : NRF_GPIO_PIN_SENSE_HIGH;
    3bf6:	2c02      	cmp	r4, #2
    3bf8:	d10c      	bne.n	3c14 <nrfx_gpiote_irq_handler+0xf8>
        nrf_gpio_cfg_sense_set(pin, next_sense);
    3bfa:	2103      	movs	r1, #3
    3bfc:	4658      	mov	r0, fp
    3bfe:	f7ff fcf7 	bl	35f0 <nrf_gpio_cfg_sense_set>
        if ((trigger == NRFX_GPIOTE_TRIGGER_TOGGLE) ||
    3c02:	f008 0305 	and.w	r3, r8, #5
    3c06:	2b01      	cmp	r3, #1
    3c08:	d1f1      	bne.n	3bee <nrfx_gpiote_irq_handler+0xd2>
            call_handler(pin, trigger);
    3c0a:	4641      	mov	r1, r8
    3c0c:	4658      	mov	r0, fp
    3c0e:	f7ff fd09 	bl	3624 <call_handler>
    3c12:	e7ec      	b.n	3bee <nrfx_gpiote_irq_handler+0xd2>
        nrf_gpio_cfg_sense_set(pin, next_sense);
    3c14:	2102      	movs	r1, #2
    3c16:	4658      	mov	r0, fp
    3c18:	9201      	str	r2, [sp, #4]
    3c1a:	f7ff fce9 	bl	35f0 <nrf_gpio_cfg_sense_set>
        if ((trigger == NRFX_GPIOTE_TRIGGER_TOGGLE) ||
    3c1e:	9a01      	ldr	r2, [sp, #4]
    3c20:	2a03      	cmp	r2, #3
    3c22:	d0f2      	beq.n	3c0a <nrfx_gpiote_irq_handler+0xee>
            (sense == NRF_GPIO_PIN_SENSE_HIGH && trigger == NRFX_GPIOTE_TRIGGER_LOTOHI) ||
    3c24:	2c03      	cmp	r4, #3
    3c26:	d1e2      	bne.n	3bee <nrfx_gpiote_irq_handler+0xd2>
            (sense == NRF_GPIO_PIN_SENSE_LOW && trigger == NRFX_GPIOTE_TRIGGER_HITOLO))
    3c28:	428a      	cmp	r2, r1
    3c2a:	e7ed      	b.n	3c08 <nrfx_gpiote_irq_handler+0xec>
        uint32_t ch = NRF_CTZ(mask);
    3c2c:	fa95 f3a5 	rbit	r3, r5
    3c30:	fab3 f383 	clz	r3, r3
        mask &= ~NRFX_BIT(ch);
    3c34:	fa04 f203 	lsl.w	r2, r4, r3
    3c38:	009b      	lsls	r3, r3, #2
    3c3a:	f103 43a0 	add.w	r3, r3, #1342177280	; 0x50000000
    3c3e:	f503 4350 	add.w	r3, r3, #53248	; 0xd000
    return ((p_reg->CONFIG[idx] & GPIOTE_CONFIG_PORT_PIN_Msk) >> GPIOTE_CONFIG_PSEL_Pos);
    3c42:	f8d3 0510 	ldr.w	r0, [r3, #1296]	; 0x510
    return (nrf_gpiote_polarity_t)((p_reg->CONFIG[idx] & GPIOTE_CONFIG_POLARITY_Msk) >>
    3c46:	f8d3 1510 	ldr.w	r1, [r3, #1296]	; 0x510
        call_handler(pin, gpiote_polarity_to_trigger(polarity));
    3c4a:	f3c0 2004 	ubfx	r0, r0, #8, #5
    3c4e:	f3c1 4101 	ubfx	r1, r1, #16, #2
        mask &= ~NRFX_BIT(ch);
    3c52:	ea25 0502 	bic.w	r5, r5, r2
        call_handler(pin, gpiote_polarity_to_trigger(polarity));
    3c56:	f7ff fce5 	bl	3624 <call_handler>
    3c5a:	e78e      	b.n	3b7a <nrfx_gpiote_irq_handler+0x5e>
    3c5c:	5000d100 	.word	0x5000d100
    3c60:	5000d000 	.word	0x5000d000
    3c64:	5000d120 	.word	0x5000d120
    3c68:	50842500 	.word	0x50842500
    3c6c:	20000054 	.word	0x20000054

00003c70 <nvmc_readonly_mode_set>:

#if defined(NVMC_CONFIGNS_WEN_Msk)
NRF_STATIC_INLINE void nrf_nvmc_nonsecure_mode_set(NRF_NVMC_Type *    p_reg,
                                                   nrf_nvmc_ns_mode_t mode)
{
    p_reg->CONFIGNS = (uint32_t)mode;
    3c70:	2200      	movs	r2, #0
    3c72:	4b03      	ldr	r3, [pc, #12]	; (3c80 <nvmc_readonly_mode_set+0x10>)
    3c74:	f8c3 2584 	str.w	r2, [r3, #1412]	; 0x584
    p_reg->CONFIG = (uint32_t)mode;
    3c78:	f8c3 2504 	str.w	r2, [r3, #1284]	; 0x504
    nrf_nvmc_nonsecure_mode_set(NRF_NVMC, NRF_NVMC_NS_MODE_READONLY);
#endif
#if !defined(NRF_TRUSTZONE_NONSECURE)
    nrf_nvmc_mode_set(NRF_NVMC, NRF_NVMC_MODE_READONLY);
#endif
}
    3c7c:	4770      	bx	lr
    3c7e:	bf00      	nop
    3c80:	50039000 	.word	0x50039000

00003c84 <nvmc_word_write>:
    return (bool)(p_reg->READYNEXT & NVMC_READYNEXT_READYNEXT_Msk);
    3c84:	4a04      	ldr	r2, [pc, #16]	; (3c98 <nvmc_word_write+0x14>)
    3c86:	f8d2 3408 	ldr.w	r3, [r2, #1032]	; 0x408
}

static void nvmc_word_write(uint32_t addr, uint32_t value)
{
#if defined(NRF9160_XXAA)
    while (!nrf_nvmc_write_ready_check(NRF_NVMC))
    3c8a:	07db      	lsls	r3, r3, #31
    3c8c:	d5fb      	bpl.n	3c86 <nvmc_word_write+0x2>
#else
    while (!nrf_nvmc_ready_check(NRF_NVMC))
    {}
#endif

    *(volatile uint32_t *)addr = value;
    3c8e:	6001      	str	r1, [r0, #0]
  __ASM volatile ("dmb 0xF":::"memory");
    3c90:	f3bf 8f5f 	dmb	sy
    __DMB();
}
    3c94:	4770      	bx	lr
    3c96:	bf00      	nop
    3c98:	50039000 	.word	0x50039000

00003c9c <nrfx_nvmc_page_erase>:
        nvmc_word_write(addr + (NVMC_BYTES_IN_WORD * i), ((uint32_t const *)src)[i]);
    }
}

nrfx_err_t nrfx_nvmc_page_erase(uint32_t addr)
{
    3c9c:	b508      	push	{r3, lr}
    return !(addr % flash_page_size_get());
    3c9e:	f3c0 030b 	ubfx	r3, r0, #0, #12
    NRFX_ASSERT(is_valid_address(addr, false));

    if (!is_page_aligned_check(addr))
    3ca2:	b983      	cbnz	r3, 3cc6 <nrfx_nvmc_page_erase+0x2a>
    p_reg->CONFIGNS = (uint32_t)mode;
    3ca4:	2202      	movs	r2, #2
    3ca6:	4b09      	ldr	r3, [pc, #36]	; (3ccc <nrfx_nvmc_page_erase+0x30>)
    3ca8:	f8c3 2584 	str.w	r2, [r3, #1412]	; 0x584
    p_reg->CONFIG = (uint32_t)mode;
    3cac:	f8c3 2504 	str.w	r2, [r3, #1284]	; 0x504
        p_reg->ERASEPCR1 = page_addr;
    }
#elif defined(NRF52_SERIES)
    p_reg->ERASEPAGE = page_addr;
#elif defined(NRF9160_XXAA) || defined(NRF5340_XXAA_APPLICATION) || defined(NRF5340_XXAA_NETWORK)
    *(volatile uint32_t *)page_addr = 0xFFFFFFFF;
    3cb0:	f04f 32ff 	mov.w	r2, #4294967295	; 0xffffffff
    3cb4:	6002      	str	r2, [r0, #0]
    return (bool)(p_reg->READY & NVMC_READY_READY_Msk);
    3cb6:	f8d3 2400 	ldr.w	r2, [r3, #1024]	; 0x400
        return NRFX_ERROR_INVALID_ADDR;
    }

    nvmc_erase_mode_set();
    nrf_nvmc_page_erase_start(NRF_NVMC, addr);
    while (!nrf_nvmc_ready_check(NRF_NVMC))
    3cba:	07d2      	lsls	r2, r2, #31
    3cbc:	d5fb      	bpl.n	3cb6 <nrfx_nvmc_page_erase+0x1a>
    {}
    nvmc_readonly_mode_set();
    3cbe:	f7ff ffd7 	bl	3c70 <nvmc_readonly_mode_set>

    return NRFX_SUCCESS;
    3cc2:	4803      	ldr	r0, [pc, #12]	; (3cd0 <nrfx_nvmc_page_erase+0x34>)
}
    3cc4:	bd08      	pop	{r3, pc}
        return NRFX_ERROR_INVALID_ADDR;
    3cc6:	4803      	ldr	r0, [pc, #12]	; (3cd4 <nrfx_nvmc_page_erase+0x38>)
    3cc8:	e7fc      	b.n	3cc4 <nrfx_nvmc_page_erase+0x28>
    3cca:	bf00      	nop
    3ccc:	50039000 	.word	0x50039000
    3cd0:	0bad0000 	.word	0x0bad0000
    3cd4:	0bad000a 	.word	0x0bad000a

00003cd8 <nrfx_nvmc_word_write>:
    p_reg->CONFIGNS = (uint32_t)mode;
    3cd8:	2201      	movs	r2, #1

    nrfx_nvmc_word_write(aligned_addr, partial_word_create(addr, (const uint8_t *)&value, 2));
}

void nrfx_nvmc_word_write(uint32_t addr, uint32_t value)
{
    3cda:	b508      	push	{r3, lr}
    3cdc:	4b05      	ldr	r3, [pc, #20]	; (3cf4 <nrfx_nvmc_word_write+0x1c>)
    3cde:	f8c3 2584 	str.w	r2, [r3, #1412]	; 0x584
    p_reg->CONFIG = (uint32_t)mode;
    3ce2:	f8c3 2504 	str.w	r2, [r3, #1284]	; 0x504
    NRFX_ASSERT(is_valid_address(addr, true));
    NRFX_ASSERT(nrfx_is_word_aligned((void const *)addr));

    nvmc_write_mode_set();

    nvmc_word_write(addr, value);
    3ce6:	f7ff ffcd 	bl	3c84 <nvmc_word_write>

    nvmc_readonly_mode_set();
}
    3cea:	e8bd 4008 	ldmia.w	sp!, {r3, lr}
    nvmc_readonly_mode_set();
    3cee:	f7ff bfbf 	b.w	3c70 <nvmc_readonly_mode_set>
    3cf2:	bf00      	nop
    3cf4:	50039000 	.word	0x50039000

00003cf8 <z_fatal_error>:
	return 0;
#endif
}

void z_fatal_error(unsigned int reason, const z_arch_esf_t *esf)
{
    3cf8:	b573      	push	{r0, r1, r4, r5, r6, lr}
    3cfa:	4604      	mov	r4, r0
    3cfc:	460d      	mov	r5, r1
	__asm__ volatile(
    3cfe:	f04f 0320 	mov.w	r3, #32
    3d02:	f3ef 8611 	mrs	r6, BASEPRI
    3d06:	f383 8812 	msr	BASEPRI_MAX, r3
    3d0a:	f3bf 8f6f 	isb	sy
			k_current_get() : NULL;

	/* twister looks for the "ZEPHYR FATAL ERROR" string, don't
	 * change it without also updating twister
	 */
	LOG_ERR(">>> ZEPHYR FATAL ERROR %d: %s on CPU %d", reason,
    3d0e:	2200      	movs	r2, #0
    3d10:	2804      	cmp	r0, #4
    3d12:	bf96      	itet	ls
    3d14:	4b11      	ldrls	r3, [pc, #68]	; (3d5c <z_fatal_error+0x64>)
    3d16:	4b12      	ldrhi	r3, [pc, #72]	; (3d60 <z_fatal_error+0x68>)
    3d18:	f853 3020 	ldrls.w	r3, [r3, r0, lsl #2]
    3d1c:	9200      	str	r2, [sp, #0]
    3d1e:	2145      	movs	r1, #69	; 0x45
    3d20:	4602      	mov	r2, r0
    3d22:	4810      	ldr	r0, [pc, #64]	; (3d64 <z_fatal_error+0x6c>)
    3d24:	f002 f98e 	bl	6044 <z_log_minimal_printk>
	 * an IRQ or exception was being handled, or thread context.
	 *
	 * See #17656
	 */
#if defined(CONFIG_ARCH_HAS_NESTED_EXCEPTION_DETECTION)
	if ((esf != NULL) && arch_is_in_nested_exception(esf)) {
    3d28:	b13d      	cbz	r5, 3d3a <z_fatal_error+0x42>
 * @return true if execution state was in handler mode, before
 *              the current exception occurred, otherwise false.
 */
static ALWAYS_INLINE bool arch_is_in_nested_exception(const z_arch_esf_t *esf)
{
	return (esf->basic.xpsr & IPSR_ISR_Msk) ? (true) : (false);
    3d2a:	69eb      	ldr	r3, [r5, #28]
    3d2c:	f3c3 0308 	ubfx	r3, r3, #0, #9
    3d30:	b11b      	cbz	r3, 3d3a <z_fatal_error+0x42>
		LOG_ERR("Fault during interrupt handling\n");
    3d32:	2145      	movs	r1, #69	; 0x45
    3d34:	480c      	ldr	r0, [pc, #48]	; (3d68 <z_fatal_error+0x70>)
    3d36:	f002 f985 	bl	6044 <z_log_minimal_printk>
	}
#endif

	LOG_ERR("Current thread: %p (%s)", thread,
    3d3a:	2200      	movs	r2, #0
    3d3c:	4b0b      	ldr	r3, [pc, #44]	; (3d6c <z_fatal_error+0x74>)
    3d3e:	2145      	movs	r1, #69	; 0x45
    3d40:	480b      	ldr	r0, [pc, #44]	; (3d70 <z_fatal_error+0x78>)
    3d42:	f002 f97f 	bl	6044 <z_log_minimal_printk>

#ifndef CONFIG_XTENSA
	coredump(reason, esf, thread);
#endif

	k_sys_fatal_error_handler(reason, esf);
    3d46:	4629      	mov	r1, r5
    3d48:	4620      	mov	r0, r4
    3d4a:	f7ff fa0d 	bl	3168 <k_sys_fatal_error_handler>
	__asm__ volatile(
    3d4e:	f386 8811 	msr	BASEPRI, r6
    3d52:	f3bf 8f6f 	isb	sy
	arch_irq_unlock(key);

	if (IS_ENABLED(CONFIG_MULTITHREADING)) {
		k_thread_abort(thread);
	}
}
    3d56:	b002      	add	sp, #8
    3d58:	bd70      	pop	{r4, r5, r6, pc}
    3d5a:	bf00      	nop
    3d5c:	00006e80 	.word	0x00006e80
    3d60:	00007bc0 	.word	0x00007bc0
    3d64:	00007bce 	.word	0x00007bce
    3d68:	00007bfb 	.word	0x00007bfb
    3d6c:	00007c21 	.word	0x00007c21
    3d70:	00007c29 	.word	0x00007c29

00003d74 <z_sys_init_run_level>:
		/* End marker */
		__init_end,
	};
	const struct init_entry *entry;

	for (entry = levels[level]; entry < levels[level+1]; entry++) {
    3d74:	4b0f      	ldr	r3, [pc, #60]	; (3db4 <z_sys_init_run_level+0x40>)
{
    3d76:	b570      	push	{r4, r5, r6, lr}
	for (entry = levels[level]; entry < levels[level+1]; entry++) {
    3d78:	f853 4020 	ldr.w	r4, [r3, r0, lsl #2]
    3d7c:	3001      	adds	r0, #1
    3d7e:	f853 6020 	ldr.w	r6, [r3, r0, lsl #2]
    3d82:	42a6      	cmp	r6, r4
    3d84:	d800      	bhi.n	3d88 <z_sys_init_run_level+0x14>
				dev->state->init_res = rc;
			}
			dev->state->initialized = true;
		}
	}
}
    3d86:	bd70      	pop	{r4, r5, r6, pc}
		int rc = entry->init(dev);
    3d88:	e9d4 3500 	ldrd	r3, r5, [r4]
    3d8c:	4628      	mov	r0, r5
    3d8e:	4798      	blx	r3
		if (dev != NULL) {
    3d90:	b16d      	cbz	r5, 3dae <z_sys_init_run_level+0x3a>
			if (rc != 0) {
    3d92:	b138      	cbz	r0, 3da4 <z_sys_init_run_level+0x30>
				if (rc < 0) {
    3d94:	2800      	cmp	r0, #0
    3d96:	bfb8      	it	lt
    3d98:	4240      	neglt	r0, r0
				if (rc > UINT8_MAX) {
    3d9a:	28ff      	cmp	r0, #255	; 0xff
    3d9c:	bfa8      	it	ge
    3d9e:	20ff      	movge	r0, #255	; 0xff
				dev->state->init_res = rc;
    3da0:	68eb      	ldr	r3, [r5, #12]
    3da2:	7018      	strb	r0, [r3, #0]
			dev->state->initialized = true;
    3da4:	68ea      	ldr	r2, [r5, #12]
    3da6:	7853      	ldrb	r3, [r2, #1]
    3da8:	f043 0301 	orr.w	r3, r3, #1
    3dac:	7053      	strb	r3, [r2, #1]
	for (entry = levels[level]; entry < levels[level+1]; entry++) {
    3dae:	3408      	adds	r4, #8
    3db0:	e7e7      	b.n	3d82 <z_sys_init_run_level+0xe>
    3db2:	bf00      	nop
    3db4:	00006e94 	.word	0x00006e94

00003db8 <bg_thread_main>:
	 * may perform memory management tasks (except for z_phys_map() which
	 * is allowed at any time)
	 */
	z_mem_manage_init();
#endif /* CONFIG_MMU */
	z_sys_post_kernel = true;
    3db8:	2201      	movs	r2, #1
{
    3dba:	b508      	push	{r3, lr}
	z_sys_post_kernel = true;
    3dbc:	4b08      	ldr	r3, [pc, #32]	; (3de0 <bg_thread_main+0x28>)

	z_sys_init_run_level(INIT_LEVEL_POST_KERNEL);
    3dbe:	2003      	movs	r0, #3
	z_sys_post_kernel = true;
    3dc0:	701a      	strb	r2, [r3, #0]
	z_sys_init_run_level(INIT_LEVEL_POST_KERNEL);
    3dc2:	f7ff ffd7 	bl	3d74 <z_sys_init_run_level>
#if CONFIG_STACK_POINTER_RANDOM
	z_stack_adjust_initialized = 1;
#endif
	boot_banner();
    3dc6:	f000 f90f 	bl	3fe8 <boot_banner>
	void z_cpp_init_static(void);
	z_cpp_init_static();
#endif

	/* Final init level before app starts */
	z_sys_init_run_level(INIT_LEVEL_APPLICATION);
    3dca:	2004      	movs	r0, #4
    3dcc:	f7ff ffd2 	bl	3d74 <z_sys_init_run_level>
	extern int main(void);
#else
	extern void main(void);
#endif

	(void)main();
    3dd0:	f7fc fb20 	bl	414 <main>

	/* Mark nonessential since main() has no more work to do */
	z_main_thread.base.user_options &= ~K_ESSENTIAL;
    3dd4:	4a03      	ldr	r2, [pc, #12]	; (3de4 <bg_thread_main+0x2c>)
    3dd6:	7b13      	ldrb	r3, [r2, #12]
    3dd8:	f023 0301 	bic.w	r3, r3, #1
    3ddc:	7313      	strb	r3, [r2, #12]

#ifdef CONFIG_COVERAGE_DUMP
	/* Dump coverage data once the main() has exited. */
	gcov_coverage_dump();
#endif
} /* LCOV_EXCL_LINE ... because we just dumped final coverage data */
    3dde:	bd08      	pop	{r3, pc}
    3de0:	20000fe9 	.word	0x20000fe9
    3de4:	20000148 	.word	0x20000148

00003de8 <z_bss_zero>:
{
    3de8:	b508      	push	{r3, lr}
	z_early_memset(__bss_start, 0, __bss_end - __bss_start);
    3dea:	4803      	ldr	r0, [pc, #12]	; (3df8 <z_bss_zero+0x10>)
    3dec:	4a03      	ldr	r2, [pc, #12]	; (3dfc <z_bss_zero+0x14>)
    3dee:	2100      	movs	r1, #0
    3df0:	1a12      	subs	r2, r2, r0
    3df2:	f002 fd69 	bl	68c8 <z_early_memset>
}
    3df6:	bd08      	pop	{r3, pc}
    3df8:	20000128 	.word	0x20000128
    3dfc:	20000fec 	.word	0x20000fec

00003e00 <z_cstart>:
 *
 * @return Does not return
 */
__boot_func
FUNC_NORETURN void z_cstart(void)
{
    3e00:	b508      	push	{r3, lr}
	/* gcov hook needed to get the coverage report.*/
	gcov_static_init();

	/* initialize early init calls */
	z_sys_init_run_level(INIT_LEVEL_EARLY);
    3e02:	2000      	movs	r0, #0
    3e04:	f7ff ffb6 	bl	3d74 <z_sys_init_run_level>
 *
 */
static ALWAYS_INLINE void z_arm_interrupt_stack_setup(void)
{
	uint32_t msp =
		(uint32_t)(Z_KERNEL_STACK_BUFFER(z_interrupt_stacks[0])) +
    3e08:	4b16      	ldr	r3, [pc, #88]	; (3e64 <z_cstart+0x64>)
	uint32_t msp =
    3e0a:	f503 6200 	add.w	r2, r3, #2048	; 0x800
  __ASM volatile ("MSR msp, %0" : : "r" (topOfMainStack) : );
    3e0e:	f382 8808 	msr	MSP, r2
  __ASM volatile ("MSR msplim, %0" : : "r" (MainStackPtrLimit));
    3e12:	f383 880a 	msr	MSPLIM, r3
    SCB->SHPR[(((uint32_t)IRQn) & 0xFUL)-4UL] = (uint8_t)((priority << (8U - __NVIC_PRIO_BITS)) & (uint32_t)0xFFUL);
    3e16:	2500      	movs	r5, #0
    3e18:	23e0      	movs	r3, #224	; 0xe0
    3e1a:	4c13      	ldr	r4, [pc, #76]	; (3e68 <z_cstart+0x68>)
    3e1c:	f884 3022 	strb.w	r3, [r4, #34]	; 0x22
    3e20:	77e5      	strb	r5, [r4, #31]
    3e22:	7625      	strb	r5, [r4, #24]
    3e24:	7665      	strb	r5, [r4, #25]
    3e26:	76a5      	strb	r5, [r4, #26]
    3e28:	f884 5020 	strb.w	r5, [r4, #32]
#if defined(CONFIG_ARM_SECURE_FIRMWARE)
	NVIC_SetPriority(SecureFault_IRQn, _EXC_FAULT_PRIO);
#endif /* CONFIG_ARM_SECURE_FIRMWARE */

	/* Enable Usage, Mem, & Bus Faults */
	SCB->SHCSR |= SCB_SHCSR_USGFAULTENA_Msk | SCB_SHCSR_MEMFAULTENA_Msk |
    3e2c:	6a63      	ldr	r3, [r4, #36]	; 0x24
    3e2e:	f443 23e0 	orr.w	r3, r3, #458752	; 0x70000
    3e32:	6263      	str	r3, [r4, #36]	; 0x24
    3e34:	f884 5023 	strb.w	r5, [r4, #35]	; 0x23

static ALWAYS_INLINE void arch_kernel_init(void)
{
	z_arm_interrupt_stack_setup();
	z_arm_exc_setup();
	z_arm_fault_init();
    3e38:	f7fe f988 	bl	214c <z_arm_fault_init>
	z_arm_cpu_idle_init();
    3e3c:	f7fd feae 	bl	1b9c <z_arm_cpu_idle_init>
static ALWAYS_INLINE void z_arm_clear_faults(void)
{
#if defined(CONFIG_ARMV6_M_ARMV8_M_BASELINE)
#elif defined(CONFIG_ARMV7_M_ARMV8_M_MAINLINE)
	/* Reset all faults */
	SCB->CFSR = SCB_CFSR_USGFAULTSR_Msk |
    3e40:	f04f 33ff 	mov.w	r3, #4294967295	; 0xffffffff
    3e44:	62a3      	str	r3, [r4, #40]	; 0x28
		    SCB_CFSR_MEMFAULTSR_Msk |
		    SCB_CFSR_BUSFAULTSR_Msk;

	/* Clear all Hard Faults - HFSR is write-one-to-clear */
	SCB->HFSR = 0xffffffff;
    3e46:	62e3      	str	r3, [r4, #44]	; 0x2c
	struct k_thread dummy_thread;

	z_dummy_thread_init(&dummy_thread);
#endif
	/* do any necessary initialization of static devices */
	z_device_state_init();
    3e48:	f002 fd32 	bl	68b0 <z_device_state_init>

	/* perform basic hardware initialization */
	z_sys_init_run_level(INIT_LEVEL_PRE_KERNEL_1);
    3e4c:	2001      	movs	r0, #1
    3e4e:	f7ff ff91 	bl	3d74 <z_sys_init_run_level>
	z_sys_init_run_level(INIT_LEVEL_PRE_KERNEL_2);
    3e52:	2002      	movs	r0, #2
    3e54:	f7ff ff8e 	bl	3d74 <z_sys_init_run_level>
#else
#ifdef ARCH_SWITCH_TO_MAIN_NO_MULTITHREADING
	/* Custom ARCH-specific routine to switch to main()
	 * in the case of no multi-threading.
	 */
	ARCH_SWITCH_TO_MAIN_NO_MULTITHREADING(bg_thread_main,
    3e58:	462b      	mov	r3, r5
    3e5a:	462a      	mov	r2, r5
    3e5c:	4629      	mov	r1, r5
    3e5e:	4803      	ldr	r0, [pc, #12]	; (3e6c <z_cstart+0x6c>)
    3e60:	f7fd ff5e 	bl	1d20 <z_arm_switch_to_main_no_multithreading>
    3e64:	20000ff0 	.word	0x20000ff0
    3e68:	e000ed00 	.word	0xe000ed00
    3e6c:	00003db9 	.word	0x00003db9

00003e70 <z_data_copy>:
 * @brief Copy the data section from ROM to RAM
 *
 * This routine copies the data section from ROM to RAM.
 */
void z_data_copy(void)
{
    3e70:	b508      	push	{r3, lr}
	z_early_memcpy(&__data_region_start, &__data_region_load_start,
		       __data_region_end - __data_region_start);
    3e72:	4806      	ldr	r0, [pc, #24]	; (3e8c <z_data_copy+0x1c>)
	z_early_memcpy(&__data_region_start, &__data_region_load_start,
    3e74:	4a06      	ldr	r2, [pc, #24]	; (3e90 <z_data_copy+0x20>)
    3e76:	4907      	ldr	r1, [pc, #28]	; (3e94 <z_data_copy+0x24>)
    3e78:	1a12      	subs	r2, r2, r0
    3e7a:	f002 fd27 	bl	68cc <z_early_memcpy>
#else
	z_early_memcpy(&_app_smem_start, &_app_smem_rom_start,
		       _app_smem_end - _app_smem_start);
#endif /* CONFIG_STACK_CANARIES */
#endif /* CONFIG_USERSPACE */
}
    3e7e:	e8bd 4008 	ldmia.w	sp!, {r3, lr}
	z_early_memcpy(&__ramfunc_start, &__ramfunc_load_start,
    3e82:	4a05      	ldr	r2, [pc, #20]	; (3e98 <z_data_copy+0x28>)
    3e84:	4905      	ldr	r1, [pc, #20]	; (3e9c <z_data_copy+0x2c>)
    3e86:	4806      	ldr	r0, [pc, #24]	; (3ea0 <z_data_copy+0x30>)
    3e88:	f002 bd20 	b.w	68cc <z_early_memcpy>
    3e8c:	20000000 	.word	0x20000000
    3e90:	20000122 	.word	0x20000122
    3e94:	00007cc4 	.word	0x00007cc4
    3e98:	00000000 	.word	0x00000000
    3e9c:	00007cc4 	.word	0x00007cc4
    3ea0:	20000000 	.word	0x20000000

00003ea4 <elapsed>:
	sys_dlist_remove(&t->node);
}

static int32_t elapsed(void)
{
	return announce_remaining == 0 ? sys_clock_elapsed() : 0U;
    3ea4:	4b03      	ldr	r3, [pc, #12]	; (3eb4 <elapsed+0x10>)
    3ea6:	681b      	ldr	r3, [r3, #0]
    3ea8:	b90b      	cbnz	r3, 3eae <elapsed+0xa>
    3eaa:	f7ff b8b1 	b.w	3010 <sys_clock_elapsed>
}
    3eae:	2000      	movs	r0, #0
    3eb0:	4770      	bx	lr
    3eb2:	bf00      	nop
    3eb4:	20000ec8 	.word	0x20000ec8

00003eb8 <next_timeout>:

static int32_t next_timeout(void)
{
    3eb8:	b510      	push	{r4, lr}
 * @return true if empty, false otherwise
 */

static inline bool sys_dlist_is_empty(sys_dlist_t *list)
{
	return list->head == list;
    3eba:	4b0e      	ldr	r3, [pc, #56]	; (3ef4 <next_timeout+0x3c>)
    3ebc:	681c      	ldr	r4, [r3, #0]
 * @return a pointer to the head element, NULL if list is empty
 */

static inline sys_dnode_t *sys_dlist_peek_head(sys_dlist_t *list)
{
	return sys_dlist_is_empty(list) ? NULL : list->head;
    3ebe:	429c      	cmp	r4, r3
    3ec0:	d104      	bne.n	3ecc <next_timeout+0x14>
	struct _timeout *to = first();
	int32_t ticks_elapsed = elapsed();
    3ec2:	f7ff ffef 	bl	3ea4 <elapsed>
	int32_t ret;

	if ((to == NULL) ||
	    ((int64_t)(to->dticks - ticks_elapsed) > (int64_t)INT_MAX)) {
		ret = MAX_WAIT;
    3ec6:	f06f 4000 	mvn.w	r0, #2147483648	; 0x80000000
	if (_current_cpu->slice_ticks && _current_cpu->slice_ticks < ret) {
		ret = _current_cpu->slice_ticks;
	}
#endif
	return ret;
}
    3eca:	bd10      	pop	{r4, pc}
	int32_t ticks_elapsed = elapsed();
    3ecc:	f7ff ffea 	bl	3ea4 <elapsed>
	if ((to == NULL) ||
    3ed0:	2c00      	cmp	r4, #0
    3ed2:	d0f8      	beq.n	3ec6 <next_timeout+0xe>
	    ((int64_t)(to->dticks - ticks_elapsed) > (int64_t)INT_MAX)) {
    3ed4:	e9d4 3204 	ldrd	r3, r2, [r4, #16]
    3ed8:	1a1b      	subs	r3, r3, r0
    3eda:	eb62 72e0 	sbc.w	r2, r2, r0, asr #31
	if ((to == NULL) ||
    3ede:	f1b3 4f00 	cmp.w	r3, #2147483648	; 0x80000000
    3ee2:	f172 0100 	sbcs.w	r1, r2, #0
    3ee6:	daee      	bge.n	3ec6 <next_timeout+0xe>
		ret = MAX(0, to->dticks - ticks_elapsed);
    3ee8:	2a00      	cmp	r2, #0
    3eea:	bfac      	ite	ge
    3eec:	4618      	movge	r0, r3
    3eee:	2000      	movlt	r0, #0
	return ret;
    3ef0:	e7eb      	b.n	3eca <next_timeout+0x12>
    3ef2:	bf00      	nop
    3ef4:	200000b0 	.word	0x200000b0

00003ef8 <remove_timeout>:
{
    3ef8:	b530      	push	{r4, r5, lr}
 */

static inline sys_dnode_t *sys_dlist_peek_next(sys_dlist_t *list,
					       sys_dnode_t *node)
{
	return (node != NULL) ? sys_dlist_peek_next_no_check(list, node) : NULL;
    3efa:	b170      	cbz	r0, 3f1a <remove_timeout+0x22>
	return (node == list->tail) ? NULL : node->next;
    3efc:	4b0b      	ldr	r3, [pc, #44]	; (3f2c <remove_timeout+0x34>)
    3efe:	685b      	ldr	r3, [r3, #4]
    3f00:	4298      	cmp	r0, r3
    3f02:	d00a      	beq.n	3f1a <remove_timeout+0x22>
    3f04:	6803      	ldr	r3, [r0, #0]
	if (next(t) != NULL) {
    3f06:	b143      	cbz	r3, 3f1a <remove_timeout+0x22>
		next(t)->dticks += t->dticks;
    3f08:	e9d3 2104 	ldrd	r2, r1, [r3, #16]
    3f0c:	e9d0 4504 	ldrd	r4, r5, [r0, #16]
    3f10:	1912      	adds	r2, r2, r4
    3f12:	eb41 0105 	adc.w	r1, r1, r5
    3f16:	e9c3 2104 	strd	r2, r1, [r3, #16]
 */

static inline void sys_dlist_remove(sys_dnode_t *node)
{
	sys_dnode_t *const prev = node->prev;
	sys_dnode_t *const next = node->next;
    3f1a:	e9d0 3200 	ldrd	r3, r2, [r0]

	prev->next = next;
    3f1e:	6013      	str	r3, [r2, #0]
	next->prev = prev;
    3f20:	605a      	str	r2, [r3, #4]
	node->next = NULL;
    3f22:	2300      	movs	r3, #0
	node->prev = NULL;
    3f24:	e9c0 3300 	strd	r3, r3, [r0]
}
    3f28:	bd30      	pop	{r4, r5, pc}
    3f2a:	bf00      	nop
    3f2c:	200000b0 	.word	0x200000b0

00003f30 <sys_clock_announce>:
		}
	}
}

void sys_clock_announce(int32_t ticks)
{
    3f30:	e92d 43f8 	stmdb	sp!, {r3, r4, r5, r6, r7, r8, r9, lr}
    3f34:	4603      	mov	r3, r0
	__asm__ volatile(
    3f36:	f04f 0220 	mov.w	r2, #32
    3f3a:	f3ef 8411 	mrs	r4, BASEPRI
    3f3e:	f382 8812 	msr	BASEPRI_MAX, r2
    3f42:	f3bf 8f6f 	isb	sy
		announce_remaining += ticks;
		k_spin_unlock(&timeout_lock, key);
		return;
	}

	announce_remaining = ticks;
    3f46:	4f25      	ldr	r7, [pc, #148]	; (3fdc <sys_clock_announce+0xac>)
	return list->head == list;
    3f48:	f8df 9094 	ldr.w	r9, [pc, #148]	; 3fe0 <sys_clock_announce+0xb0>
    3f4c:	f8d9 0000 	ldr.w	r0, [r9]

	while (first() != NULL && first()->dticks <= announce_remaining) {
		struct _timeout *t = first();
		int dt = t->dticks;

		curr_tick += dt;
    3f50:	f8df c090 	ldr.w	ip, [pc, #144]	; 3fe4 <sys_clock_announce+0xb4>
	return sys_dlist_is_empty(list) ? NULL : list->head;
    3f54:	4548      	cmp	r0, r9
	announce_remaining = ticks;
    3f56:	603b      	str	r3, [r7, #0]
	return list->head == list;
    3f58:	ea4f 75e3 	mov.w	r5, r3, asr #31
		curr_tick += dt;
    3f5c:	e9dc 1e00 	ldrd	r1, lr, [ip]
	return sys_dlist_is_empty(list) ? NULL : list->head;
    3f60:	d00c      	beq.n	3f7c <sys_clock_announce+0x4c>
	while (first() != NULL && first()->dticks <= announce_remaining) {
    3f62:	b158      	cbz	r0, 3f7c <sys_clock_announce+0x4c>
    3f64:	e9d0 8604 	ldrd	r8, r6, [r0, #16]
    3f68:	4543      	cmp	r3, r8
    3f6a:	eb75 0206 	sbcs.w	r2, r5, r6
    3f6e:	da17      	bge.n	3fa0 <sys_clock_announce+0x70>
		key = k_spin_lock(&timeout_lock);
		announce_remaining -= dt;
	}

	if (first() != NULL) {
		first()->dticks -= announce_remaining;
    3f70:	ebb8 0203 	subs.w	r2, r8, r3
    3f74:	eb66 0605 	sbc.w	r6, r6, r5
    3f78:	e9c0 2604 	strd	r2, r6, [r0, #16]
	}

	curr_tick += announce_remaining;
    3f7c:	1859      	adds	r1, r3, r1
    3f7e:	eb4e 0505 	adc.w	r5, lr, r5
    3f82:	e9cc 1500 	strd	r1, r5, [ip]
	announce_remaining = 0;
    3f86:	2500      	movs	r5, #0
    3f88:	603d      	str	r5, [r7, #0]

	sys_clock_set_timeout(next_timeout(), false);
    3f8a:	f7ff ff95 	bl	3eb8 <next_timeout>
    3f8e:	4629      	mov	r1, r5
    3f90:	f7ff f80c 	bl	2fac <sys_clock_set_timeout>
	__asm__ volatile(
    3f94:	f384 8811 	msr	BASEPRI, r4
    3f98:	f3bf 8f6f 	isb	sy

	k_spin_unlock(&timeout_lock, key);
}
    3f9c:	e8bd 83f8 	ldmia.w	sp!, {r3, r4, r5, r6, r7, r8, r9, pc}
		curr_tick += dt;
    3fa0:	eb18 0101 	adds.w	r1, r8, r1
    3fa4:	eb4e 73e8 	adc.w	r3, lr, r8, asr #31
		t->dticks = 0;
    3fa8:	2200      	movs	r2, #0
		curr_tick += dt;
    3faa:	e9cc 1300 	strd	r1, r3, [ip]
		t->dticks = 0;
    3fae:	2300      	movs	r3, #0
    3fb0:	e9c0 2304 	strd	r2, r3, [r0, #16]
		remove_timeout(t);
    3fb4:	f7ff ffa0 	bl	3ef8 <remove_timeout>
    3fb8:	f384 8811 	msr	BASEPRI, r4
    3fbc:	f3bf 8f6f 	isb	sy
		t->fn(t);
    3fc0:	6883      	ldr	r3, [r0, #8]
    3fc2:	4798      	blx	r3
	__asm__ volatile(
    3fc4:	f04f 0320 	mov.w	r3, #32
    3fc8:	f3ef 8411 	mrs	r4, BASEPRI
    3fcc:	f383 8812 	msr	BASEPRI_MAX, r3
    3fd0:	f3bf 8f6f 	isb	sy
		announce_remaining -= dt;
    3fd4:	683b      	ldr	r3, [r7, #0]
    3fd6:	eba3 0308 	sub.w	r3, r3, r8
    3fda:	e7b7      	b.n	3f4c <sys_clock_announce+0x1c>
    3fdc:	20000ec8 	.word	0x20000ec8
    3fe0:	200000b0 	.word	0x200000b0
    3fe4:	200001c8 	.word	0x200001c8

00003fe8 <boot_banner>:
	printk("***** delaying boot " DELAY_STR "ms (per build configuration) *****\n");
	k_busy_wait(CONFIG_BOOT_DELAY * USEC_PER_MSEC);
#endif /* defined(CONFIG_BOOT_DELAY) && (CONFIG_BOOT_DELAY > 0) */

#if CONFIG_BOOT_BANNER
	printk("*** Booting Zephyr OS build " BANNER_VERSION BANNER_POSTFIX " ***\n");
    3fe8:	4801      	ldr	r0, [pc, #4]	; (3ff0 <boot_banner+0x8>)
    3fea:	f001 bf43 	b.w	5e74 <printk>
    3fee:	bf00      	nop
    3ff0:	00007c93 	.word	0x00007c93

00003ff4 <nrf_cc3xx_platform_init_no_rng>:
    3ff4:	b510      	push	{r4, lr}
    3ff6:	4c0a      	ldr	r4, [pc, #40]	; (4020 <CONFIG_COVERAGE_GCOV_HEAP_SIZE+0x20>)
    3ff8:	6823      	ldr	r3, [r4, #0]
    3ffa:	b11b      	cbz	r3, 4004 <CONFIG_COVERAGE_GCOV_HEAP_SIZE+0x4>
    3ffc:	2301      	movs	r3, #1
    3ffe:	2000      	movs	r0, #0
    4000:	6023      	str	r3, [r4, #0]
    4002:	bd10      	pop	{r4, pc}
    4004:	f000 f850 	bl	40a8 <CC_LibInitNoRng>
    4008:	2800      	cmp	r0, #0
    400a:	d0f7      	beq.n	3ffc <nrf_cc3xx_platform_init_no_rng+0x8>
    400c:	3801      	subs	r0, #1
    400e:	2806      	cmp	r0, #6
    4010:	d803      	bhi.n	401a <CONFIG_COVERAGE_GCOV_HEAP_SIZE+0x1a>
    4012:	4b04      	ldr	r3, [pc, #16]	; (4024 <CONFIG_COVERAGE_GCOV_HEAP_SIZE+0x24>)
    4014:	f853 0020 	ldr.w	r0, [r3, r0, lsl #2]
    4018:	bd10      	pop	{r4, pc}
    401a:	4803      	ldr	r0, [pc, #12]	; (4028 <CONFIG_COVERAGE_GCOV_HEAP_SIZE+0x28>)
    401c:	bd10      	pop	{r4, pc}
    401e:	bf00      	nop
    4020:	20000ecc 	.word	0x20000ecc
    4024:	00006eac 	.word	0x00006eac
    4028:	ffff8ffe 	.word	0xffff8ffe

0000402c <nrf_cc3xx_platform_abort>:
    402c:	f3bf 8f4f 	dsb	sy
    4030:	4905      	ldr	r1, [pc, #20]	; (4048 <nrf_cc3xx_platform_abort+0x1c>)
    4032:	4b06      	ldr	r3, [pc, #24]	; (404c <nrf_cc3xx_platform_abort+0x20>)
    4034:	68ca      	ldr	r2, [r1, #12]
    4036:	f402 62e0 	and.w	r2, r2, #1792	; 0x700
    403a:	4313      	orrs	r3, r2
    403c:	60cb      	str	r3, [r1, #12]
    403e:	f3bf 8f4f 	dsb	sy
    4042:	bf00      	nop
    4044:	e7fd      	b.n	4042 <nrf_cc3xx_platform_abort+0x16>
    4046:	bf00      	nop
    4048:	e000ed00 	.word	0xe000ed00
    404c:	05fa0004 	.word	0x05fa0004

00004050 <CC_PalAbort>:
    4050:	b430      	push	{r4, r5}
    4052:	f04f 32fe 	mov.w	r2, #4278124286	; 0xfefefefe
    4056:	2500      	movs	r5, #0
    4058:	4b07      	ldr	r3, [pc, #28]	; (4078 <CC_PalAbort+0x28>)
    405a:	4c08      	ldr	r4, [pc, #32]	; (407c <CC_PalAbort+0x2c>)
    405c:	4908      	ldr	r1, [pc, #32]	; (4080 <CC_PalAbort+0x30>)
    405e:	6849      	ldr	r1, [r1, #4]
    4060:	f8c3 2400 	str.w	r2, [r3, #1024]	; 0x400
    4064:	f8c3 2404 	str.w	r2, [r3, #1028]	; 0x404
    4068:	f8c3 2408 	str.w	r2, [r3, #1032]	; 0x408
    406c:	f8c3 240c 	str.w	r2, [r3, #1036]	; 0x40c
    4070:	f8c4 5500 	str.w	r5, [r4, #1280]	; 0x500
    4074:	bc30      	pop	{r4, r5}
    4076:	4708      	bx	r1
    4078:	50841000 	.word	0x50841000
    407c:	50840000 	.word	0x50840000
    4080:	200000b8 	.word	0x200000b8

00004084 <nrf_cc3xx_platform_set_abort>:
    4084:	4b02      	ldr	r3, [pc, #8]	; (4090 <nrf_cc3xx_platform_set_abort+0xc>)
    4086:	e9d0 1200 	ldrd	r1, r2, [r0]
    408a:	e9c3 1200 	strd	r1, r2, [r3]
    408e:	4770      	bx	lr
    4090:	200000b8 	.word	0x200000b8

00004094 <mbedtls_platform_zeroize>:
    4094:	b138      	cbz	r0, 40a6 <mbedtls_platform_zeroize+0x12>
    4096:	b131      	cbz	r1, 40a6 <mbedtls_platform_zeroize+0x12>
    4098:	2200      	movs	r2, #0
    409a:	4401      	add	r1, r0
    409c:	4603      	mov	r3, r0
    409e:	3001      	adds	r0, #1
    40a0:	4288      	cmp	r0, r1
    40a2:	701a      	strb	r2, [r3, #0]
    40a4:	d1fa      	bne.n	409c <mbedtls_platform_zeroize+0x8>
    40a6:	4770      	bx	lr

000040a8 <CC_LibInitNoRng>:
    40a8:	b538      	push	{r3, r4, r5, lr}
    40aa:	f000 f82f 	bl	410c <CC_HalInit>
    40ae:	b120      	cbz	r0, 40ba <CC_LibInitNoRng+0x12>
    40b0:	2403      	movs	r4, #3
    40b2:	f000 f863 	bl	417c <CC_PalTerminate>
    40b6:	4620      	mov	r0, r4
    40b8:	bd38      	pop	{r3, r4, r5, pc}
    40ba:	f000 f831 	bl	4120 <CC_PalInit>
    40be:	b998      	cbnz	r0, 40e8 <CC_LibInitNoRng+0x40>
    40c0:	f000 f8ac 	bl	421c <CC_PalPowerSaveModeSelect>
    40c4:	b998      	cbnz	r0, 40ee <CC_LibInitNoRng+0x46>
    40c6:	4d0f      	ldr	r5, [pc, #60]	; (4104 <CC_LibInitNoRng+0x5c>)
    40c8:	f8d5 3928 	ldr.w	r3, [r5, #2344]	; 0x928
    40cc:	0e1b      	lsrs	r3, r3, #24
    40ce:	2bf0      	cmp	r3, #240	; 0xf0
    40d0:	d108      	bne.n	40e4 <CC_LibInitNoRng+0x3c>
    40d2:	f8d5 2a24 	ldr.w	r2, [r5, #2596]	; 0xa24
    40d6:	4b0c      	ldr	r3, [pc, #48]	; (4108 <CC_LibInitNoRng+0x60>)
    40d8:	429a      	cmp	r2, r3
    40da:	d00a      	beq.n	40f2 <CC_LibInitNoRng+0x4a>
    40dc:	2407      	movs	r4, #7
    40de:	f000 f817 	bl	4110 <CC_HalTerminate>
    40e2:	e7e6      	b.n	40b2 <CC_LibInitNoRng+0xa>
    40e4:	2406      	movs	r4, #6
    40e6:	e7fa      	b.n	40de <CC_LibInitNoRng+0x36>
    40e8:	2404      	movs	r4, #4
    40ea:	4620      	mov	r0, r4
    40ec:	bd38      	pop	{r3, r4, r5, pc}
    40ee:	2400      	movs	r4, #0
    40f0:	e7f5      	b.n	40de <CC_LibInitNoRng+0x36>
    40f2:	2001      	movs	r0, #1
    40f4:	f000 f892 	bl	421c <CC_PalPowerSaveModeSelect>
    40f8:	4604      	mov	r4, r0
    40fa:	2800      	cmp	r0, #0
    40fc:	d1f7      	bne.n	40ee <CC_LibInitNoRng+0x46>
    40fe:	f8c5 0a0c 	str.w	r0, [r5, #2572]	; 0xa0c
    4102:	e7d8      	b.n	40b6 <CC_LibInitNoRng+0xe>
    4104:	50841000 	.word	0x50841000
    4108:	20e00000 	.word	0x20e00000

0000410c <CC_HalInit>:
    410c:	2000      	movs	r0, #0
    410e:	4770      	bx	lr

00004110 <CC_HalTerminate>:
    4110:	2000      	movs	r0, #0
    4112:	4770      	bx	lr

00004114 <CC_HalMaskInterrupt>:
    4114:	4b01      	ldr	r3, [pc, #4]	; (411c <CC_HalMaskInterrupt+0x8>)
    4116:	f8c3 0a04 	str.w	r0, [r3, #2564]	; 0xa04
    411a:	4770      	bx	lr
    411c:	50841000 	.word	0x50841000

00004120 <CC_PalInit>:
    4120:	b510      	push	{r4, lr}
    4122:	4811      	ldr	r0, [pc, #68]	; (4168 <CC_PalInit+0x48>)
    4124:	f000 f848 	bl	41b8 <CC_PalMutexCreate>
    4128:	b100      	cbz	r0, 412c <CC_PalInit+0xc>
    412a:	bd10      	pop	{r4, pc}
    412c:	480f      	ldr	r0, [pc, #60]	; (416c <CC_PalInit+0x4c>)
    412e:	f000 f843 	bl	41b8 <CC_PalMutexCreate>
    4132:	2800      	cmp	r0, #0
    4134:	d1f9      	bne.n	412a <CC_PalInit+0xa>
    4136:	4c0e      	ldr	r4, [pc, #56]	; (4170 <CC_PalInit+0x50>)
    4138:	4620      	mov	r0, r4
    413a:	f000 f83d 	bl	41b8 <CC_PalMutexCreate>
    413e:	2800      	cmp	r0, #0
    4140:	d1f3      	bne.n	412a <CC_PalInit+0xa>
    4142:	4b0c      	ldr	r3, [pc, #48]	; (4174 <CC_PalInit+0x54>)
    4144:	480c      	ldr	r0, [pc, #48]	; (4178 <CC_PalInit+0x58>)
    4146:	601c      	str	r4, [r3, #0]
    4148:	f000 f836 	bl	41b8 <CC_PalMutexCreate>
    414c:	4601      	mov	r1, r0
    414e:	2800      	cmp	r0, #0
    4150:	d1eb      	bne.n	412a <CC_PalInit+0xa>
    4152:	f000 f82d 	bl	41b0 <CC_PalDmaInit>
    4156:	4604      	mov	r4, r0
    4158:	b108      	cbz	r0, 415e <CC_PalInit+0x3e>
    415a:	4620      	mov	r0, r4
    415c:	bd10      	pop	{r4, pc}
    415e:	f000 f83f 	bl	41e0 <CC_PalPowerSaveModeInit>
    4162:	4620      	mov	r0, r4
    4164:	e7fa      	b.n	415c <CC_PalInit+0x3c>
    4166:	bf00      	nop
    4168:	200000cc 	.word	0x200000cc
    416c:	200000c0 	.word	0x200000c0
    4170:	200000c8 	.word	0x200000c8
    4174:	200000d0 	.word	0x200000d0
    4178:	200000c4 	.word	0x200000c4

0000417c <CC_PalTerminate>:
    417c:	b508      	push	{r3, lr}
    417e:	4808      	ldr	r0, [pc, #32]	; (41a0 <CC_PalTerminate+0x24>)
    4180:	f000 f824 	bl	41cc <CC_PalMutexDestroy>
    4184:	4807      	ldr	r0, [pc, #28]	; (41a4 <CC_PalTerminate+0x28>)
    4186:	f000 f821 	bl	41cc <CC_PalMutexDestroy>
    418a:	4807      	ldr	r0, [pc, #28]	; (41a8 <CC_PalTerminate+0x2c>)
    418c:	f000 f81e 	bl	41cc <CC_PalMutexDestroy>
    4190:	4806      	ldr	r0, [pc, #24]	; (41ac <CC_PalTerminate+0x30>)
    4192:	f000 f81b 	bl	41cc <CC_PalMutexDestroy>
    4196:	e8bd 4008 	ldmia.w	sp!, {r3, lr}
    419a:	f000 b80b 	b.w	41b4 <CC_PalDmaTerminate>
    419e:	bf00      	nop
    41a0:	200000cc 	.word	0x200000cc
    41a4:	200000c0 	.word	0x200000c0
    41a8:	200000c8 	.word	0x200000c8
    41ac:	200000c4 	.word	0x200000c4

000041b0 <CC_PalDmaInit>:
    41b0:	2000      	movs	r0, #0
    41b2:	4770      	bx	lr

000041b4 <CC_PalDmaTerminate>:
    41b4:	4770      	bx	lr
    41b6:	bf00      	nop

000041b8 <CC_PalMutexCreate>:
    41b8:	b508      	push	{r3, lr}
    41ba:	4b03      	ldr	r3, [pc, #12]	; (41c8 <CC_PalMutexCreate+0x10>)
    41bc:	6802      	ldr	r2, [r0, #0]
    41be:	681b      	ldr	r3, [r3, #0]
    41c0:	6810      	ldr	r0, [r2, #0]
    41c2:	4798      	blx	r3
    41c4:	2000      	movs	r0, #0
    41c6:	bd08      	pop	{r3, pc}
    41c8:	200000dc 	.word	0x200000dc

000041cc <CC_PalMutexDestroy>:
    41cc:	b508      	push	{r3, lr}
    41ce:	4b03      	ldr	r3, [pc, #12]	; (41dc <CC_PalMutexDestroy+0x10>)
    41d0:	6802      	ldr	r2, [r0, #0]
    41d2:	685b      	ldr	r3, [r3, #4]
    41d4:	6810      	ldr	r0, [r2, #0]
    41d6:	4798      	blx	r3
    41d8:	2000      	movs	r0, #0
    41da:	bd08      	pop	{r3, pc}
    41dc:	200000dc 	.word	0x200000dc

000041e0 <CC_PalPowerSaveModeInit>:
    41e0:	b570      	push	{r4, r5, r6, lr}
    41e2:	4c09      	ldr	r4, [pc, #36]	; (4208 <CC_PalPowerSaveModeInit+0x28>)
    41e4:	4d09      	ldr	r5, [pc, #36]	; (420c <CC_PalPowerSaveModeInit+0x2c>)
    41e6:	6920      	ldr	r0, [r4, #16]
    41e8:	68ab      	ldr	r3, [r5, #8]
    41ea:	4798      	blx	r3
    41ec:	b118      	cbz	r0, 41f6 <CC_PalPowerSaveModeInit+0x16>
    41ee:	4b08      	ldr	r3, [pc, #32]	; (4210 <CC_PalPowerSaveModeInit+0x30>)
    41f0:	4808      	ldr	r0, [pc, #32]	; (4214 <CC_PalPowerSaveModeInit+0x34>)
    41f2:	685b      	ldr	r3, [r3, #4]
    41f4:	4798      	blx	r3
    41f6:	2100      	movs	r1, #0
    41f8:	4a07      	ldr	r2, [pc, #28]	; (4218 <CC_PalPowerSaveModeInit+0x38>)
    41fa:	68eb      	ldr	r3, [r5, #12]
    41fc:	6011      	str	r1, [r2, #0]
    41fe:	6920      	ldr	r0, [r4, #16]
    4200:	e8bd 4070 	ldmia.w	sp!, {r4, r5, r6, lr}
    4204:	4718      	bx	r3
    4206:	bf00      	nop
    4208:	200000ec 	.word	0x200000ec
    420c:	200000dc 	.word	0x200000dc
    4210:	200000b8 	.word	0x200000b8
    4214:	00006ec8 	.word	0x00006ec8
    4218:	20000ed0 	.word	0x20000ed0

0000421c <CC_PalPowerSaveModeSelect>:
    421c:	b5f8      	push	{r3, r4, r5, r6, r7, lr}
    421e:	4d1a      	ldr	r5, [pc, #104]	; (4288 <CC_PalPowerSaveModeSelect+0x6c>)
    4220:	4e1a      	ldr	r6, [pc, #104]	; (428c <CC_PalPowerSaveModeSelect+0x70>)
    4222:	4604      	mov	r4, r0
    4224:	68b2      	ldr	r2, [r6, #8]
    4226:	6928      	ldr	r0, [r5, #16]
    4228:	4790      	blx	r2
    422a:	b9e8      	cbnz	r0, 4268 <CC_PalPowerSaveModeSelect+0x4c>
    422c:	4f18      	ldr	r7, [pc, #96]	; (4290 <CC_PalPowerSaveModeSelect+0x74>)
    422e:	683b      	ldr	r3, [r7, #0]
    4230:	b14c      	cbz	r4, 4246 <CC_PalPowerSaveModeSelect+0x2a>
    4232:	b1a3      	cbz	r3, 425e <CC_PalPowerSaveModeSelect+0x42>
    4234:	2b01      	cmp	r3, #1
    4236:	d019      	beq.n	426c <CC_PalPowerSaveModeSelect+0x50>
    4238:	3b01      	subs	r3, #1
    423a:	603b      	str	r3, [r7, #0]
    423c:	6928      	ldr	r0, [r5, #16]
    423e:	68f3      	ldr	r3, [r6, #12]
    4240:	4798      	blx	r3
    4242:	2000      	movs	r0, #0
    4244:	bdf8      	pop	{r3, r4, r5, r6, r7, pc}
    4246:	b943      	cbnz	r3, 425a <CC_PalPowerSaveModeSelect+0x3e>
    4248:	2101      	movs	r1, #1
    424a:	4a12      	ldr	r2, [pc, #72]	; (4294 <CC_PalPowerSaveModeSelect+0x78>)
    424c:	f8c2 1500 	str.w	r1, [r2, #1280]	; 0x500
    4250:	4911      	ldr	r1, [pc, #68]	; (4298 <CC_PalPowerSaveModeSelect+0x7c>)
    4252:	f8d1 2910 	ldr.w	r2, [r1, #2320]	; 0x910
    4256:	2a00      	cmp	r2, #0
    4258:	d1fb      	bne.n	4252 <CC_PalPowerSaveModeSelect+0x36>
    425a:	3301      	adds	r3, #1
    425c:	603b      	str	r3, [r7, #0]
    425e:	68f3      	ldr	r3, [r6, #12]
    4260:	6928      	ldr	r0, [r5, #16]
    4262:	4798      	blx	r3
    4264:	2000      	movs	r0, #0
    4266:	bdf8      	pop	{r3, r4, r5, r6, r7, pc}
    4268:	480c      	ldr	r0, [pc, #48]	; (429c <CC_PalPowerSaveModeSelect+0x80>)
    426a:	bdf8      	pop	{r3, r4, r5, r6, r7, pc}
    426c:	4a0a      	ldr	r2, [pc, #40]	; (4298 <CC_PalPowerSaveModeSelect+0x7c>)
    426e:	f8d2 3910 	ldr.w	r3, [r2, #2320]	; 0x910
    4272:	2b00      	cmp	r3, #0
    4274:	d1fb      	bne.n	426e <CC_PalPowerSaveModeSelect+0x52>
    4276:	4a07      	ldr	r2, [pc, #28]	; (4294 <CC_PalPowerSaveModeSelect+0x78>)
    4278:	f06f 407e 	mvn.w	r0, #4261412864	; 0xfe000000
    427c:	f8c2 3500 	str.w	r3, [r2, #1280]	; 0x500
    4280:	f7ff ff48 	bl	4114 <CC_HalMaskInterrupt>
    4284:	683b      	ldr	r3, [r7, #0]
    4286:	e7d7      	b.n	4238 <CC_PalPowerSaveModeSelect+0x1c>
    4288:	200000ec 	.word	0x200000ec
    428c:	200000dc 	.word	0x200000dc
    4290:	20000ed0 	.word	0x20000ed0
    4294:	50840000 	.word	0x50840000
    4298:	50841000 	.word	0x50841000
    429c:	ffff8fe9 	.word	0xffff8fe9

000042a0 <mutex_free>:
    42a0:	b510      	push	{r4, lr}
    42a2:	4604      	mov	r4, r0
    42a4:	b150      	cbz	r0, 42bc <mutex_free+0x1c>
    42a6:	6863      	ldr	r3, [r4, #4]
    42a8:	f013 5f68 	tst.w	r3, #973078528	; 0x3a000000
    42ac:	d005      	beq.n	42ba <mutex_free+0x1a>
    42ae:	4a06      	ldr	r2, [pc, #24]	; (42c8 <mutex_free+0x28>)
    42b0:	4293      	cmp	r3, r2
    42b2:	d002      	beq.n	42ba <mutex_free+0x1a>
    42b4:	2300      	movs	r3, #0
    42b6:	6062      	str	r2, [r4, #4]
    42b8:	6023      	str	r3, [r4, #0]
    42ba:	bd10      	pop	{r4, pc}
    42bc:	4b03      	ldr	r3, [pc, #12]	; (42cc <mutex_free+0x2c>)
    42be:	4804      	ldr	r0, [pc, #16]	; (42d0 <mutex_free+0x30>)
    42c0:	685b      	ldr	r3, [r3, #4]
    42c2:	4798      	blx	r3
    42c4:	e7ef      	b.n	42a6 <mutex_free+0x6>
    42c6:	bf00      	nop
    42c8:	a95c5f2c 	.word	0xa95c5f2c
    42cc:	200000b8 	.word	0x200000b8
    42d0:	00006ee8 	.word	0x00006ee8

000042d4 <mutex_lock>:
    42d4:	b1c8      	cbz	r0, 430a <mutex_lock+0x36>
    42d6:	6843      	ldr	r3, [r0, #4]
    42d8:	4a0d      	ldr	r2, [pc, #52]	; (4310 <mutex_lock+0x3c>)
    42da:	4293      	cmp	r3, r2
    42dc:	d013      	beq.n	4306 <mutex_lock+0x32>
    42de:	f013 5f68 	tst.w	r3, #973078528	; 0x3a000000
    42e2:	d00e      	beq.n	4302 <mutex_lock+0x2e>
    42e4:	2301      	movs	r3, #1
    42e6:	e850 2f00 	ldrex	r2, [r0]
    42ea:	4619      	mov	r1, r3
    42ec:	e840 1c00 	strex	ip, r1, [r0]
    42f0:	f09c 0f00 	teq	ip, #0
    42f4:	d1f7      	bne.n	42e6 <mutex_lock+0x12>
    42f6:	2a01      	cmp	r2, #1
    42f8:	d0f5      	beq.n	42e6 <mutex_lock+0x12>
    42fa:	f3bf 8f5f 	dmb	sy
    42fe:	2000      	movs	r0, #0
    4300:	4770      	bx	lr
    4302:	4804      	ldr	r0, [pc, #16]	; (4314 <mutex_lock+0x40>)
    4304:	4770      	bx	lr
    4306:	4804      	ldr	r0, [pc, #16]	; (4318 <mutex_lock+0x44>)
    4308:	4770      	bx	lr
    430a:	f46f 40e0 	mvn.w	r0, #28672	; 0x7000
    430e:	4770      	bx	lr
    4310:	a95c5f2c 	.word	0xa95c5f2c
    4314:	ffff8fe9 	.word	0xffff8fe9
    4318:	ffff8fea 	.word	0xffff8fea

0000431c <mutex_unlock>:
    431c:	4603      	mov	r3, r0
    431e:	b180      	cbz	r0, 4342 <mutex_unlock+0x26>
    4320:	6842      	ldr	r2, [r0, #4]
    4322:	4909      	ldr	r1, [pc, #36]	; (4348 <mutex_unlock+0x2c>)
    4324:	428a      	cmp	r2, r1
    4326:	d00a      	beq.n	433e <mutex_unlock+0x22>
    4328:	f012 5f68 	tst.w	r2, #973078528	; 0x3a000000
    432c:	d005      	beq.n	433a <mutex_unlock+0x1e>
    432e:	f3bf 8f5f 	dmb	sy
    4332:	2200      	movs	r2, #0
    4334:	4610      	mov	r0, r2
    4336:	601a      	str	r2, [r3, #0]
    4338:	4770      	bx	lr
    433a:	4804      	ldr	r0, [pc, #16]	; (434c <mutex_unlock+0x30>)
    433c:	4770      	bx	lr
    433e:	4804      	ldr	r0, [pc, #16]	; (4350 <mutex_unlock+0x34>)
    4340:	4770      	bx	lr
    4342:	f46f 40e0 	mvn.w	r0, #28672	; 0x7000
    4346:	4770      	bx	lr
    4348:	a95c5f2c 	.word	0xa95c5f2c
    434c:	ffff8fe9 	.word	0xffff8fe9
    4350:	ffff8fea 	.word	0xffff8fea

00004354 <mutex_init>:
    4354:	b510      	push	{r4, lr}
    4356:	4604      	mov	r4, r0
    4358:	b120      	cbz	r0, 4364 <mutex_init+0x10>
    435a:	2300      	movs	r3, #0
    435c:	4a03      	ldr	r2, [pc, #12]	; (436c <mutex_init+0x18>)
    435e:	6023      	str	r3, [r4, #0]
    4360:	6062      	str	r2, [r4, #4]
    4362:	bd10      	pop	{r4, pc}
    4364:	4802      	ldr	r0, [pc, #8]	; (4370 <mutex_init+0x1c>)
    4366:	f7ff fe73 	bl	4050 <CC_PalAbort>
    436a:	e7f6      	b.n	435a <mutex_init+0x6>
    436c:	3a00003a 	.word	0x3a00003a
    4370:	00006f10 	.word	0x00006f10

00004374 <verify_context_ecdsa_verify_secp256r1>:
    4374:	b130      	cbz	r0, 4384 <verify_context_ecdsa_verify_secp256r1+0x10>
    4376:	6802      	ldr	r2, [r0, #0]
    4378:	4b03      	ldr	r3, [pc, #12]	; (4388 <verify_context_ecdsa_verify_secp256r1+0x14>)
    437a:	4804      	ldr	r0, [pc, #16]	; (438c <verify_context_ecdsa_verify_secp256r1+0x18>)
    437c:	429a      	cmp	r2, r3
    437e:	bf08      	it	eq
    4380:	2000      	moveq	r0, #0
    4382:	4770      	bx	lr
    4384:	4802      	ldr	r0, [pc, #8]	; (4390 <verify_context_ecdsa_verify_secp256r1+0x1c>)
    4386:	4770      	bx	lr
    4388:	bbaa55dd 	.word	0xbbaa55dd
    438c:	00f00882 	.word	0x00f00882
    4390:	00f00871 	.word	0x00f00871

00004394 <nrf_cc310_bl_ecdsa_verify_init_secp256r1>:
    4394:	b538      	push	{r3, r4, r5, lr}
    4396:	460d      	mov	r5, r1
    4398:	4604      	mov	r4, r0
    439a:	b1b0      	cbz	r0, 43ca <nrf_cc310_bl_ecdsa_verify_init_secp256r1+0x36>
    439c:	22a0      	movs	r2, #160	; 0xa0
    439e:	2100      	movs	r1, #0
    43a0:	3004      	adds	r0, #4
    43a2:	f002 fab9 	bl	6918 <SaSi_PalMemSet>
    43a6:	b195      	cbz	r5, 43ce <nrf_cc310_bl_ecdsa_verify_init_secp256r1+0x3a>
    43a8:	2208      	movs	r2, #8
    43aa:	4629      	mov	r1, r5
    43ac:	f104 0064 	add.w	r0, r4, #100	; 0x64
    43b0:	f002 fab8 	bl	6924 <CRYS_COMMON_ReverseMemcpy32>
    43b4:	2208      	movs	r2, #8
    43b6:	f105 0120 	add.w	r1, r5, #32
    43ba:	f104 0084 	add.w	r0, r4, #132	; 0x84
    43be:	f002 fab1 	bl	6924 <CRYS_COMMON_ReverseMemcpy32>
    43c2:	2000      	movs	r0, #0
    43c4:	4b03      	ldr	r3, [pc, #12]	; (43d4 <nrf_cc310_bl_ecdsa_verify_init_secp256r1+0x40>)
    43c6:	6023      	str	r3, [r4, #0]
    43c8:	bd38      	pop	{r3, r4, r5, pc}
    43ca:	4803      	ldr	r0, [pc, #12]	; (43d8 <nrf_cc310_bl_ecdsa_verify_init_secp256r1+0x44>)
    43cc:	e7fc      	b.n	43c8 <nrf_cc310_bl_ecdsa_verify_init_secp256r1+0x34>
    43ce:	4803      	ldr	r0, [pc, #12]	; (43dc <nrf_cc310_bl_ecdsa_verify_init_secp256r1+0x48>)
    43d0:	e7fa      	b.n	43c8 <nrf_cc310_bl_ecdsa_verify_init_secp256r1+0x34>
    43d2:	bf00      	nop
    43d4:	bbaa55dd 	.word	0xbbaa55dd
    43d8:	00f00871 	.word	0x00f00871
    43dc:	00f00883 	.word	0x00f00883

000043e0 <nrf_cc310_bl_ecdsa_verify_hash_secp256r1>:
    43e0:	e92d 43f7 	stmdb	sp!, {r0, r1, r2, r4, r5, r6, r7, r8, r9, lr}
    43e4:	4605      	mov	r5, r0
    43e6:	460e      	mov	r6, r1
    43e8:	4699      	mov	r9, r3
    43ea:	4611      	mov	r1, r2
    43ec:	f7ff ffc2 	bl	4374 <verify_context_ecdsa_verify_secp256r1>
    43f0:	4604      	mov	r4, r0
    43f2:	2800      	cmp	r0, #0
    43f4:	f040 8084 	bne.w	4500 <nrf_cc310_bl_ecdsa_verify_hash_secp256r1+0x120>
    43f8:	2e00      	cmp	r6, #0
    43fa:	f000 8085 	beq.w	4508 <nrf_cc310_bl_ecdsa_verify_hash_secp256r1+0x128>
    43fe:	2900      	cmp	r1, #0
    4400:	f000 8084 	beq.w	450c <nrf_cc310_bl_ecdsa_verify_hash_secp256r1+0x12c>
    4404:	f1b9 0f20 	cmp.w	r9, #32
    4408:	f040 8082 	bne.w	4510 <nrf_cc310_bl_ecdsa_verify_hash_secp256r1+0x130>
    440c:	f105 0444 	add.w	r4, r5, #68	; 0x44
    4410:	2208      	movs	r2, #8
    4412:	f105 0804 	add.w	r8, r5, #4
    4416:	4620      	mov	r0, r4
    4418:	f002 fa84 	bl	6924 <CRYS_COMMON_ReverseMemcpy32>
    441c:	f105 0724 	add.w	r7, r5, #36	; 0x24
    4420:	2208      	movs	r2, #8
    4422:	4631      	mov	r1, r6
    4424:	4640      	mov	r0, r8
    4426:	f002 fa7d 	bl	6924 <CRYS_COMMON_ReverseMemcpy32>
    442a:	f106 0120 	add.w	r1, r6, #32
    442e:	2208      	movs	r2, #8
    4430:	4638      	mov	r0, r7
    4432:	f002 fa77 	bl	6924 <CRYS_COMMON_ReverseMemcpy32>
    4436:	a902      	add	r1, sp, #8
    4438:	f841 9d04 	str.w	r9, [r1, #-4]!
    443c:	f44f 7080 	mov.w	r0, #256	; 0x100
    4440:	f002 fa64 	bl	690c <PkaInitAndMutexLock>
    4444:	2800      	cmp	r0, #0
    4446:	d165      	bne.n	4514 <nrf_cc310_bl_ecdsa_verify_hash_secp256r1+0x134>
    4448:	f44f 7380 	mov.w	r3, #256	; 0x100
    444c:	4a32      	ldr	r2, [pc, #200]	; (4518 <nrf_cc310_bl_ecdsa_verify_hash_secp256r1+0x138>)
    444e:	2101      	movs	r1, #1
    4450:	6013      	str	r3, [r2, #0]
    4452:	6093      	str	r3, [r2, #8]
    4454:	2308      	movs	r3, #8
    4456:	4a31      	ldr	r2, [pc, #196]	; (451c <nrf_cc310_bl_ecdsa_verify_hash_secp256r1+0x13c>)
    4458:	f000 fb34 	bl	4ac4 <PkaCopyDataIntoPkaReg>
    445c:	2101      	movs	r1, #1
    445e:	2305      	movs	r3, #5
    4460:	4608      	mov	r0, r1
    4462:	4a2f      	ldr	r2, [pc, #188]	; (4520 <nrf_cc310_bl_ecdsa_verify_hash_secp256r1+0x140>)
    4464:	f000 fb2e 	bl	4ac4 <PkaCopyDataIntoPkaReg>
    4468:	2308      	movs	r3, #8
    446a:	4642      	mov	r2, r8
    446c:	2101      	movs	r1, #1
    446e:	201c      	movs	r0, #28
    4470:	f000 fb28 	bl	4ac4 <PkaCopyDataIntoPkaReg>
    4474:	2308      	movs	r3, #8
    4476:	463a      	mov	r2, r7
    4478:	2101      	movs	r1, #1
    447a:	2003      	movs	r0, #3
    447c:	f000 fb22 	bl	4ac4 <PkaCopyDataIntoPkaReg>
    4480:	4622      	mov	r2, r4
    4482:	2308      	movs	r3, #8
    4484:	2101      	movs	r1, #1
    4486:	2002      	movs	r0, #2
    4488:	f000 fb1c 	bl	4ac4 <PkaCopyDataIntoPkaReg>
    448c:	2308      	movs	r3, #8
    448e:	4a25      	ldr	r2, [pc, #148]	; (4524 <nrf_cc310_bl_ecdsa_verify_hash_secp256r1+0x144>)
    4490:	2101      	movs	r1, #1
    4492:	201a      	movs	r0, #26
    4494:	f000 fb16 	bl	4ac4 <PkaCopyDataIntoPkaReg>
    4498:	2305      	movs	r3, #5
    449a:	4a23      	ldr	r2, [pc, #140]	; (4528 <nrf_cc310_bl_ecdsa_verify_hash_secp256r1+0x148>)
    449c:	2101      	movs	r1, #1
    449e:	201b      	movs	r0, #27
    44a0:	f000 fb10 	bl	4ac4 <PkaCopyDataIntoPkaReg>
    44a4:	2308      	movs	r3, #8
    44a6:	4a21      	ldr	r2, [pc, #132]	; (452c <nrf_cc310_bl_ecdsa_verify_hash_secp256r1+0x14c>)
    44a8:	2101      	movs	r1, #1
    44aa:	2014      	movs	r0, #20
    44ac:	f000 fb0a 	bl	4ac4 <PkaCopyDataIntoPkaReg>
    44b0:	2308      	movs	r3, #8
    44b2:	4a1f      	ldr	r2, [pc, #124]	; (4530 <nrf_cc310_bl_ecdsa_verify_hash_secp256r1+0x150>)
    44b4:	2101      	movs	r1, #1
    44b6:	2015      	movs	r0, #21
    44b8:	f000 fb04 	bl	4ac4 <PkaCopyDataIntoPkaReg>
    44bc:	2308      	movs	r3, #8
    44be:	f105 0264 	add.w	r2, r5, #100	; 0x64
    44c2:	2101      	movs	r1, #1
    44c4:	2016      	movs	r0, #22
    44c6:	f000 fafd 	bl	4ac4 <PkaCopyDataIntoPkaReg>
    44ca:	2308      	movs	r3, #8
    44cc:	f105 0284 	add.w	r2, r5, #132	; 0x84
    44d0:	2101      	movs	r1, #1
    44d2:	2017      	movs	r0, #23
    44d4:	f000 faf6 	bl	4ac4 <PkaCopyDataIntoPkaReg>
    44d8:	2308      	movs	r3, #8
    44da:	4a16      	ldr	r2, [pc, #88]	; (4534 <nrf_cc310_bl_ecdsa_verify_hash_secp256r1+0x154>)
    44dc:	2101      	movs	r1, #1
    44de:	200b      	movs	r0, #11
    44e0:	f000 faf0 	bl	4ac4 <PkaCopyDataIntoPkaReg>
    44e4:	f000 fb4a 	bl	4b7c <PkaEcdsaVerify>
    44e8:	4604      	mov	r4, r0
    44ea:	9801      	ldr	r0, [sp, #4]
    44ec:	f000 fad8 	bl	4aa0 <PkaFinishAndMutexUnlock>
    44f0:	4b11      	ldr	r3, [pc, #68]	; (4538 <nrf_cc310_bl_ecdsa_verify_hash_secp256r1+0x158>)
    44f2:	2c00      	cmp	r4, #0
    44f4:	bf18      	it	ne
    44f6:	461c      	movne	r4, r3
    44f8:	21a4      	movs	r1, #164	; 0xa4
    44fa:	4628      	mov	r0, r5
    44fc:	f002 fa0e 	bl	691c <SaSi_PalMemSetZero>
    4500:	4620      	mov	r0, r4
    4502:	b003      	add	sp, #12
    4504:	e8bd 83f0 	ldmia.w	sp!, {r4, r5, r6, r7, r8, r9, pc}
    4508:	4c0c      	ldr	r4, [pc, #48]	; (453c <nrf_cc310_bl_ecdsa_verify_hash_secp256r1+0x15c>)
    450a:	e7f9      	b.n	4500 <nrf_cc310_bl_ecdsa_verify_hash_secp256r1+0x120>
    450c:	4c0c      	ldr	r4, [pc, #48]	; (4540 <nrf_cc310_bl_ecdsa_verify_hash_secp256r1+0x160>)
    450e:	e7f7      	b.n	4500 <nrf_cc310_bl_ecdsa_verify_hash_secp256r1+0x120>
    4510:	4c0c      	ldr	r4, [pc, #48]	; (4544 <nrf_cc310_bl_ecdsa_verify_hash_secp256r1+0x164>)
    4512:	e7f5      	b.n	4500 <nrf_cc310_bl_ecdsa_verify_hash_secp256r1+0x120>
    4514:	4c08      	ldr	r4, [pc, #32]	; (4538 <nrf_cc310_bl_ecdsa_verify_hash_secp256r1+0x158>)
    4516:	e7ef      	b.n	44f8 <nrf_cc310_bl_ecdsa_verify_hash_secp256r1+0x118>
    4518:	50841090 	.word	0x50841090
    451c:	00006f74 	.word	0x00006f74
    4520:	00006fec 	.word	0x00006fec
    4524:	00006f34 	.word	0x00006f34
    4528:	00006fd8 	.word	0x00006fd8
    452c:	00006f98 	.word	0x00006f98
    4530:	00006fb8 	.word	0x00006fb8
    4534:	00006f54 	.word	0x00006f54
    4538:	00f00884 	.word	0x00f00884
    453c:	00f00876 	.word	0x00f00876
    4540:	00f00880 	.word	0x00f00880
    4544:	00f00881 	.word	0x00f00881

00004548 <set_digest_in_hw_sha256>:
    4548:	69c2      	ldr	r2, [r0, #28]
    454a:	4b0c      	ldr	r3, [pc, #48]	; (457c <set_digest_in_hw_sha256+0x34>)
    454c:	601a      	str	r2, [r3, #0]
    454e:	6982      	ldr	r2, [r0, #24]
    4550:	f843 2c04 	str.w	r2, [r3, #-4]
    4554:	6942      	ldr	r2, [r0, #20]
    4556:	f843 2c08 	str.w	r2, [r3, #-8]
    455a:	6902      	ldr	r2, [r0, #16]
    455c:	f843 2c0c 	str.w	r2, [r3, #-12]
    4560:	68c2      	ldr	r2, [r0, #12]
    4562:	f843 2c10 	str.w	r2, [r3, #-16]
    4566:	6882      	ldr	r2, [r0, #8]
    4568:	f843 2c14 	str.w	r2, [r3, #-20]
    456c:	6842      	ldr	r2, [r0, #4]
    456e:	f843 2c18 	str.w	r2, [r3, #-24]
    4572:	6802      	ldr	r2, [r0, #0]
    4574:	f843 2c1c 	str.w	r2, [r3, #-28]
    4578:	4770      	bx	lr
    457a:	bf00      	nop
    457c:	5084165c 	.word	0x5084165c

00004580 <read_digest_in_hw_sha256>:
    4580:	4b0c      	ldr	r3, [pc, #48]	; (45b4 <read_digest_in_hw_sha256+0x34>)
    4582:	681b      	ldr	r3, [r3, #0]
    4584:	61c3      	str	r3, [r0, #28]
    4586:	4b0c      	ldr	r3, [pc, #48]	; (45b8 <read_digest_in_hw_sha256+0x38>)
    4588:	681b      	ldr	r3, [r3, #0]
    458a:	6183      	str	r3, [r0, #24]
    458c:	4b0b      	ldr	r3, [pc, #44]	; (45bc <read_digest_in_hw_sha256+0x3c>)
    458e:	681b      	ldr	r3, [r3, #0]
    4590:	6143      	str	r3, [r0, #20]
    4592:	4b0b      	ldr	r3, [pc, #44]	; (45c0 <read_digest_in_hw_sha256+0x40>)
    4594:	681b      	ldr	r3, [r3, #0]
    4596:	6103      	str	r3, [r0, #16]
    4598:	4b0a      	ldr	r3, [pc, #40]	; (45c4 <read_digest_in_hw_sha256+0x44>)
    459a:	681b      	ldr	r3, [r3, #0]
    459c:	60c3      	str	r3, [r0, #12]
    459e:	4b0a      	ldr	r3, [pc, #40]	; (45c8 <read_digest_in_hw_sha256+0x48>)
    45a0:	681b      	ldr	r3, [r3, #0]
    45a2:	6083      	str	r3, [r0, #8]
    45a4:	4b09      	ldr	r3, [pc, #36]	; (45cc <read_digest_in_hw_sha256+0x4c>)
    45a6:	681b      	ldr	r3, [r3, #0]
    45a8:	6043      	str	r3, [r0, #4]
    45aa:	4b09      	ldr	r3, [pc, #36]	; (45d0 <read_digest_in_hw_sha256+0x50>)
    45ac:	681b      	ldr	r3, [r3, #0]
    45ae:	6003      	str	r3, [r0, #0]
    45b0:	4770      	bx	lr
    45b2:	bf00      	nop
    45b4:	5084165c 	.word	0x5084165c
    45b8:	50841658 	.word	0x50841658
    45bc:	50841654 	.word	0x50841654
    45c0:	50841650 	.word	0x50841650
    45c4:	5084164c 	.word	0x5084164c
    45c8:	50841648 	.word	0x50841648
    45cc:	50841644 	.word	0x50841644
    45d0:	50841640 	.word	0x50841640

000045d4 <verify_context_hash_sha256>:
    45d4:	b130      	cbz	r0, 45e4 <verify_context_hash_sha256+0x10>
    45d6:	6802      	ldr	r2, [r0, #0]
    45d8:	4b03      	ldr	r3, [pc, #12]	; (45e8 <verify_context_hash_sha256+0x14>)
    45da:	4804      	ldr	r0, [pc, #16]	; (45ec <verify_context_hash_sha256+0x18>)
    45dc:	429a      	cmp	r2, r3
    45de:	bf08      	it	eq
    45e0:	2000      	moveq	r0, #0
    45e2:	4770      	bx	lr
    45e4:	4802      	ldr	r0, [pc, #8]	; (45f0 <verify_context_hash_sha256+0x1c>)
    45e6:	4770      	bx	lr
    45e8:	bbaa55dd 	.word	0xbbaa55dd
    45ec:	00f00202 	.word	0x00f00202
    45f0:	00f00200 	.word	0x00f00200

000045f4 <nrf_cc310_bl_hash_sha256_init>:
    45f4:	b538      	push	{r3, r4, r5, lr}
    45f6:	4604      	mov	r4, r0
    45f8:	b168      	cbz	r0, 4616 <nrf_cc310_bl_hash_sha256_init+0x22>
    45fa:	1d05      	adds	r5, r0, #4
    45fc:	2170      	movs	r1, #112	; 0x70
    45fe:	4628      	mov	r0, r5
    4600:	f002 f98c 	bl	691c <SaSi_PalMemSetZero>
    4604:	4628      	mov	r0, r5
    4606:	2220      	movs	r2, #32
    4608:	4904      	ldr	r1, [pc, #16]	; (461c <nrf_cc310_bl_hash_sha256_init+0x28>)
    460a:	f002 f983 	bl	6914 <SaSi_PalMemCopy>
    460e:	2000      	movs	r0, #0
    4610:	4b03      	ldr	r3, [pc, #12]	; (4620 <nrf_cc310_bl_hash_sha256_init+0x2c>)
    4612:	6023      	str	r3, [r4, #0]
    4614:	bd38      	pop	{r3, r4, r5, pc}
    4616:	4803      	ldr	r0, [pc, #12]	; (4624 <nrf_cc310_bl_hash_sha256_init+0x30>)
    4618:	e7fc      	b.n	4614 <nrf_cc310_bl_hash_sha256_init+0x20>
    461a:	bf00      	nop
    461c:	00007000 	.word	0x00007000
    4620:	bbaa55dd 	.word	0xbbaa55dd
    4624:	00f00200 	.word	0x00f00200

00004628 <nrf_cc310_bl_hash_sha256_update>:
    4628:	e92d 43f0 	stmdb	sp!, {r4, r5, r6, r7, r8, r9, lr}
    462c:	b085      	sub	sp, #20
    462e:	4615      	mov	r5, r2
    4630:	466f      	mov	r7, sp
    4632:	4b27      	ldr	r3, [pc, #156]	; (46d0 <nrf_cc310_bl_hash_sha256_update+0xa8>)
    4634:	4604      	mov	r4, r0
    4636:	460e      	mov	r6, r1
    4638:	cb0f      	ldmia	r3, {r0, r1, r2, r3}
    463a:	e887 000f 	stmia.w	r7, {r0, r1, r2, r3}
    463e:	b92d      	cbnz	r5, 464c <nrf_cc310_bl_hash_sha256_update+0x24>
    4640:	f04f 0900 	mov.w	r9, #0
    4644:	4648      	mov	r0, r9
    4646:	b005      	add	sp, #20
    4648:	e8bd 83f0 	ldmia.w	sp!, {r4, r5, r6, r7, r8, r9, pc}
    464c:	4620      	mov	r0, r4
    464e:	f7ff ffc1 	bl	45d4 <verify_context_hash_sha256>
    4652:	4681      	mov	r9, r0
    4654:	2800      	cmp	r0, #0
    4656:	d1f5      	bne.n	4644 <nrf_cc310_bl_hash_sha256_update+0x1c>
    4658:	1d23      	adds	r3, r4, #4
    465a:	9301      	str	r3, [sp, #4]
    465c:	6a63      	ldr	r3, [r4, #36]	; 0x24
    465e:	bba3      	cbnz	r3, 46ca <nrf_cc310_bl_hash_sha256_update+0xa2>
    4660:	6f23      	ldr	r3, [r4, #112]	; 0x70
    4662:	b18b      	cbz	r3, 4688 <nrf_cc310_bl_hash_sha256_update+0x60>
    4664:	f1c3 0840 	rsb	r8, r3, #64	; 0x40
    4668:	45a8      	cmp	r8, r5
    466a:	bf28      	it	cs
    466c:	46a8      	movcs	r8, r5
    466e:	f104 0030 	add.w	r0, r4, #48	; 0x30
    4672:	4631      	mov	r1, r6
    4674:	4418      	add	r0, r3
    4676:	4642      	mov	r2, r8
    4678:	f002 f94c 	bl	6914 <SaSi_PalMemCopy>
    467c:	6f23      	ldr	r3, [r4, #112]	; 0x70
    467e:	4446      	add	r6, r8
    4680:	4443      	add	r3, r8
    4682:	6723      	str	r3, [r4, #112]	; 0x70
    4684:	eba5 0508 	sub.w	r5, r5, r8
    4688:	6f22      	ldr	r2, [r4, #112]	; 0x70
    468a:	2a40      	cmp	r2, #64	; 0x40
    468c:	d106      	bne.n	469c <nrf_cc310_bl_hash_sha256_update+0x74>
    468e:	f104 0130 	add.w	r1, r4, #48	; 0x30
    4692:	4638      	mov	r0, r7
    4694:	f000 fbb4 	bl	4e00 <nrf_cc310_bl_hash_update_internal>
    4698:	2300      	movs	r3, #0
    469a:	6723      	str	r3, [r4, #112]	; 0x70
    469c:	f005 083f 	and.w	r8, r5, #63	; 0x3f
    46a0:	f035 053f 	bics.w	r5, r5, #63	; 0x3f
    46a4:	d005      	beq.n	46b2 <nrf_cc310_bl_hash_sha256_update+0x8a>
    46a6:	4631      	mov	r1, r6
    46a8:	462a      	mov	r2, r5
    46aa:	4638      	mov	r0, r7
    46ac:	f000 fba8 	bl	4e00 <nrf_cc310_bl_hash_update_internal>
    46b0:	442e      	add	r6, r5
    46b2:	f1b8 0f00 	cmp.w	r8, #0
    46b6:	d0c3      	beq.n	4640 <nrf_cc310_bl_hash_sha256_update+0x18>
    46b8:	4642      	mov	r2, r8
    46ba:	4631      	mov	r1, r6
    46bc:	f104 0030 	add.w	r0, r4, #48	; 0x30
    46c0:	f002 f928 	bl	6914 <SaSi_PalMemCopy>
    46c4:	f8c4 8070 	str.w	r8, [r4, #112]	; 0x70
    46c8:	e7bc      	b.n	4644 <nrf_cc310_bl_hash_sha256_update+0x1c>
    46ca:	f8df 9008 	ldr.w	r9, [pc, #8]	; 46d4 <nrf_cc310_bl_hash_sha256_update+0xac>
    46ce:	e7b9      	b.n	4644 <nrf_cc310_bl_hash_sha256_update+0x1c>
    46d0:	00006ca0 	.word	0x00006ca0
    46d4:	00f0020c 	.word	0x00f0020c

000046d8 <nrf_cc310_bl_hash_sha256_finalize>:
    46d8:	e92d 41ff 	stmdb	sp!, {r0, r1, r2, r3, r4, r5, r6, r7, r8, lr}
    46dc:	4604      	mov	r4, r0
    46de:	466f      	mov	r7, sp
    46e0:	4b13      	ldr	r3, [pc, #76]	; (4730 <nrf_cc310_bl_hash_sha256_finalize+0x58>)
    46e2:	460e      	mov	r6, r1
    46e4:	cb0f      	ldmia	r3, {r0, r1, r2, r3}
    46e6:	e887 000f 	stmia.w	r7, {r0, r1, r2, r3}
    46ea:	4620      	mov	r0, r4
    46ec:	f7ff ff72 	bl	45d4 <verify_context_hash_sha256>
    46f0:	4680      	mov	r8, r0
    46f2:	b9b0      	cbnz	r0, 4722 <nrf_cc310_bl_hash_sha256_finalize+0x4a>
    46f4:	b1ce      	cbz	r6, 472a <nrf_cc310_bl_hash_sha256_finalize+0x52>
    46f6:	6a63      	ldr	r3, [r4, #36]	; 0x24
    46f8:	1d25      	adds	r5, r4, #4
    46fa:	9501      	str	r5, [sp, #4]
    46fc:	b93b      	cbnz	r3, 470e <nrf_cc310_bl_hash_sha256_finalize+0x36>
    46fe:	2301      	movs	r3, #1
    4700:	6f22      	ldr	r2, [r4, #112]	; 0x70
    4702:	6263      	str	r3, [r4, #36]	; 0x24
    4704:	f104 0130 	add.w	r1, r4, #48	; 0x30
    4708:	4638      	mov	r0, r7
    470a:	f000 fb79 	bl	4e00 <nrf_cc310_bl_hash_update_internal>
    470e:	462b      	mov	r3, r5
    4710:	3e04      	subs	r6, #4
    4712:	3424      	adds	r4, #36	; 0x24
    4714:	f853 2b04 	ldr.w	r2, [r3], #4
    4718:	ba12      	rev	r2, r2
    471a:	42a3      	cmp	r3, r4
    471c:	f846 2f04 	str.w	r2, [r6, #4]!
    4720:	d1f8      	bne.n	4714 <nrf_cc310_bl_hash_sha256_finalize+0x3c>
    4722:	4640      	mov	r0, r8
    4724:	b004      	add	sp, #16
    4726:	e8bd 81f0 	ldmia.w	sp!, {r4, r5, r6, r7, r8, pc}
    472a:	f8df 8008 	ldr.w	r8, [pc, #8]	; 4734 <nrf_cc310_bl_hash_sha256_finalize+0x5c>
    472e:	e7f8      	b.n	4722 <nrf_cc310_bl_hash_sha256_finalize+0x4a>
    4730:	00006ca0 	.word	0x00006ca0
    4734:	00f00205 	.word	0x00f00205

00004738 <nrf_cc310_bl_init>:
    4738:	4b08      	ldr	r3, [pc, #32]	; (475c <nrf_cc310_bl_init+0x24>)
    473a:	681b      	ldr	r3, [r3, #0]
    473c:	0e1b      	lsrs	r3, r3, #24
    473e:	2bf0      	cmp	r3, #240	; 0xf0
    4740:	d108      	bne.n	4754 <nrf_cc310_bl_init+0x1c>
    4742:	4b07      	ldr	r3, [pc, #28]	; (4760 <nrf_cc310_bl_init+0x28>)
    4744:	681a      	ldr	r2, [r3, #0]
    4746:	4b07      	ldr	r3, [pc, #28]	; (4764 <nrf_cc310_bl_init+0x2c>)
    4748:	429a      	cmp	r2, r3
    474a:	d105      	bne.n	4758 <nrf_cc310_bl_init+0x20>
    474c:	2000      	movs	r0, #0
    474e:	4b06      	ldr	r3, [pc, #24]	; (4768 <nrf_cc310_bl_init+0x30>)
    4750:	6018      	str	r0, [r3, #0]
    4752:	4770      	bx	lr
    4754:	2005      	movs	r0, #5
    4756:	4770      	bx	lr
    4758:	2006      	movs	r0, #6
    475a:	4770      	bx	lr
    475c:	50841928 	.word	0x50841928
    4760:	50841a24 	.word	0x50841a24
    4764:	20e00000 	.word	0x20e00000
    4768:	50841a0c 	.word	0x50841a0c

0000476c <PkaSetRegsMapTab>:
    476c:	2200      	movs	r2, #0
    476e:	b530      	push	{r4, r5, lr}
    4770:	4613      	mov	r3, r2
    4772:	f640 75fc 	movw	r5, #4092	; 0xffc
    4776:	0049      	lsls	r1, r1, #1
    4778:	3802      	subs	r0, #2
    477a:	f102 54a1 	add.w	r4, r2, #337641472	; 0x14200000
    477e:	f504 3482 	add.w	r4, r4, #66560	; 0x10400
    4782:	4290      	cmp	r0, r2
    4784:	ea4f 0484 	mov.w	r4, r4, lsl #2
    4788:	f102 0201 	add.w	r2, r2, #1
    478c:	bfca      	itet	gt
    478e:	6023      	strgt	r3, [r4, #0]
    4790:	6025      	strle	r5, [r4, #0]
    4792:	185b      	addgt	r3, r3, r1
    4794:	2a1e      	cmp	r2, #30
    4796:	d1f0      	bne.n	477a <PkaSetRegsMapTab+0xe>
    4798:	4a03      	ldr	r2, [pc, #12]	; (47a8 <PkaSetRegsMapTab+0x3c>)
    479a:	6013      	str	r3, [r2, #0]
    479c:	440b      	add	r3, r1
    479e:	6053      	str	r3, [r2, #4]
    47a0:	4b02      	ldr	r3, [pc, #8]	; (47ac <PkaSetRegsMapTab+0x40>)
    47a2:	4a03      	ldr	r2, [pc, #12]	; (47b0 <PkaSetRegsMapTab+0x44>)
    47a4:	601a      	str	r2, [r3, #0]
    47a6:	bd30      	pop	{r4, r5, pc}
    47a8:	50841078 	.word	0x50841078
    47ac:	50841084 	.word	0x50841084
    47b0:	000ff820 	.word	0x000ff820

000047b4 <PkaGetRegEffectiveSizeInBits>:
    47b4:	4b1e      	ldr	r3, [pc, #120]	; (4830 <PkaGetRegEffectiveSizeInBits+0x7c>)
    47b6:	b530      	push	{r4, r5, lr}
    47b8:	461a      	mov	r2, r3
    47ba:	b085      	sub	sp, #20
    47bc:	6819      	ldr	r1, [r3, #0]
    47be:	9100      	str	r1, [sp, #0]
    47c0:	9900      	ldr	r1, [sp, #0]
    47c2:	07cc      	lsls	r4, r1, #31
    47c4:	d5fa      	bpl.n	47bc <PkaGetRegEffectiveSizeInBits+0x8>
    47c6:	f100 50a1 	add.w	r0, r0, #337641472	; 0x14200000
    47ca:	f500 3082 	add.w	r0, r0, #66560	; 0x10400
    47ce:	0080      	lsls	r0, r0, #2
    47d0:	6801      	ldr	r1, [r0, #0]
    47d2:	6813      	ldr	r3, [r2, #0]
    47d4:	9301      	str	r3, [sp, #4]
    47d6:	9b01      	ldr	r3, [sp, #4]
    47d8:	07d8      	lsls	r0, r3, #31
    47da:	d5fa      	bpl.n	47d2 <PkaGetRegEffectiveSizeInBits+0x1e>
    47dc:	4b15      	ldr	r3, [pc, #84]	; (4834 <PkaGetRegEffectiveSizeInBits+0x80>)
    47de:	4c16      	ldr	r4, [pc, #88]	; (4838 <PkaGetRegEffectiveSizeInBits+0x84>)
    47e0:	6818      	ldr	r0, [r3, #0]
    47e2:	2320      	movs	r3, #32
    47e4:	301f      	adds	r0, #31
    47e6:	fb90 f0f3 	sdiv	r0, r0, r3
    47ea:	4d14      	ldr	r5, [pc, #80]	; (483c <PkaGetRegEffectiveSizeInBits+0x88>)
    47ec:	3801      	subs	r0, #1
    47ee:	2800      	cmp	r0, #0
    47f0:	da10      	bge.n	4814 <PkaGetRegEffectiveSizeInBits+0x60>
    47f2:	2300      	movs	r3, #0
    47f4:	3001      	adds	r0, #1
    47f6:	0140      	lsls	r0, r0, #5
    47f8:	b153      	cbz	r3, 4810 <PkaGetRegEffectiveSizeInBits+0x5c>
    47fa:	f04f 4200 	mov.w	r2, #2147483648	; 0x80000000
    47fe:	f1a0 0120 	sub.w	r1, r0, #32
    4802:	4213      	tst	r3, r2
    4804:	d104      	bne.n	4810 <PkaGetRegEffectiveSizeInBits+0x5c>
    4806:	3801      	subs	r0, #1
    4808:	4288      	cmp	r0, r1
    480a:	ea4f 0252 	mov.w	r2, r2, lsr #1
    480e:	d1f8      	bne.n	4802 <PkaGetRegEffectiveSizeInBits+0x4e>
    4810:	b005      	add	sp, #20
    4812:	bd30      	pop	{r4, r5, pc}
    4814:	6813      	ldr	r3, [r2, #0]
    4816:	9303      	str	r3, [sp, #12]
    4818:	9b03      	ldr	r3, [sp, #12]
    481a:	07db      	lsls	r3, r3, #31
    481c:	d5fa      	bpl.n	4814 <PkaGetRegEffectiveSizeInBits+0x60>
    481e:	1843      	adds	r3, r0, r1
    4820:	6023      	str	r3, [r4, #0]
    4822:	682b      	ldr	r3, [r5, #0]
    4824:	9302      	str	r3, [sp, #8]
    4826:	9b02      	ldr	r3, [sp, #8]
    4828:	2b00      	cmp	r3, #0
    482a:	d1e3      	bne.n	47f4 <PkaGetRegEffectiveSizeInBits+0x40>
    482c:	3801      	subs	r0, #1
    482e:	e7de      	b.n	47ee <PkaGetRegEffectiveSizeInBits+0x3a>
    4830:	508410b4 	.word	0x508410b4
    4834:	508410ac 	.word	0x508410ac
    4838:	508410e4 	.word	0x508410e4
    483c:	508410dc 	.word	0x508410dc

00004840 <PkaGetNextMsBit>:
    4840:	b5f0      	push	{r4, r5, r6, r7, lr}
    4842:	681d      	ldr	r5, [r3, #0]
    4844:	b085      	sub	sp, #20
    4846:	f001 041f 	and.w	r4, r1, #31
    484a:	b90d      	cbnz	r5, 4850 <PkaGetNextMsBit+0x10>
    484c:	2c1f      	cmp	r4, #31
    484e:	d128      	bne.n	48a2 <PkaGetNextMsBit+0x62>
    4850:	4d17      	ldr	r5, [pc, #92]	; (48b0 <PkaGetNextMsBit+0x70>)
    4852:	462e      	mov	r6, r5
    4854:	682f      	ldr	r7, [r5, #0]
    4856:	9701      	str	r7, [sp, #4]
    4858:	9f01      	ldr	r7, [sp, #4]
    485a:	07ff      	lsls	r7, r7, #31
    485c:	d5fa      	bpl.n	4854 <PkaGetNextMsBit+0x14>
    485e:	f100 50a1 	add.w	r0, r0, #337641472	; 0x14200000
    4862:	f500 3082 	add.w	r0, r0, #66560	; 0x10400
    4866:	0080      	lsls	r0, r0, #2
    4868:	6800      	ldr	r0, [r0, #0]
    486a:	6835      	ldr	r5, [r6, #0]
    486c:	9503      	str	r5, [sp, #12]
    486e:	9d03      	ldr	r5, [sp, #12]
    4870:	07ed      	lsls	r5, r5, #31
    4872:	d5fa      	bpl.n	486a <PkaGetNextMsBit+0x2a>
    4874:	2c1f      	cmp	r4, #31
    4876:	eb00 1061 	add.w	r0, r0, r1, asr #5
    487a:	bf18      	it	ne
    487c:	43c9      	mvnne	r1, r1
    487e:	4d0d      	ldr	r5, [pc, #52]	; (48b4 <PkaGetNextMsBit+0x74>)
    4880:	bf18      	it	ne
    4882:	f001 011f 	andne.w	r1, r1, #31
    4886:	6028      	str	r0, [r5, #0]
    4888:	480b      	ldr	r0, [pc, #44]	; (48b8 <PkaGetNextMsBit+0x78>)
    488a:	6800      	ldr	r0, [r0, #0]
    488c:	9002      	str	r0, [sp, #8]
    488e:	9802      	ldr	r0, [sp, #8]
    4890:	bf1c      	itt	ne
    4892:	fa00 f101 	lslne.w	r1, r0, r1
    4896:	6011      	strne	r1, [r2, #0]
    4898:	f04f 0100 	mov.w	r1, #0
    489c:	bf08      	it	eq
    489e:	6010      	streq	r0, [r2, #0]
    48a0:	6019      	str	r1, [r3, #0]
    48a2:	6810      	ldr	r0, [r2, #0]
    48a4:	0043      	lsls	r3, r0, #1
    48a6:	0fc0      	lsrs	r0, r0, #31
    48a8:	6013      	str	r3, [r2, #0]
    48aa:	b005      	add	sp, #20
    48ac:	bdf0      	pop	{r4, r5, r6, r7, pc}
    48ae:	bf00      	nop
    48b0:	508410b4 	.word	0x508410b4
    48b4:	508410e4 	.word	0x508410e4
    48b8:	508410dc 	.word	0x508410dc

000048bc <PkaSetRegsSizesTab>:
    48bc:	4b0c      	ldr	r3, [pc, #48]	; (48f0 <PkaSetRegsSizesTab+0x34>)
    48be:	0189      	lsls	r1, r1, #6
    48c0:	6018      	str	r0, [r3, #0]
    48c2:	303f      	adds	r0, #63	; 0x3f
    48c4:	f020 003f 	bic.w	r0, r0, #63	; 0x3f
    48c8:	3040      	adds	r0, #64	; 0x40
    48ca:	6058      	str	r0, [r3, #4]
    48cc:	6099      	str	r1, [r3, #8]
    48ce:	4809      	ldr	r0, [pc, #36]	; (48f4 <PkaSetRegsSizesTab+0x38>)
    48d0:	60d9      	str	r1, [r3, #12]
    48d2:	6119      	str	r1, [r3, #16]
    48d4:	6159      	str	r1, [r3, #20]
    48d6:	6199      	str	r1, [r3, #24]
    48d8:	331c      	adds	r3, #28
    48da:	b082      	sub	sp, #8
    48dc:	6019      	str	r1, [r3, #0]
    48de:	6802      	ldr	r2, [r0, #0]
    48e0:	9201      	str	r2, [sp, #4]
    48e2:	9a01      	ldr	r2, [sp, #4]
    48e4:	07d2      	lsls	r2, r2, #31
    48e6:	d5fa      	bpl.n	48de <PkaSetRegsSizesTab+0x22>
    48e8:	6019      	str	r1, [r3, #0]
    48ea:	b002      	add	sp, #8
    48ec:	4770      	bx	lr
    48ee:	bf00      	nop
    48f0:	50841090 	.word	0x50841090
    48f4:	508410b4 	.word	0x508410b4

000048f8 <PkaInitPka>:
    48f8:	b538      	push	{r3, r4, r5, lr}
    48fa:	f1a0 0320 	sub.w	r3, r0, #32
    48fe:	f5b3 6f42 	cmp.w	r3, #3104	; 0xc20
    4902:	4605      	mov	r5, r0
    4904:	d82c      	bhi.n	4960 <PkaInitPka+0x68>
    4906:	288f      	cmp	r0, #143	; 0x8f
    4908:	d826      	bhi.n	4958 <PkaInitPka+0x60>
    490a:	f100 0347 	add.w	r3, r0, #71	; 0x47
    490e:	f100 0466 	add.w	r4, r0, #102	; 0x66
    4912:	06db      	lsls	r3, r3, #27
    4914:	ea4f 1454 	mov.w	r4, r4, lsr #5
    4918:	d000      	beq.n	491c <PkaInitPka+0x24>
    491a:	3401      	adds	r4, #1
    491c:	0164      	lsls	r4, r4, #5
    491e:	343f      	adds	r4, #63	; 0x3f
    4920:	09a4      	lsrs	r4, r4, #6
    4922:	3401      	adds	r4, #1
    4924:	b111      	cbz	r1, 492c <PkaInitPka+0x34>
    4926:	42a1      	cmp	r1, r4
    4928:	d31a      	bcc.n	4960 <PkaInitPka+0x68>
    492a:	460c      	mov	r4, r1
    492c:	f44f 5080 	mov.w	r0, #4096	; 0x1000
    4930:	00e3      	lsls	r3, r4, #3
    4932:	fbb0 f0f3 	udiv	r0, r0, r3
    4936:	2820      	cmp	r0, #32
    4938:	bf28      	it	cs
    493a:	2020      	movcs	r0, #32
    493c:	b102      	cbz	r2, 4940 <PkaInitPka+0x48>
    493e:	6010      	str	r0, [r2, #0]
    4940:	2201      	movs	r2, #1
    4942:	4b08      	ldr	r3, [pc, #32]	; (4964 <PkaInitPka+0x6c>)
    4944:	4621      	mov	r1, r4
    4946:	601a      	str	r2, [r3, #0]
    4948:	f7ff ff10 	bl	476c <PkaSetRegsMapTab>
    494c:	4628      	mov	r0, r5
    494e:	4621      	mov	r1, r4
    4950:	f7ff ffb4 	bl	48bc <PkaSetRegsSizesTab>
    4954:	2000      	movs	r0, #0
    4956:	bd38      	pop	{r3, r4, r5, pc}
    4958:	f100 041f 	add.w	r4, r0, #31
    495c:	0964      	lsrs	r4, r4, #5
    495e:	e7dd      	b.n	491c <PkaInitPka+0x24>
    4960:	4801      	ldr	r0, [pc, #4]	; (4968 <PkaInitPka+0x70>)
    4962:	e7f8      	b.n	4956 <PkaInitPka+0x5e>
    4964:	5084181c 	.word	0x5084181c
    4968:	00f02122 	.word	0x00f02122

0000496c <PkaClearBlockOfRegs>:
    496c:	4b46      	ldr	r3, [pc, #280]	; (4a88 <PkaClearBlockOfRegs+0x11c>)
    496e:	b5f0      	push	{r4, r5, r6, r7, lr}
    4970:	461d      	mov	r5, r3
    4972:	b089      	sub	sp, #36	; 0x24
    4974:	681c      	ldr	r4, [r3, #0]
    4976:	9401      	str	r4, [sp, #4]
    4978:	9c01      	ldr	r4, [sp, #4]
    497a:	07e4      	lsls	r4, r4, #31
    497c:	d5fa      	bpl.n	4974 <PkaClearBlockOfRegs+0x8>
    497e:	4b43      	ldr	r3, [pc, #268]	; (4a8c <PkaClearBlockOfRegs+0x120>)
    4980:	2400      	movs	r4, #0
    4982:	4413      	add	r3, r2
    4984:	009b      	lsls	r3, r3, #2
    4986:	681a      	ldr	r2, [r3, #0]
    4988:	180b      	adds	r3, r1, r0
    498a:	2b1e      	cmp	r3, #30
    498c:	bf88      	it	hi
    498e:	f1c0 011e 	rsbhi	r1, r0, #30
    4992:	321f      	adds	r2, #31
    4994:	180b      	adds	r3, r1, r0
    4996:	0952      	lsrs	r2, r2, #5
    4998:	4353      	muls	r3, r2
    499a:	f5b3 6f80 	cmp.w	r3, #1024	; 0x400
    499e:	bf84      	itt	hi
    49a0:	f44f 6180 	movhi.w	r1, #1024	; 0x400
    49a4:	fbb1 f1f2 	udivhi	r1, r1, r2
    49a8:	4627      	mov	r7, r4
    49aa:	bf88      	it	hi
    49ac:	1a09      	subhi	r1, r1, r0
    49ae:	f8df e0e4 	ldr.w	lr, [pc, #228]	; 4a94 <PkaClearBlockOfRegs+0x128>
    49b2:	f100 50a1 	add.w	r0, r0, #337641472	; 0x14200000
    49b6:	f8df c0e0 	ldr.w	ip, [pc, #224]	; 4a98 <PkaClearBlockOfRegs+0x12c>
    49ba:	f500 3082 	add.w	r0, r0, #66560	; 0x10400
    49be:	42a1      	cmp	r1, r4
    49c0:	dc33      	bgt.n	4a2a <PkaClearBlockOfRegs+0xbe>
    49c2:	682b      	ldr	r3, [r5, #0]
    49c4:	9304      	str	r3, [sp, #16]
    49c6:	9b04      	ldr	r3, [sp, #16]
    49c8:	07db      	lsls	r3, r3, #31
    49ca:	d5fa      	bpl.n	49c2 <PkaClearBlockOfRegs+0x56>
    49cc:	4b30      	ldr	r3, [pc, #192]	; (4a90 <PkaClearBlockOfRegs+0x124>)
    49ce:	681b      	ldr	r3, [r3, #0]
    49d0:	6829      	ldr	r1, [r5, #0]
    49d2:	9105      	str	r1, [sp, #20]
    49d4:	9905      	ldr	r1, [sp, #20]
    49d6:	07cf      	lsls	r7, r1, #31
    49d8:	d5fa      	bpl.n	49d0 <PkaClearBlockOfRegs+0x64>
    49da:	4c2e      	ldr	r4, [pc, #184]	; (4a94 <PkaClearBlockOfRegs+0x128>)
    49dc:	492e      	ldr	r1, [pc, #184]	; (4a98 <PkaClearBlockOfRegs+0x12c>)
    49de:	6023      	str	r3, [r4, #0]
    49e0:	2300      	movs	r3, #0
    49e2:	461e      	mov	r6, r3
    49e4:	4293      	cmp	r3, r2
    49e6:	f103 0001 	add.w	r0, r3, #1
    49ea:	d140      	bne.n	4a6e <PkaClearBlockOfRegs+0x102>
    49ec:	4619      	mov	r1, r3
    49ee:	2600      	movs	r6, #0
    49f0:	f020 0201 	bic.w	r2, r0, #1
    49f4:	4828      	ldr	r0, [pc, #160]	; (4a98 <PkaClearBlockOfRegs+0x12c>)
    49f6:	428a      	cmp	r2, r1
    49f8:	d83c      	bhi.n	4a74 <PkaClearBlockOfRegs+0x108>
    49fa:	6829      	ldr	r1, [r5, #0]
    49fc:	9106      	str	r1, [sp, #24]
    49fe:	9906      	ldr	r1, [sp, #24]
    4a00:	07ce      	lsls	r6, r1, #31
    4a02:	d5fa      	bpl.n	49fa <PkaClearBlockOfRegs+0x8e>
    4a04:	4925      	ldr	r1, [pc, #148]	; (4a9c <PkaClearBlockOfRegs+0x130>)
    4a06:	6809      	ldr	r1, [r1, #0]
    4a08:	6828      	ldr	r0, [r5, #0]
    4a0a:	9007      	str	r0, [sp, #28]
    4a0c:	9807      	ldr	r0, [sp, #28]
    4a0e:	07c0      	lsls	r0, r0, #31
    4a10:	d5fa      	bpl.n	4a08 <PkaClearBlockOfRegs+0x9c>
    4a12:	6021      	str	r1, [r4, #0]
    4a14:	2100      	movs	r1, #0
    4a16:	460c      	mov	r4, r1
    4a18:	481f      	ldr	r0, [pc, #124]	; (4a98 <PkaClearBlockOfRegs+0x12c>)
    4a1a:	428b      	cmp	r3, r1
    4a1c:	d12d      	bne.n	4a7a <PkaClearBlockOfRegs+0x10e>
    4a1e:	2000      	movs	r0, #0
    4a20:	491d      	ldr	r1, [pc, #116]	; (4a98 <PkaClearBlockOfRegs+0x12c>)
    4a22:	429a      	cmp	r2, r3
    4a24:	d82c      	bhi.n	4a80 <PkaClearBlockOfRegs+0x114>
    4a26:	b009      	add	sp, #36	; 0x24
    4a28:	bdf0      	pop	{r4, r5, r6, r7, pc}
    4a2a:	682b      	ldr	r3, [r5, #0]
    4a2c:	9302      	str	r3, [sp, #8]
    4a2e:	9b02      	ldr	r3, [sp, #8]
    4a30:	07db      	lsls	r3, r3, #31
    4a32:	d5fa      	bpl.n	4a2a <PkaClearBlockOfRegs+0xbe>
    4a34:	1903      	adds	r3, r0, r4
    4a36:	009b      	lsls	r3, r3, #2
    4a38:	681b      	ldr	r3, [r3, #0]
    4a3a:	682e      	ldr	r6, [r5, #0]
    4a3c:	9603      	str	r6, [sp, #12]
    4a3e:	9e03      	ldr	r6, [sp, #12]
    4a40:	07f6      	lsls	r6, r6, #31
    4a42:	d5fa      	bpl.n	4a3a <PkaClearBlockOfRegs+0xce>
    4a44:	f8ce 3000 	str.w	r3, [lr]
    4a48:	2300      	movs	r3, #0
    4a4a:	4293      	cmp	r3, r2
    4a4c:	f103 0301 	add.w	r3, r3, #1
    4a50:	d106      	bne.n	4a60 <PkaClearBlockOfRegs+0xf4>
    4a52:	4616      	mov	r6, r2
    4a54:	f023 0301 	bic.w	r3, r3, #1
    4a58:	42b3      	cmp	r3, r6
    4a5a:	d804      	bhi.n	4a66 <PkaClearBlockOfRegs+0xfa>
    4a5c:	3401      	adds	r4, #1
    4a5e:	e7ae      	b.n	49be <PkaClearBlockOfRegs+0x52>
    4a60:	f8cc 7000 	str.w	r7, [ip]
    4a64:	e7f1      	b.n	4a4a <PkaClearBlockOfRegs+0xde>
    4a66:	f8cc 7000 	str.w	r7, [ip]
    4a6a:	3601      	adds	r6, #1
    4a6c:	e7f4      	b.n	4a58 <PkaClearBlockOfRegs+0xec>
    4a6e:	600e      	str	r6, [r1, #0]
    4a70:	4603      	mov	r3, r0
    4a72:	e7b7      	b.n	49e4 <PkaClearBlockOfRegs+0x78>
    4a74:	6006      	str	r6, [r0, #0]
    4a76:	3101      	adds	r1, #1
    4a78:	e7bd      	b.n	49f6 <PkaClearBlockOfRegs+0x8a>
    4a7a:	6004      	str	r4, [r0, #0]
    4a7c:	3101      	adds	r1, #1
    4a7e:	e7cc      	b.n	4a1a <PkaClearBlockOfRegs+0xae>
    4a80:	6008      	str	r0, [r1, #0]
    4a82:	3301      	adds	r3, #1
    4a84:	e7cd      	b.n	4a22 <PkaClearBlockOfRegs+0xb6>
    4a86:	bf00      	nop
    4a88:	508410b4 	.word	0x508410b4
    4a8c:	14210424 	.word	0x14210424
    4a90:	5084107c 	.word	0x5084107c
    4a94:	508410d4 	.word	0x508410d4
    4a98:	508410d8 	.word	0x508410d8
    4a9c:	50841078 	.word	0x50841078

00004aa0 <PkaFinishAndMutexUnlock>:
    4aa0:	b508      	push	{r3, lr}
    4aa2:	b140      	cbz	r0, 4ab6 <PkaFinishAndMutexUnlock+0x16>
    4aa4:	2820      	cmp	r0, #32
    4aa6:	4601      	mov	r1, r0
    4aa8:	f04f 0207 	mov.w	r2, #7
    4aac:	bf28      	it	cs
    4aae:	2120      	movcs	r1, #32
    4ab0:	2000      	movs	r0, #0
    4ab2:	f7ff ff5b 	bl	496c <PkaClearBlockOfRegs>
    4ab6:	2200      	movs	r2, #0
    4ab8:	4b01      	ldr	r3, [pc, #4]	; (4ac0 <PkaFinishAndMutexUnlock+0x20>)
    4aba:	601a      	str	r2, [r3, #0]
    4abc:	bd08      	pop	{r3, pc}
    4abe:	bf00      	nop
    4ac0:	5084181c 	.word	0x5084181c

00004ac4 <PkaCopyDataIntoPkaReg>:
    4ac4:	b5f0      	push	{r4, r5, r6, r7, lr}
    4ac6:	4d29      	ldr	r5, [pc, #164]	; (4b6c <PkaCopyDataIntoPkaReg+0xa8>)
    4ac8:	b085      	sub	sp, #20
    4aca:	462c      	mov	r4, r5
    4acc:	682e      	ldr	r6, [r5, #0]
    4ace:	9600      	str	r6, [sp, #0]
    4ad0:	9e00      	ldr	r6, [sp, #0]
    4ad2:	07f6      	lsls	r6, r6, #31
    4ad4:	d5fa      	bpl.n	4acc <PkaCopyDataIntoPkaReg+0x8>
    4ad6:	f100 50a1 	add.w	r0, r0, #337641472	; 0x14200000
    4ada:	f500 3082 	add.w	r0, r0, #66560	; 0x10400
    4ade:	0080      	lsls	r0, r0, #2
    4ae0:	6805      	ldr	r5, [r0, #0]
    4ae2:	6820      	ldr	r0, [r4, #0]
    4ae4:	9001      	str	r0, [sp, #4]
    4ae6:	9801      	ldr	r0, [sp, #4]
    4ae8:	07c7      	lsls	r7, r0, #31
    4aea:	d5fa      	bpl.n	4ae2 <PkaCopyDataIntoPkaReg+0x1e>
    4aec:	4820      	ldr	r0, [pc, #128]	; (4b70 <PkaCopyDataIntoPkaReg+0xac>)
    4aee:	4f21      	ldr	r7, [pc, #132]	; (4b74 <PkaCopyDataIntoPkaReg+0xb0>)
    4af0:	6005      	str	r5, [r0, #0]
    4af2:	eb02 0683 	add.w	r6, r2, r3, lsl #2
    4af6:	42b2      	cmp	r2, r6
    4af8:	d129      	bne.n	4b4e <PkaCopyDataIntoPkaReg+0x8a>
    4afa:	2700      	movs	r7, #0
    4afc:	1c5a      	adds	r2, r3, #1
    4afe:	4e1d      	ldr	r6, [pc, #116]	; (4b74 <PkaCopyDataIntoPkaReg+0xb0>)
    4b00:	f022 0201 	bic.w	r2, r2, #1
    4b04:	429a      	cmp	r2, r3
    4b06:	d827      	bhi.n	4b58 <PkaCopyDataIntoPkaReg+0x94>
    4b08:	6823      	ldr	r3, [r4, #0]
    4b0a:	9302      	str	r3, [sp, #8]
    4b0c:	9b02      	ldr	r3, [sp, #8]
    4b0e:	07de      	lsls	r6, r3, #31
    4b10:	d5fa      	bpl.n	4b08 <PkaCopyDataIntoPkaReg+0x44>
    4b12:	4b19      	ldr	r3, [pc, #100]	; (4b78 <PkaCopyDataIntoPkaReg+0xb4>)
    4b14:	440b      	add	r3, r1
    4b16:	009b      	lsls	r3, r3, #2
    4b18:	681b      	ldr	r3, [r3, #0]
    4b1a:	331f      	adds	r3, #31
    4b1c:	095b      	lsrs	r3, r3, #5
    4b1e:	429a      	cmp	r2, r3
    4b20:	d213      	bcs.n	4b4a <PkaCopyDataIntoPkaReg+0x86>
    4b22:	6821      	ldr	r1, [r4, #0]
    4b24:	9103      	str	r1, [sp, #12]
    4b26:	9903      	ldr	r1, [sp, #12]
    4b28:	07c9      	lsls	r1, r1, #31
    4b2a:	d5fa      	bpl.n	4b22 <PkaCopyDataIntoPkaReg+0x5e>
    4b2c:	2100      	movs	r1, #0
    4b2e:	4415      	add	r5, r2
    4b30:	6005      	str	r5, [r0, #0]
    4b32:	4608      	mov	r0, r1
    4b34:	1a9b      	subs	r3, r3, r2
    4b36:	4a0f      	ldr	r2, [pc, #60]	; (4b74 <PkaCopyDataIntoPkaReg+0xb0>)
    4b38:	428b      	cmp	r3, r1
    4b3a:	d810      	bhi.n	4b5e <PkaCopyDataIntoPkaReg+0x9a>
    4b3c:	2000      	movs	r0, #0
    4b3e:	1c5a      	adds	r2, r3, #1
    4b40:	490c      	ldr	r1, [pc, #48]	; (4b74 <PkaCopyDataIntoPkaReg+0xb0>)
    4b42:	f022 0201 	bic.w	r2, r2, #1
    4b46:	429a      	cmp	r2, r3
    4b48:	d80c      	bhi.n	4b64 <PkaCopyDataIntoPkaReg+0xa0>
    4b4a:	b005      	add	sp, #20
    4b4c:	bdf0      	pop	{r4, r5, r6, r7, pc}
    4b4e:	f852 cb04 	ldr.w	ip, [r2], #4
    4b52:	f8c7 c000 	str.w	ip, [r7]
    4b56:	e7ce      	b.n	4af6 <PkaCopyDataIntoPkaReg+0x32>
    4b58:	6037      	str	r7, [r6, #0]
    4b5a:	3301      	adds	r3, #1
    4b5c:	e7d2      	b.n	4b04 <PkaCopyDataIntoPkaReg+0x40>
    4b5e:	6010      	str	r0, [r2, #0]
    4b60:	3101      	adds	r1, #1
    4b62:	e7e9      	b.n	4b38 <PkaCopyDataIntoPkaReg+0x74>
    4b64:	6008      	str	r0, [r1, #0]
    4b66:	3301      	adds	r3, #1
    4b68:	e7ed      	b.n	4b46 <PkaCopyDataIntoPkaReg+0x82>
    4b6a:	bf00      	nop
    4b6c:	508410b4 	.word	0x508410b4
    4b70:	508410d4 	.word	0x508410d4
    4b74:	508410d8 	.word	0x508410d8
    4b78:	14210424 	.word	0x14210424

00004b7c <PkaEcdsaVerify>:
    4b7c:	e92d 41f0 	stmdb	sp!, {r4, r5, r6, r7, r8, lr}
    4b80:	4b81      	ldr	r3, [pc, #516]	; (4d88 <PkaEcdsaVerify+0x20c>)
    4b82:	b0a0      	sub	sp, #128	; 0x80
    4b84:	681d      	ldr	r5, [r3, #0]
    4b86:	6898      	ldr	r0, [r3, #8]
    4b88:	3320      	adds	r3, #32
    4b8a:	461e      	mov	r6, r3
    4b8c:	681a      	ldr	r2, [r3, #0]
    4b8e:	9201      	str	r2, [sp, #4]
    4b90:	9a01      	ldr	r2, [sp, #4]
    4b92:	07d7      	lsls	r7, r2, #31
    4b94:	d5fa      	bpl.n	4b8c <PkaEcdsaVerify+0x10>
    4b96:	4b7d      	ldr	r3, [pc, #500]	; (4d8c <PkaEcdsaVerify+0x210>)
    4b98:	4a7d      	ldr	r2, [pc, #500]	; (4d90 <PkaEcdsaVerify+0x214>)
    4b9a:	601a      	str	r2, [r3, #0]
    4b9c:	6832      	ldr	r2, [r6, #0]
    4b9e:	9202      	str	r2, [sp, #8]
    4ba0:	9a02      	ldr	r2, [sp, #8]
    4ba2:	07d4      	lsls	r4, r2, #31
    4ba4:	d5fa      	bpl.n	4b9c <PkaEcdsaVerify+0x20>
    4ba6:	4a7b      	ldr	r2, [pc, #492]	; (4d94 <PkaEcdsaVerify+0x218>)
    4ba8:	601a      	str	r2, [r3, #0]
    4baa:	4a7b      	ldr	r2, [pc, #492]	; (4d98 <PkaEcdsaVerify+0x21c>)
    4bac:	4614      	mov	r4, r2
    4bae:	6811      	ldr	r1, [r2, #0]
    4bb0:	9103      	str	r1, [sp, #12]
    4bb2:	9903      	ldr	r1, [sp, #12]
    4bb4:	07c9      	lsls	r1, r1, #31
    4bb6:	d5fa      	bpl.n	4bae <PkaEcdsaVerify+0x32>
    4bb8:	4a78      	ldr	r2, [pc, #480]	; (4d9c <PkaEcdsaVerify+0x220>)
    4bba:	6811      	ldr	r1, [r2, #0]
    4bbc:	f3c1 2140 	ubfx	r1, r1, #9, #1
    4bc0:	6837      	ldr	r7, [r6, #0]
    4bc2:	9704      	str	r7, [sp, #16]
    4bc4:	9f04      	ldr	r7, [sp, #16]
    4bc6:	07ff      	lsls	r7, r7, #31
    4bc8:	d5fa      	bpl.n	4bc0 <PkaEcdsaVerify+0x44>
    4bca:	4f75      	ldr	r7, [pc, #468]	; (4da0 <PkaEcdsaVerify+0x224>)
    4bcc:	601f      	str	r7, [r3, #0]
    4bce:	6827      	ldr	r7, [r4, #0]
    4bd0:	9705      	str	r7, [sp, #20]
    4bd2:	9f05      	ldr	r7, [sp, #20]
    4bd4:	07ff      	lsls	r7, r7, #31
    4bd6:	d5fa      	bpl.n	4bce <PkaEcdsaVerify+0x52>
    4bd8:	6817      	ldr	r7, [r2, #0]
    4bda:	2900      	cmp	r1, #0
    4bdc:	f000 80cf 	beq.w	4d7e <PkaEcdsaVerify+0x202>
    4be0:	05b9      	lsls	r1, r7, #22
    4be2:	f140 80cc 	bpl.w	4d7e <PkaEcdsaVerify+0x202>
    4be6:	6831      	ldr	r1, [r6, #0]
    4be8:	9106      	str	r1, [sp, #24]
    4bea:	9906      	ldr	r1, [sp, #24]
    4bec:	07cf      	lsls	r7, r1, #31
    4bee:	d5fa      	bpl.n	4be6 <PkaEcdsaVerify+0x6a>
    4bf0:	496c      	ldr	r1, [pc, #432]	; (4da4 <PkaEcdsaVerify+0x228>)
    4bf2:	6019      	str	r1, [r3, #0]
    4bf4:	6821      	ldr	r1, [r4, #0]
    4bf6:	9107      	str	r1, [sp, #28]
    4bf8:	9907      	ldr	r1, [sp, #28]
    4bfa:	07c9      	lsls	r1, r1, #31
    4bfc:	d5fa      	bpl.n	4bf4 <PkaEcdsaVerify+0x78>
    4bfe:	6811      	ldr	r1, [r2, #0]
    4c00:	f3c1 2140 	ubfx	r1, r1, #9, #1
    4c04:	6837      	ldr	r7, [r6, #0]
    4c06:	9708      	str	r7, [sp, #32]
    4c08:	9f08      	ldr	r7, [sp, #32]
    4c0a:	07ff      	lsls	r7, r7, #31
    4c0c:	d5fa      	bpl.n	4c04 <PkaEcdsaVerify+0x88>
    4c0e:	4f66      	ldr	r7, [pc, #408]	; (4da8 <PkaEcdsaVerify+0x22c>)
    4c10:	601f      	str	r7, [r3, #0]
    4c12:	6827      	ldr	r7, [r4, #0]
    4c14:	9709      	str	r7, [sp, #36]	; 0x24
    4c16:	9f09      	ldr	r7, [sp, #36]	; 0x24
    4c18:	07ff      	lsls	r7, r7, #31
    4c1a:	d5fa      	bpl.n	4c12 <PkaEcdsaVerify+0x96>
    4c1c:	6812      	ldr	r2, [r2, #0]
    4c1e:	2900      	cmp	r1, #0
    4c20:	f000 80af 	beq.w	4d82 <PkaEcdsaVerify+0x206>
    4c24:	0591      	lsls	r1, r2, #22
    4c26:	f140 80ac 	bpl.w	4d82 <PkaEcdsaVerify+0x206>
    4c2a:	6832      	ldr	r2, [r6, #0]
    4c2c:	920a      	str	r2, [sp, #40]	; 0x28
    4c2e:	9a0a      	ldr	r2, [sp, #40]	; 0x28
    4c30:	07d2      	lsls	r2, r2, #31
    4c32:	d5fa      	bpl.n	4c2a <PkaEcdsaVerify+0xae>
    4c34:	4a56      	ldr	r2, [pc, #344]	; (4d90 <PkaEcdsaVerify+0x214>)
    4c36:	601a      	str	r2, [r3, #0]
    4c38:	6832      	ldr	r2, [r6, #0]
    4c3a:	920b      	str	r2, [sp, #44]	; 0x2c
    4c3c:	9a0b      	ldr	r2, [sp, #44]	; 0x2c
    4c3e:	07d7      	lsls	r7, r2, #31
    4c40:	d5fa      	bpl.n	4c38 <PkaEcdsaVerify+0xbc>
    4c42:	4a5a      	ldr	r2, [pc, #360]	; (4dac <PkaEcdsaVerify+0x230>)
    4c44:	601a      	str	r2, [r3, #0]
    4c46:	6831      	ldr	r1, [r6, #0]
    4c48:	910c      	str	r1, [sp, #48]	; 0x30
    4c4a:	990c      	ldr	r1, [sp, #48]	; 0x30
    4c4c:	07cc      	lsls	r4, r1, #31
    4c4e:	d5fa      	bpl.n	4c46 <PkaEcdsaVerify+0xca>
    4c50:	4957      	ldr	r1, [pc, #348]	; (4db0 <PkaEcdsaVerify+0x234>)
    4c52:	6019      	str	r1, [r3, #0]
    4c54:	6831      	ldr	r1, [r6, #0]
    4c56:	910d      	str	r1, [sp, #52]	; 0x34
    4c58:	990d      	ldr	r1, [sp, #52]	; 0x34
    4c5a:	07c9      	lsls	r1, r1, #31
    4c5c:	d5fa      	bpl.n	4c54 <PkaEcdsaVerify+0xd8>
    4c5e:	4955      	ldr	r1, [pc, #340]	; (4db4 <PkaEcdsaVerify+0x238>)
    4c60:	6019      	str	r1, [r3, #0]
    4c62:	6831      	ldr	r1, [r6, #0]
    4c64:	910e      	str	r1, [sp, #56]	; 0x38
    4c66:	990e      	ldr	r1, [sp, #56]	; 0x38
    4c68:	07cf      	lsls	r7, r1, #31
    4c6a:	d5fa      	bpl.n	4c62 <PkaEcdsaVerify+0xe6>
    4c6c:	4952      	ldr	r1, [pc, #328]	; (4db8 <PkaEcdsaVerify+0x23c>)
    4c6e:	6019      	str	r1, [r3, #0]
    4c70:	6831      	ldr	r1, [r6, #0]
    4c72:	910f      	str	r1, [sp, #60]	; 0x3c
    4c74:	990f      	ldr	r1, [sp, #60]	; 0x3c
    4c76:	07cc      	lsls	r4, r1, #31
    4c78:	d5fa      	bpl.n	4c70 <PkaEcdsaVerify+0xf4>
    4c7a:	4950      	ldr	r1, [pc, #320]	; (4dbc <PkaEcdsaVerify+0x240>)
    4c7c:	6019      	str	r1, [r3, #0]
    4c7e:	4b50      	ldr	r3, [pc, #320]	; (4dc0 <PkaEcdsaVerify+0x244>)
    4c80:	461e      	mov	r6, r3
    4c82:	6819      	ldr	r1, [r3, #0]
    4c84:	9110      	str	r1, [sp, #64]	; 0x40
    4c86:	9910      	ldr	r1, [sp, #64]	; 0x40
    4c88:	07c9      	lsls	r1, r1, #31
    4c8a:	d5fa      	bpl.n	4c82 <PkaEcdsaVerify+0x106>
    4c8c:	4c3f      	ldr	r4, [pc, #252]	; (4d8c <PkaEcdsaVerify+0x210>)
    4c8e:	4b4d      	ldr	r3, [pc, #308]	; (4dc4 <PkaEcdsaVerify+0x248>)
    4c90:	6023      	str	r3, [r4, #0]
    4c92:	6833      	ldr	r3, [r6, #0]
    4c94:	9311      	str	r3, [sp, #68]	; 0x44
    4c96:	9b11      	ldr	r3, [sp, #68]	; 0x44
    4c98:	07db      	lsls	r3, r3, #31
    4c9a:	d5fa      	bpl.n	4c92 <PkaEcdsaVerify+0x116>
    4c9c:	4b4a      	ldr	r3, [pc, #296]	; (4dc8 <PkaEcdsaVerify+0x24c>)
    4c9e:	6023      	str	r3, [r4, #0]
    4ca0:	6833      	ldr	r3, [r6, #0]
    4ca2:	9312      	str	r3, [sp, #72]	; 0x48
    4ca4:	9b12      	ldr	r3, [sp, #72]	; 0x48
    4ca6:	07df      	lsls	r7, r3, #31
    4ca8:	d5fa      	bpl.n	4ca0 <PkaEcdsaVerify+0x124>
    4caa:	4b48      	ldr	r3, [pc, #288]	; (4dcc <PkaEcdsaVerify+0x250>)
    4cac:	6023      	str	r3, [r4, #0]
    4cae:	4b3a      	ldr	r3, [pc, #232]	; (4d98 <PkaEcdsaVerify+0x21c>)
    4cb0:	4698      	mov	r8, r3
    4cb2:	6819      	ldr	r1, [r3, #0]
    4cb4:	9113      	str	r1, [sp, #76]	; 0x4c
    4cb6:	9913      	ldr	r1, [sp, #76]	; 0x4c
    4cb8:	07c9      	lsls	r1, r1, #31
    4cba:	d5fa      	bpl.n	4cb2 <PkaEcdsaVerify+0x136>
    4cbc:	4f32      	ldr	r7, [pc, #200]	; (4d88 <PkaEcdsaVerify+0x20c>)
    4cbe:	6038      	str	r0, [r7, #0]
    4cc0:	6833      	ldr	r3, [r6, #0]
    4cc2:	9314      	str	r3, [sp, #80]	; 0x50
    4cc4:	9b14      	ldr	r3, [sp, #80]	; 0x50
    4cc6:	07db      	lsls	r3, r3, #31
    4cc8:	d5fa      	bpl.n	4cc0 <PkaEcdsaVerify+0x144>
    4cca:	6022      	str	r2, [r4, #0]
    4ccc:	6833      	ldr	r3, [r6, #0]
    4cce:	9315      	str	r3, [sp, #84]	; 0x54
    4cd0:	9b15      	ldr	r3, [sp, #84]	; 0x54
    4cd2:	07d8      	lsls	r0, r3, #31
    4cd4:	d5fa      	bpl.n	4ccc <PkaEcdsaVerify+0x150>
    4cd6:	4b3e      	ldr	r3, [pc, #248]	; (4dd0 <PkaEcdsaVerify+0x254>)
    4cd8:	6023      	str	r3, [r4, #0]
    4cda:	6833      	ldr	r3, [r6, #0]
    4cdc:	9316      	str	r3, [sp, #88]	; 0x58
    4cde:	9b16      	ldr	r3, [sp, #88]	; 0x58
    4ce0:	07d9      	lsls	r1, r3, #31
    4ce2:	d5fa      	bpl.n	4cda <PkaEcdsaVerify+0x15e>
    4ce4:	4b3b      	ldr	r3, [pc, #236]	; (4dd4 <PkaEcdsaVerify+0x258>)
    4ce6:	6023      	str	r3, [r4, #0]
    4ce8:	6833      	ldr	r3, [r6, #0]
    4cea:	9317      	str	r3, [sp, #92]	; 0x5c
    4cec:	9b17      	ldr	r3, [sp, #92]	; 0x5c
    4cee:	07da      	lsls	r2, r3, #31
    4cf0:	d5fa      	bpl.n	4ce8 <PkaEcdsaVerify+0x16c>
    4cf2:	4b39      	ldr	r3, [pc, #228]	; (4dd8 <PkaEcdsaVerify+0x25c>)
    4cf4:	6023      	str	r3, [r4, #0]
    4cf6:	6833      	ldr	r3, [r6, #0]
    4cf8:	9318      	str	r3, [sp, #96]	; 0x60
    4cfa:	9b18      	ldr	r3, [sp, #96]	; 0x60
    4cfc:	07db      	lsls	r3, r3, #31
    4cfe:	d5fa      	bpl.n	4cf6 <PkaEcdsaVerify+0x17a>
    4d00:	4b36      	ldr	r3, [pc, #216]	; (4ddc <PkaEcdsaVerify+0x260>)
    4d02:	6023      	str	r3, [r4, #0]
    4d04:	6833      	ldr	r3, [r6, #0]
    4d06:	9319      	str	r3, [sp, #100]	; 0x64
    4d08:	9b19      	ldr	r3, [sp, #100]	; 0x64
    4d0a:	07d8      	lsls	r0, r3, #31
    4d0c:	d5fa      	bpl.n	4d04 <PkaEcdsaVerify+0x188>
    4d0e:	4b34      	ldr	r3, [pc, #208]	; (4de0 <PkaEcdsaVerify+0x264>)
    4d10:	6023      	str	r3, [r4, #0]
    4d12:	6833      	ldr	r3, [r6, #0]
    4d14:	931a      	str	r3, [sp, #104]	; 0x68
    4d16:	9b1a      	ldr	r3, [sp, #104]	; 0x68
    4d18:	07d9      	lsls	r1, r3, #31
    4d1a:	d5fa      	bpl.n	4d12 <PkaEcdsaVerify+0x196>
    4d1c:	4b31      	ldr	r3, [pc, #196]	; (4de4 <PkaEcdsaVerify+0x268>)
    4d1e:	6023      	str	r3, [r4, #0]
    4d20:	6833      	ldr	r3, [r6, #0]
    4d22:	931b      	str	r3, [sp, #108]	; 0x6c
    4d24:	9b1b      	ldr	r3, [sp, #108]	; 0x6c
    4d26:	07da      	lsls	r2, r3, #31
    4d28:	d5fa      	bpl.n	4d20 <PkaEcdsaVerify+0x1a4>
    4d2a:	4b2f      	ldr	r3, [pc, #188]	; (4de8 <PkaEcdsaVerify+0x26c>)
    4d2c:	6023      	str	r3, [r4, #0]
    4d2e:	f000 fc1d 	bl	556c <PkaSum2ScalarMullt>
    4d32:	bb08      	cbnz	r0, 4d78 <PkaEcdsaVerify+0x1fc>
    4d34:	f8d8 3000 	ldr.w	r3, [r8]
    4d38:	931c      	str	r3, [sp, #112]	; 0x70
    4d3a:	9b1c      	ldr	r3, [sp, #112]	; 0x70
    4d3c:	07db      	lsls	r3, r3, #31
    4d3e:	d5f9      	bpl.n	4d34 <PkaEcdsaVerify+0x1b8>
    4d40:	603d      	str	r5, [r7, #0]
    4d42:	6833      	ldr	r3, [r6, #0]
    4d44:	931d      	str	r3, [sp, #116]	; 0x74
    4d46:	9b1d      	ldr	r3, [sp, #116]	; 0x74
    4d48:	07d9      	lsls	r1, r3, #31
    4d4a:	d5fa      	bpl.n	4d42 <PkaEcdsaVerify+0x1c6>
    4d4c:	4b27      	ldr	r3, [pc, #156]	; (4dec <PkaEcdsaVerify+0x270>)
    4d4e:	6023      	str	r3, [r4, #0]
    4d50:	6833      	ldr	r3, [r6, #0]
    4d52:	931e      	str	r3, [sp, #120]	; 0x78
    4d54:	9b1e      	ldr	r3, [sp, #120]	; 0x78
    4d56:	07da      	lsls	r2, r3, #31
    4d58:	d5fa      	bpl.n	4d50 <PkaEcdsaVerify+0x1d4>
    4d5a:	4b25      	ldr	r3, [pc, #148]	; (4df0 <PkaEcdsaVerify+0x274>)
    4d5c:	6023      	str	r3, [r4, #0]
    4d5e:	f8d8 3000 	ldr.w	r3, [r8]
    4d62:	931f      	str	r3, [sp, #124]	; 0x7c
    4d64:	9b1f      	ldr	r3, [sp, #124]	; 0x7c
    4d66:	07db      	lsls	r3, r3, #31
    4d68:	d5f9      	bpl.n	4d5e <PkaEcdsaVerify+0x1e2>
    4d6a:	4b0c      	ldr	r3, [pc, #48]	; (4d9c <PkaEcdsaVerify+0x220>)
    4d6c:	681b      	ldr	r3, [r3, #0]
    4d6e:	f413 5f80 	tst.w	r3, #4096	; 0x1000
    4d72:	4b20      	ldr	r3, [pc, #128]	; (4df4 <PkaEcdsaVerify+0x278>)
    4d74:	bf08      	it	eq
    4d76:	4618      	moveq	r0, r3
    4d78:	b020      	add	sp, #128	; 0x80
    4d7a:	e8bd 81f0 	ldmia.w	sp!, {r4, r5, r6, r7, r8, pc}
    4d7e:	481e      	ldr	r0, [pc, #120]	; (4df8 <PkaEcdsaVerify+0x27c>)
    4d80:	e7fa      	b.n	4d78 <PkaEcdsaVerify+0x1fc>
    4d82:	481e      	ldr	r0, [pc, #120]	; (4dfc <PkaEcdsaVerify+0x280>)
    4d84:	e7f8      	b.n	4d78 <PkaEcdsaVerify+0x1fc>
    4d86:	bf00      	nop
    4d88:	50841090 	.word	0x50841090
    4d8c:	50841080 	.word	0x50841080
    4d90:	51021000 	.word	0x51021000
    4d94:	29721fc0 	.word	0x29721fc0
    4d98:	508410b4 	.word	0x508410b4
    4d9c:	50841088 	.word	0x50841088
    4da0:	2901cfc0 	.word	0x2901cfc0
    4da4:	290e1fc0 	.word	0x290e1fc0
    4da8:	29003fc0 	.word	0x29003fc0
    4dac:	49020140 	.word	0x49020140
    4db0:	a8843100 	.word	0xa8843100
    4db4:	49160000 	.word	0x49160000
    4db8:	a1080140 	.word	0xa1080140
    4dbc:	88084480 	.word	0x88084480
    4dc0:	508410b0 	.word	0x508410b0
    4dc4:	887044c0 	.word	0x887044c0
    4dc8:	417a0780 	.word	0x417a0780
    4dcc:	417e07c0 	.word	0x417e07c0
    4dd0:	496a0000 	.word	0x496a0000
    4dd4:	49160680 	.word	0x49160680
    4dd8:	496e0040 	.word	0x496e0040
    4ddc:	21000200 	.word	0x21000200
    4de0:	21208200 	.word	0x21208200
    4de4:	21208240 	.word	0x21208240
    4de8:	21248280 	.word	0x21248280
    4dec:	a161a140 	.word	0xa161a140
    4df0:	5161c800 	.word	0x5161c800
    4df4:	00f10803 	.word	0x00f10803
    4df8:	00f10801 	.word	0x00f10801
    4dfc:	00f10802 	.word	0x00f10802

00004e00 <nrf_cc310_bl_hash_update_internal>:
    4e00:	4b32      	ldr	r3, [pc, #200]	; (4ecc <nrf_cc310_bl_hash_update_internal+0xcc>)
    4e02:	e92d 4ff7 	stmdb	sp!, {r0, r1, r2, r4, r5, r6, r7, r8, r9, sl, fp, lr}
    4e06:	4680      	mov	r8, r0
    4e08:	4692      	mov	sl, r2
    4e0a:	4699      	mov	r9, r3
    4e0c:	6844      	ldr	r4, [r0, #4]
    4e0e:	681a      	ldr	r2, [r3, #0]
    4e10:	2a00      	cmp	r2, #0
    4e12:	d1fc      	bne.n	4e0e <nrf_cc310_bl_hash_update_internal+0xe>
    4e14:	4b2e      	ldr	r3, [pc, #184]	; (4ed0 <nrf_cc310_bl_hash_update_internal+0xd0>)
    4e16:	469b      	mov	fp, r3
    4e18:	681a      	ldr	r2, [r3, #0]
    4e1a:	2a00      	cmp	r2, #0
    4e1c:	d1fc      	bne.n	4e18 <nrf_cc310_bl_hash_update_internal+0x18>
    4e1e:	f04f 30ff 	mov.w	r0, #4294967295	; 0xffffffff
    4e22:	9101      	str	r1, [sp, #4]
    4e24:	f000 fc94 	bl	5750 <SaSi_HalClearInterruptBit>
    4e28:	2080      	movs	r0, #128	; 0x80
    4e2a:	f000 fc97 	bl	575c <SaSi_HalMaskInterrupt>
    4e2e:	2301      	movs	r3, #1
    4e30:	2007      	movs	r0, #7
    4e32:	4a28      	ldr	r2, [pc, #160]	; (4ed4 <nrf_cc310_bl_hash_update_internal+0xd4>)
    4e34:	4d28      	ldr	r5, [pc, #160]	; (4ed8 <nrf_cc310_bl_hash_update_internal+0xd8>)
    4e36:	f5a2 729e 	sub.w	r2, r2, #316	; 0x13c
    4e3a:	602b      	str	r3, [r5, #0]
    4e3c:	f8c2 013c 	str.w	r0, [r2, #316]	; 0x13c
    4e40:	6013      	str	r3, [r2, #0]
    4e42:	6a63      	ldr	r3, [r4, #36]	; 0x24
    4e44:	4f25      	ldr	r7, [pc, #148]	; (4edc <nrf_cc310_bl_hash_update_internal+0xdc>)
    4e46:	4e26      	ldr	r6, [pc, #152]	; (4ee0 <nrf_cc310_bl_hash_update_internal+0xe0>)
    4e48:	603b      	str	r3, [r7, #0]
    4e4a:	6aa3      	ldr	r3, [r4, #40]	; 0x28
    4e4c:	4620      	mov	r0, r4
    4e4e:	6033      	str	r3, [r6, #0]
    4e50:	f8d8 3000 	ldr.w	r3, [r8]
    4e54:	f842 3c04 	str.w	r3, [r2, #-4]
    4e58:	f8d8 3008 	ldr.w	r3, [r8, #8]
    4e5c:	4798      	blx	r3
    4e5e:	9901      	ldr	r1, [sp, #4]
    4e60:	f8d9 3000 	ldr.w	r3, [r9]
    4e64:	2b00      	cmp	r3, #0
    4e66:	d1fb      	bne.n	4e60 <nrf_cc310_bl_hash_update_internal+0x60>
    4e68:	f1ba 0f00 	cmp.w	sl, #0
    4e6c:	d120      	bne.n	4eb0 <nrf_cc310_bl_hash_update_internal+0xb0>
    4e6e:	2204      	movs	r2, #4
    4e70:	4b1c      	ldr	r3, [pc, #112]	; (4ee4 <nrf_cc310_bl_hash_update_internal+0xe4>)
    4e72:	601a      	str	r2, [r3, #0]
    4e74:	f8d9 3000 	ldr.w	r3, [r9]
    4e78:	2b00      	cmp	r3, #0
    4e7a:	d1fb      	bne.n	4e74 <nrf_cc310_bl_hash_update_internal+0x74>
    4e7c:	f8db a000 	ldr.w	sl, [fp]
    4e80:	f1ba 0f00 	cmp.w	sl, #0
    4e84:	d1fa      	bne.n	4e7c <nrf_cc310_bl_hash_update_internal+0x7c>
    4e86:	f8d8 300c 	ldr.w	r3, [r8, #12]
    4e8a:	4620      	mov	r0, r4
    4e8c:	4798      	blx	r3
    4e8e:	683b      	ldr	r3, [r7, #0]
    4e90:	6263      	str	r3, [r4, #36]	; 0x24
    4e92:	6833      	ldr	r3, [r6, #0]
    4e94:	62a3      	str	r3, [r4, #40]	; 0x28
    4e96:	4b14      	ldr	r3, [pc, #80]	; (4ee8 <nrf_cc310_bl_hash_update_internal+0xe8>)
    4e98:	f8c3 a000 	str.w	sl, [r3]
    4e9c:	f8c3 a144 	str.w	sl, [r3, #324]	; 0x144
    4ea0:	f8d9 3000 	ldr.w	r3, [r9]
    4ea4:	2b00      	cmp	r3, #0
    4ea6:	d1fb      	bne.n	4ea0 <nrf_cc310_bl_hash_update_internal+0xa0>
    4ea8:	602b      	str	r3, [r5, #0]
    4eaa:	b003      	add	sp, #12
    4eac:	e8bd 8ff0 	ldmia.w	sp!, {r4, r5, r6, r7, r8, r9, sl, fp, pc}
    4eb0:	6a23      	ldr	r3, [r4, #32]
    4eb2:	2040      	movs	r0, #64	; 0x40
    4eb4:	2b01      	cmp	r3, #1
    4eb6:	bf04      	itt	eq
    4eb8:	4a0b      	ldreq	r2, [pc, #44]	; (4ee8 <nrf_cc310_bl_hash_update_internal+0xe8>)
    4eba:	6013      	streq	r3, [r2, #0]
    4ebc:	4b0b      	ldr	r3, [pc, #44]	; (4eec <nrf_cc310_bl_hash_update_internal+0xec>)
    4ebe:	6019      	str	r1, [r3, #0]
    4ec0:	f8c3 a004 	str.w	sl, [r3, #4]
    4ec4:	f000 fc50 	bl	5768 <SaSi_HalWaitInterrupt>
    4ec8:	e7d4      	b.n	4e74 <nrf_cc310_bl_hash_update_internal+0x74>
    4eca:	bf00      	nop
    4ecc:	50841910 	.word	0x50841910
    4ed0:	50841c20 	.word	0x50841c20
    4ed4:	50841900 	.word	0x50841900
    4ed8:	50841818 	.word	0x50841818
    4edc:	508417cc 	.word	0x508417cc
    4ee0:	508417d0 	.word	0x508417d0
    4ee4:	508417c8 	.word	0x508417c8
    4ee8:	50841684 	.word	0x50841684
    4eec:	50841c28 	.word	0x50841c28

00004ef0 <PkaDoubleMdf2Mdf>:
    4ef0:	4b54      	ldr	r3, [pc, #336]	; (5044 <PkaDoubleMdf2Mdf+0x154>)
    4ef2:	b510      	push	{r4, lr}
    4ef4:	4619      	mov	r1, r3
    4ef6:	b098      	sub	sp, #96	; 0x60
    4ef8:	681a      	ldr	r2, [r3, #0]
    4efa:	9201      	str	r2, [sp, #4]
    4efc:	9a01      	ldr	r2, [sp, #4]
    4efe:	07d2      	lsls	r2, r2, #31
    4f00:	d5fa      	bpl.n	4ef8 <PkaDoubleMdf2Mdf+0x8>
    4f02:	4b51      	ldr	r3, [pc, #324]	; (5048 <PkaDoubleMdf2Mdf+0x158>)
    4f04:	4a51      	ldr	r2, [pc, #324]	; (504c <PkaDoubleMdf2Mdf+0x15c>)
    4f06:	601a      	str	r2, [r3, #0]
    4f08:	680a      	ldr	r2, [r1, #0]
    4f0a:	9202      	str	r2, [sp, #8]
    4f0c:	9a02      	ldr	r2, [sp, #8]
    4f0e:	07d4      	lsls	r4, r2, #31
    4f10:	d5fa      	bpl.n	4f08 <PkaDoubleMdf2Mdf+0x18>
    4f12:	4a4f      	ldr	r2, [pc, #316]	; (5050 <PkaDoubleMdf2Mdf+0x160>)
    4f14:	601a      	str	r2, [r3, #0]
    4f16:	680a      	ldr	r2, [r1, #0]
    4f18:	9203      	str	r2, [sp, #12]
    4f1a:	9a03      	ldr	r2, [sp, #12]
    4f1c:	07d0      	lsls	r0, r2, #31
    4f1e:	d5fa      	bpl.n	4f16 <PkaDoubleMdf2Mdf+0x26>
    4f20:	484c      	ldr	r0, [pc, #304]	; (5054 <PkaDoubleMdf2Mdf+0x164>)
    4f22:	6018      	str	r0, [r3, #0]
    4f24:	680a      	ldr	r2, [r1, #0]
    4f26:	9204      	str	r2, [sp, #16]
    4f28:	9a04      	ldr	r2, [sp, #16]
    4f2a:	07d2      	lsls	r2, r2, #31
    4f2c:	d5fa      	bpl.n	4f24 <PkaDoubleMdf2Mdf+0x34>
    4f2e:	4a4a      	ldr	r2, [pc, #296]	; (5058 <PkaDoubleMdf2Mdf+0x168>)
    4f30:	601a      	str	r2, [r3, #0]
    4f32:	680a      	ldr	r2, [r1, #0]
    4f34:	9205      	str	r2, [sp, #20]
    4f36:	9a05      	ldr	r2, [sp, #20]
    4f38:	07d4      	lsls	r4, r2, #31
    4f3a:	d5fa      	bpl.n	4f32 <PkaDoubleMdf2Mdf+0x42>
    4f3c:	4a47      	ldr	r2, [pc, #284]	; (505c <PkaDoubleMdf2Mdf+0x16c>)
    4f3e:	601a      	str	r2, [r3, #0]
    4f40:	680a      	ldr	r2, [r1, #0]
    4f42:	9206      	str	r2, [sp, #24]
    4f44:	9a06      	ldr	r2, [sp, #24]
    4f46:	07d2      	lsls	r2, r2, #31
    4f48:	d5fa      	bpl.n	4f40 <PkaDoubleMdf2Mdf+0x50>
    4f4a:	4a45      	ldr	r2, [pc, #276]	; (5060 <PkaDoubleMdf2Mdf+0x170>)
    4f4c:	601a      	str	r2, [r3, #0]
    4f4e:	680a      	ldr	r2, [r1, #0]
    4f50:	9207      	str	r2, [sp, #28]
    4f52:	9a07      	ldr	r2, [sp, #28]
    4f54:	07d4      	lsls	r4, r2, #31
    4f56:	d5fa      	bpl.n	4f4e <PkaDoubleMdf2Mdf+0x5e>
    4f58:	4a42      	ldr	r2, [pc, #264]	; (5064 <PkaDoubleMdf2Mdf+0x174>)
    4f5a:	601a      	str	r2, [r3, #0]
    4f5c:	680a      	ldr	r2, [r1, #0]
    4f5e:	9208      	str	r2, [sp, #32]
    4f60:	9a08      	ldr	r2, [sp, #32]
    4f62:	07d2      	lsls	r2, r2, #31
    4f64:	d5fa      	bpl.n	4f5c <PkaDoubleMdf2Mdf+0x6c>
    4f66:	4a40      	ldr	r2, [pc, #256]	; (5068 <PkaDoubleMdf2Mdf+0x178>)
    4f68:	601a      	str	r2, [r3, #0]
    4f6a:	680a      	ldr	r2, [r1, #0]
    4f6c:	9209      	str	r2, [sp, #36]	; 0x24
    4f6e:	9a09      	ldr	r2, [sp, #36]	; 0x24
    4f70:	07d4      	lsls	r4, r2, #31
    4f72:	d5fa      	bpl.n	4f6a <PkaDoubleMdf2Mdf+0x7a>
    4f74:	4a3d      	ldr	r2, [pc, #244]	; (506c <PkaDoubleMdf2Mdf+0x17c>)
    4f76:	601a      	str	r2, [r3, #0]
    4f78:	680a      	ldr	r2, [r1, #0]
    4f7a:	920a      	str	r2, [sp, #40]	; 0x28
    4f7c:	9a0a      	ldr	r2, [sp, #40]	; 0x28
    4f7e:	07d2      	lsls	r2, r2, #31
    4f80:	d5fa      	bpl.n	4f78 <PkaDoubleMdf2Mdf+0x88>
    4f82:	4a3b      	ldr	r2, [pc, #236]	; (5070 <PkaDoubleMdf2Mdf+0x180>)
    4f84:	601a      	str	r2, [r3, #0]
    4f86:	680a      	ldr	r2, [r1, #0]
    4f88:	920b      	str	r2, [sp, #44]	; 0x2c
    4f8a:	9a0b      	ldr	r2, [sp, #44]	; 0x2c
    4f8c:	07d4      	lsls	r4, r2, #31
    4f8e:	d5fa      	bpl.n	4f86 <PkaDoubleMdf2Mdf+0x96>
    4f90:	4a38      	ldr	r2, [pc, #224]	; (5074 <PkaDoubleMdf2Mdf+0x184>)
    4f92:	601a      	str	r2, [r3, #0]
    4f94:	680a      	ldr	r2, [r1, #0]
    4f96:	920c      	str	r2, [sp, #48]	; 0x30
    4f98:	9a0c      	ldr	r2, [sp, #48]	; 0x30
    4f9a:	07d2      	lsls	r2, r2, #31
    4f9c:	d5fa      	bpl.n	4f94 <PkaDoubleMdf2Mdf+0xa4>
    4f9e:	4a36      	ldr	r2, [pc, #216]	; (5078 <PkaDoubleMdf2Mdf+0x188>)
    4fa0:	601a      	str	r2, [r3, #0]
    4fa2:	680a      	ldr	r2, [r1, #0]
    4fa4:	920d      	str	r2, [sp, #52]	; 0x34
    4fa6:	9a0d      	ldr	r2, [sp, #52]	; 0x34
    4fa8:	07d4      	lsls	r4, r2, #31
    4faa:	d5fa      	bpl.n	4fa2 <PkaDoubleMdf2Mdf+0xb2>
    4fac:	4a33      	ldr	r2, [pc, #204]	; (507c <PkaDoubleMdf2Mdf+0x18c>)
    4fae:	601a      	str	r2, [r3, #0]
    4fb0:	680a      	ldr	r2, [r1, #0]
    4fb2:	920e      	str	r2, [sp, #56]	; 0x38
    4fb4:	9a0e      	ldr	r2, [sp, #56]	; 0x38
    4fb6:	07d2      	lsls	r2, r2, #31
    4fb8:	d5fa      	bpl.n	4fb0 <PkaDoubleMdf2Mdf+0xc0>
    4fba:	4a31      	ldr	r2, [pc, #196]	; (5080 <PkaDoubleMdf2Mdf+0x190>)
    4fbc:	601a      	str	r2, [r3, #0]
    4fbe:	680a      	ldr	r2, [r1, #0]
    4fc0:	920f      	str	r2, [sp, #60]	; 0x3c
    4fc2:	9a0f      	ldr	r2, [sp, #60]	; 0x3c
    4fc4:	07d4      	lsls	r4, r2, #31
    4fc6:	d5fa      	bpl.n	4fbe <PkaDoubleMdf2Mdf+0xce>
    4fc8:	4a2e      	ldr	r2, [pc, #184]	; (5084 <PkaDoubleMdf2Mdf+0x194>)
    4fca:	601a      	str	r2, [r3, #0]
    4fcc:	680a      	ldr	r2, [r1, #0]
    4fce:	9210      	str	r2, [sp, #64]	; 0x40
    4fd0:	9a10      	ldr	r2, [sp, #64]	; 0x40
    4fd2:	07d2      	lsls	r2, r2, #31
    4fd4:	d5fa      	bpl.n	4fcc <PkaDoubleMdf2Mdf+0xdc>
    4fd6:	4a2c      	ldr	r2, [pc, #176]	; (5088 <PkaDoubleMdf2Mdf+0x198>)
    4fd8:	601a      	str	r2, [r3, #0]
    4fda:	4b1a      	ldr	r3, [pc, #104]	; (5044 <PkaDoubleMdf2Mdf+0x154>)
    4fdc:	4619      	mov	r1, r3
    4fde:	681c      	ldr	r4, [r3, #0]
    4fe0:	9411      	str	r4, [sp, #68]	; 0x44
    4fe2:	9c11      	ldr	r4, [sp, #68]	; 0x44
    4fe4:	07e4      	lsls	r4, r4, #31
    4fe6:	d5fa      	bpl.n	4fde <PkaDoubleMdf2Mdf+0xee>
    4fe8:	4b17      	ldr	r3, [pc, #92]	; (5048 <PkaDoubleMdf2Mdf+0x158>)
    4fea:	6018      	str	r0, [r3, #0]
    4fec:	6808      	ldr	r0, [r1, #0]
    4fee:	9012      	str	r0, [sp, #72]	; 0x48
    4ff0:	9812      	ldr	r0, [sp, #72]	; 0x48
    4ff2:	07c4      	lsls	r4, r0, #31
    4ff4:	d5fa      	bpl.n	4fec <PkaDoubleMdf2Mdf+0xfc>
    4ff6:	601a      	str	r2, [r3, #0]
    4ff8:	680a      	ldr	r2, [r1, #0]
    4ffa:	9213      	str	r2, [sp, #76]	; 0x4c
    4ffc:	9a13      	ldr	r2, [sp, #76]	; 0x4c
    4ffe:	07d0      	lsls	r0, r2, #31
    5000:	d5fa      	bpl.n	4ff8 <PkaDoubleMdf2Mdf+0x108>
    5002:	4a12      	ldr	r2, [pc, #72]	; (504c <PkaDoubleMdf2Mdf+0x15c>)
    5004:	601a      	str	r2, [r3, #0]
    5006:	680a      	ldr	r2, [r1, #0]
    5008:	9214      	str	r2, [sp, #80]	; 0x50
    500a:	9a14      	ldr	r2, [sp, #80]	; 0x50
    500c:	07d2      	lsls	r2, r2, #31
    500e:	d5fa      	bpl.n	5006 <PkaDoubleMdf2Mdf+0x116>
    5010:	4a1e      	ldr	r2, [pc, #120]	; (508c <PkaDoubleMdf2Mdf+0x19c>)
    5012:	601a      	str	r2, [r3, #0]
    5014:	680a      	ldr	r2, [r1, #0]
    5016:	9215      	str	r2, [sp, #84]	; 0x54
    5018:	9a15      	ldr	r2, [sp, #84]	; 0x54
    501a:	07d4      	lsls	r4, r2, #31
    501c:	d5fa      	bpl.n	5014 <PkaDoubleMdf2Mdf+0x124>
    501e:	4a1c      	ldr	r2, [pc, #112]	; (5090 <PkaDoubleMdf2Mdf+0x1a0>)
    5020:	601a      	str	r2, [r3, #0]
    5022:	680a      	ldr	r2, [r1, #0]
    5024:	9216      	str	r2, [sp, #88]	; 0x58
    5026:	9a16      	ldr	r2, [sp, #88]	; 0x58
    5028:	07d0      	lsls	r0, r2, #31
    502a:	d5fa      	bpl.n	5022 <PkaDoubleMdf2Mdf+0x132>
    502c:	4a19      	ldr	r2, [pc, #100]	; (5094 <PkaDoubleMdf2Mdf+0x1a4>)
    502e:	601a      	str	r2, [r3, #0]
    5030:	680a      	ldr	r2, [r1, #0]
    5032:	9217      	str	r2, [sp, #92]	; 0x5c
    5034:	9a17      	ldr	r2, [sp, #92]	; 0x5c
    5036:	07d2      	lsls	r2, r2, #31
    5038:	d5fa      	bpl.n	5030 <PkaDoubleMdf2Mdf+0x140>
    503a:	4a17      	ldr	r2, [pc, #92]	; (5098 <PkaDoubleMdf2Mdf+0x1a8>)
    503c:	601a      	str	r2, [r3, #0]
    503e:	b018      	add	sp, #96	; 0x60
    5040:	bd10      	pop	{r4, pc}
    5042:	bf00      	nop
    5044:	508410b0 	.word	0x508410b0
    5048:	50841080 	.word	0x50841080
    504c:	21659300 	.word	0x21659300
    5050:	90310400 	.word	0x90310400
    5054:	90659640 	.word	0x90659640
    5058:	21618300 	.word	0x21618300
    505c:	2130c300 	.word	0x2130c300
    5060:	9064c300 	.word	0x9064c300
    5064:	90618100 	.word	0x90618100
    5068:	21104600 	.word	0x21104600
    506c:	21118100 	.word	0x21118100
    5070:	21444100 	.word	0x21444100
    5074:	2920c300 	.word	0x2920c300
    5078:	c810460c 	.word	0xc810460c
    507c:	21318600 	.word	0x21318600
    5080:	2160c300 	.word	0x2160c300
    5084:	2928c140 	.word	0x2928c140
    5088:	21659640 	.word	0x21659640
    508c:	90311300 	.word	0x90311300
    5090:	29259640 	.word	0x29259640
    5094:	c8144659 	.word	0xc8144659
    5098:	49320440 	.word	0x49320440

0000509c <PkaDoubleMdf2Jcb>:
    509c:	4b49      	ldr	r3, [pc, #292]	; (51c4 <PkaDoubleMdf2Jcb+0x128>)
    509e:	b510      	push	{r4, lr}
    50a0:	4619      	mov	r1, r3
    50a2:	b094      	sub	sp, #80	; 0x50
    50a4:	681a      	ldr	r2, [r3, #0]
    50a6:	9200      	str	r2, [sp, #0]
    50a8:	9a00      	ldr	r2, [sp, #0]
    50aa:	07d2      	lsls	r2, r2, #31
    50ac:	d5fa      	bpl.n	50a4 <PkaDoubleMdf2Jcb+0x8>
    50ae:	4b46      	ldr	r3, [pc, #280]	; (51c8 <PkaDoubleMdf2Jcb+0x12c>)
    50b0:	4a46      	ldr	r2, [pc, #280]	; (51cc <PkaDoubleMdf2Jcb+0x130>)
    50b2:	601a      	str	r2, [r3, #0]
    50b4:	680a      	ldr	r2, [r1, #0]
    50b6:	9201      	str	r2, [sp, #4]
    50b8:	9a01      	ldr	r2, [sp, #4]
    50ba:	07d4      	lsls	r4, r2, #31
    50bc:	d5fa      	bpl.n	50b4 <PkaDoubleMdf2Jcb+0x18>
    50be:	4a44      	ldr	r2, [pc, #272]	; (51d0 <PkaDoubleMdf2Jcb+0x134>)
    50c0:	601a      	str	r2, [r3, #0]
    50c2:	680a      	ldr	r2, [r1, #0]
    50c4:	9202      	str	r2, [sp, #8]
    50c6:	9a02      	ldr	r2, [sp, #8]
    50c8:	07d0      	lsls	r0, r2, #31
    50ca:	d5fa      	bpl.n	50c2 <PkaDoubleMdf2Jcb+0x26>
    50cc:	4841      	ldr	r0, [pc, #260]	; (51d4 <PkaDoubleMdf2Jcb+0x138>)
    50ce:	6018      	str	r0, [r3, #0]
    50d0:	680a      	ldr	r2, [r1, #0]
    50d2:	9203      	str	r2, [sp, #12]
    50d4:	9a03      	ldr	r2, [sp, #12]
    50d6:	07d2      	lsls	r2, r2, #31
    50d8:	d5fa      	bpl.n	50d0 <PkaDoubleMdf2Jcb+0x34>
    50da:	4a3f      	ldr	r2, [pc, #252]	; (51d8 <PkaDoubleMdf2Jcb+0x13c>)
    50dc:	601a      	str	r2, [r3, #0]
    50de:	680a      	ldr	r2, [r1, #0]
    50e0:	9204      	str	r2, [sp, #16]
    50e2:	9a04      	ldr	r2, [sp, #16]
    50e4:	07d4      	lsls	r4, r2, #31
    50e6:	d5fa      	bpl.n	50de <PkaDoubleMdf2Jcb+0x42>
    50e8:	4a3c      	ldr	r2, [pc, #240]	; (51dc <PkaDoubleMdf2Jcb+0x140>)
    50ea:	601a      	str	r2, [r3, #0]
    50ec:	680a      	ldr	r2, [r1, #0]
    50ee:	9205      	str	r2, [sp, #20]
    50f0:	9a05      	ldr	r2, [sp, #20]
    50f2:	07d2      	lsls	r2, r2, #31
    50f4:	d5fa      	bpl.n	50ec <PkaDoubleMdf2Jcb+0x50>
    50f6:	4a3a      	ldr	r2, [pc, #232]	; (51e0 <PkaDoubleMdf2Jcb+0x144>)
    50f8:	601a      	str	r2, [r3, #0]
    50fa:	680a      	ldr	r2, [r1, #0]
    50fc:	9206      	str	r2, [sp, #24]
    50fe:	9a06      	ldr	r2, [sp, #24]
    5100:	07d4      	lsls	r4, r2, #31
    5102:	d5fa      	bpl.n	50fa <PkaDoubleMdf2Jcb+0x5e>
    5104:	4a37      	ldr	r2, [pc, #220]	; (51e4 <PkaDoubleMdf2Jcb+0x148>)
    5106:	601a      	str	r2, [r3, #0]
    5108:	680a      	ldr	r2, [r1, #0]
    510a:	9207      	str	r2, [sp, #28]
    510c:	9a07      	ldr	r2, [sp, #28]
    510e:	07d2      	lsls	r2, r2, #31
    5110:	d5fa      	bpl.n	5108 <PkaDoubleMdf2Jcb+0x6c>
    5112:	4a35      	ldr	r2, [pc, #212]	; (51e8 <PkaDoubleMdf2Jcb+0x14c>)
    5114:	601a      	str	r2, [r3, #0]
    5116:	680a      	ldr	r2, [r1, #0]
    5118:	9208      	str	r2, [sp, #32]
    511a:	9a08      	ldr	r2, [sp, #32]
    511c:	07d4      	lsls	r4, r2, #31
    511e:	d5fa      	bpl.n	5116 <PkaDoubleMdf2Jcb+0x7a>
    5120:	4a32      	ldr	r2, [pc, #200]	; (51ec <PkaDoubleMdf2Jcb+0x150>)
    5122:	601a      	str	r2, [r3, #0]
    5124:	680a      	ldr	r2, [r1, #0]
    5126:	9209      	str	r2, [sp, #36]	; 0x24
    5128:	9a09      	ldr	r2, [sp, #36]	; 0x24
    512a:	07d2      	lsls	r2, r2, #31
    512c:	d5fa      	bpl.n	5124 <PkaDoubleMdf2Jcb+0x88>
    512e:	4a30      	ldr	r2, [pc, #192]	; (51f0 <PkaDoubleMdf2Jcb+0x154>)
    5130:	601a      	str	r2, [r3, #0]
    5132:	680a      	ldr	r2, [r1, #0]
    5134:	920a      	str	r2, [sp, #40]	; 0x28
    5136:	9a0a      	ldr	r2, [sp, #40]	; 0x28
    5138:	07d4      	lsls	r4, r2, #31
    513a:	d5fa      	bpl.n	5132 <PkaDoubleMdf2Jcb+0x96>
    513c:	4a2d      	ldr	r2, [pc, #180]	; (51f4 <PkaDoubleMdf2Jcb+0x158>)
    513e:	601a      	str	r2, [r3, #0]
    5140:	680a      	ldr	r2, [r1, #0]
    5142:	920b      	str	r2, [sp, #44]	; 0x2c
    5144:	9a0b      	ldr	r2, [sp, #44]	; 0x2c
    5146:	07d2      	lsls	r2, r2, #31
    5148:	d5fa      	bpl.n	5140 <PkaDoubleMdf2Jcb+0xa4>
    514a:	4a2b      	ldr	r2, [pc, #172]	; (51f8 <PkaDoubleMdf2Jcb+0x15c>)
    514c:	601a      	str	r2, [r3, #0]
    514e:	680a      	ldr	r2, [r1, #0]
    5150:	920c      	str	r2, [sp, #48]	; 0x30
    5152:	9a0c      	ldr	r2, [sp, #48]	; 0x30
    5154:	07d4      	lsls	r4, r2, #31
    5156:	d5fa      	bpl.n	514e <PkaDoubleMdf2Jcb+0xb2>
    5158:	4a28      	ldr	r2, [pc, #160]	; (51fc <PkaDoubleMdf2Jcb+0x160>)
    515a:	601a      	str	r2, [r3, #0]
    515c:	680a      	ldr	r2, [r1, #0]
    515e:	920d      	str	r2, [sp, #52]	; 0x34
    5160:	9a0d      	ldr	r2, [sp, #52]	; 0x34
    5162:	07d2      	lsls	r2, r2, #31
    5164:	d5fa      	bpl.n	515c <PkaDoubleMdf2Jcb+0xc0>
    5166:	4a26      	ldr	r2, [pc, #152]	; (5200 <PkaDoubleMdf2Jcb+0x164>)
    5168:	601a      	str	r2, [r3, #0]
    516a:	680a      	ldr	r2, [r1, #0]
    516c:	920e      	str	r2, [sp, #56]	; 0x38
    516e:	9a0e      	ldr	r2, [sp, #56]	; 0x38
    5170:	07d4      	lsls	r4, r2, #31
    5172:	d5fa      	bpl.n	516a <PkaDoubleMdf2Jcb+0xce>
    5174:	4a23      	ldr	r2, [pc, #140]	; (5204 <PkaDoubleMdf2Jcb+0x168>)
    5176:	601a      	str	r2, [r3, #0]
    5178:	680a      	ldr	r2, [r1, #0]
    517a:	920f      	str	r2, [sp, #60]	; 0x3c
    517c:	9a0f      	ldr	r2, [sp, #60]	; 0x3c
    517e:	07d2      	lsls	r2, r2, #31
    5180:	d5fa      	bpl.n	5178 <PkaDoubleMdf2Jcb+0xdc>
    5182:	4a21      	ldr	r2, [pc, #132]	; (5208 <PkaDoubleMdf2Jcb+0x16c>)
    5184:	601a      	str	r2, [r3, #0]
    5186:	4b0f      	ldr	r3, [pc, #60]	; (51c4 <PkaDoubleMdf2Jcb+0x128>)
    5188:	4619      	mov	r1, r3
    518a:	681c      	ldr	r4, [r3, #0]
    518c:	9410      	str	r4, [sp, #64]	; 0x40
    518e:	9c10      	ldr	r4, [sp, #64]	; 0x40
    5190:	07e4      	lsls	r4, r4, #31
    5192:	d5fa      	bpl.n	518a <PkaDoubleMdf2Jcb+0xee>
    5194:	4b0c      	ldr	r3, [pc, #48]	; (51c8 <PkaDoubleMdf2Jcb+0x12c>)
    5196:	6018      	str	r0, [r3, #0]
    5198:	6808      	ldr	r0, [r1, #0]
    519a:	9011      	str	r0, [sp, #68]	; 0x44
    519c:	9811      	ldr	r0, [sp, #68]	; 0x44
    519e:	07c4      	lsls	r4, r0, #31
    51a0:	d5fa      	bpl.n	5198 <PkaDoubleMdf2Jcb+0xfc>
    51a2:	601a      	str	r2, [r3, #0]
    51a4:	680a      	ldr	r2, [r1, #0]
    51a6:	9212      	str	r2, [sp, #72]	; 0x48
    51a8:	9a12      	ldr	r2, [sp, #72]	; 0x48
    51aa:	07d0      	lsls	r0, r2, #31
    51ac:	d5fa      	bpl.n	51a4 <PkaDoubleMdf2Jcb+0x108>
    51ae:	4a17      	ldr	r2, [pc, #92]	; (520c <PkaDoubleMdf2Jcb+0x170>)
    51b0:	601a      	str	r2, [r3, #0]
    51b2:	680a      	ldr	r2, [r1, #0]
    51b4:	9213      	str	r2, [sp, #76]	; 0x4c
    51b6:	9a13      	ldr	r2, [sp, #76]	; 0x4c
    51b8:	07d2      	lsls	r2, r2, #31
    51ba:	d5fa      	bpl.n	51b2 <PkaDoubleMdf2Jcb+0x116>
    51bc:	4a14      	ldr	r2, [pc, #80]	; (5210 <PkaDoubleMdf2Jcb+0x174>)
    51be:	601a      	str	r2, [r3, #0]
    51c0:	b014      	add	sp, #80	; 0x50
    51c2:	bd10      	pop	{r4, pc}
    51c4:	508410b0 	.word	0x508410b0
    51c8:	50841080 	.word	0x50841080
    51cc:	21659080 	.word	0x21659080
    51d0:	90090400 	.word	0x90090400
    51d4:	90659640 	.word	0x90659640
    51d8:	21618080 	.word	0x21618080
    51dc:	21082080 	.word	0x21082080
    51e0:	90642080 	.word	0x90642080
    51e4:	90618100 	.word	0x90618100
    51e8:	21104600 	.word	0x21104600
    51ec:	21118100 	.word	0x21118100
    51f0:	21444100 	.word	0x21444100
    51f4:	29202080 	.word	0x29202080
    51f8:	c8104602 	.word	0xc8104602
    51fc:	21098600 	.word	0x21098600
    5200:	21602080 	.word	0x21602080
    5204:	29282140 	.word	0x29282140
    5208:	21659640 	.word	0x21659640
    520c:	29259640 	.word	0x29259640
    5210:	c8144659 	.word	0xc8144659

00005214 <PkaAddJcbAfn2Mdf>:
    5214:	4b50      	ldr	r3, [pc, #320]	; (5358 <PkaAddJcbAfn2Mdf+0x144>)
    5216:	b510      	push	{r4, lr}
    5218:	461c      	mov	r4, r3
    521a:	b096      	sub	sp, #88	; 0x58
    521c:	681a      	ldr	r2, [r3, #0]
    521e:	9201      	str	r2, [sp, #4]
    5220:	9a01      	ldr	r2, [sp, #4]
    5222:	07d2      	lsls	r2, r2, #31
    5224:	d5fa      	bpl.n	521c <PkaAddJcbAfn2Mdf+0x8>
    5226:	4b4d      	ldr	r3, [pc, #308]	; (535c <PkaAddJcbAfn2Mdf+0x148>)
    5228:	4a4d      	ldr	r2, [pc, #308]	; (5360 <PkaAddJcbAfn2Mdf+0x14c>)
    522a:	601a      	str	r2, [r3, #0]
    522c:	6822      	ldr	r2, [r4, #0]
    522e:	9202      	str	r2, [sp, #8]
    5230:	9a02      	ldr	r2, [sp, #8]
    5232:	07d2      	lsls	r2, r2, #31
    5234:	d5fa      	bpl.n	522c <PkaAddJcbAfn2Mdf+0x18>
    5236:	4a4b      	ldr	r2, [pc, #300]	; (5364 <PkaAddJcbAfn2Mdf+0x150>)
    5238:	601a      	str	r2, [r3, #0]
    523a:	4a4b      	ldr	r2, [pc, #300]	; (5368 <PkaAddJcbAfn2Mdf+0x154>)
    523c:	ea42 4080 	orr.w	r0, r2, r0, lsl #18
    5240:	6822      	ldr	r2, [r4, #0]
    5242:	9203      	str	r2, [sp, #12]
    5244:	9a03      	ldr	r2, [sp, #12]
    5246:	07d2      	lsls	r2, r2, #31
    5248:	d5fa      	bpl.n	5240 <PkaAddJcbAfn2Mdf+0x2c>
    524a:	6018      	str	r0, [r3, #0]
    524c:	6822      	ldr	r2, [r4, #0]
    524e:	9204      	str	r2, [sp, #16]
    5250:	9a04      	ldr	r2, [sp, #16]
    5252:	07d0      	lsls	r0, r2, #31
    5254:	d5fa      	bpl.n	524c <PkaAddJcbAfn2Mdf+0x38>
    5256:	4a45      	ldr	r2, [pc, #276]	; (536c <PkaAddJcbAfn2Mdf+0x158>)
    5258:	601a      	str	r2, [r3, #0]
    525a:	f5a2 0280 	sub.w	r2, r2, #4194304	; 0x400000
    525e:	ea42 4181 	orr.w	r1, r2, r1, lsl #18
    5262:	6822      	ldr	r2, [r4, #0]
    5264:	9205      	str	r2, [sp, #20]
    5266:	9a05      	ldr	r2, [sp, #20]
    5268:	07d2      	lsls	r2, r2, #31
    526a:	d5fa      	bpl.n	5262 <PkaAddJcbAfn2Mdf+0x4e>
    526c:	6019      	str	r1, [r3, #0]
    526e:	6822      	ldr	r2, [r4, #0]
    5270:	9206      	str	r2, [sp, #24]
    5272:	9a06      	ldr	r2, [sp, #24]
    5274:	07d0      	lsls	r0, r2, #31
    5276:	d5fa      	bpl.n	526e <PkaAddJcbAfn2Mdf+0x5a>
    5278:	4a3d      	ldr	r2, [pc, #244]	; (5370 <PkaAddJcbAfn2Mdf+0x15c>)
    527a:	601a      	str	r2, [r3, #0]
    527c:	6822      	ldr	r2, [r4, #0]
    527e:	9207      	str	r2, [sp, #28]
    5280:	9a07      	ldr	r2, [sp, #28]
    5282:	07d1      	lsls	r1, r2, #31
    5284:	d5fa      	bpl.n	527c <PkaAddJcbAfn2Mdf+0x68>
    5286:	4a3b      	ldr	r2, [pc, #236]	; (5374 <PkaAddJcbAfn2Mdf+0x160>)
    5288:	601a      	str	r2, [r3, #0]
    528a:	6822      	ldr	r2, [r4, #0]
    528c:	9208      	str	r2, [sp, #32]
    528e:	9a08      	ldr	r2, [sp, #32]
    5290:	07d2      	lsls	r2, r2, #31
    5292:	d5fa      	bpl.n	528a <PkaAddJcbAfn2Mdf+0x76>
    5294:	4a38      	ldr	r2, [pc, #224]	; (5378 <PkaAddJcbAfn2Mdf+0x164>)
    5296:	601a      	str	r2, [r3, #0]
    5298:	6822      	ldr	r2, [r4, #0]
    529a:	9209      	str	r2, [sp, #36]	; 0x24
    529c:	9a09      	ldr	r2, [sp, #36]	; 0x24
    529e:	07d0      	lsls	r0, r2, #31
    52a0:	d5fa      	bpl.n	5298 <PkaAddJcbAfn2Mdf+0x84>
    52a2:	4a36      	ldr	r2, [pc, #216]	; (537c <PkaAddJcbAfn2Mdf+0x168>)
    52a4:	601a      	str	r2, [r3, #0]
    52a6:	6822      	ldr	r2, [r4, #0]
    52a8:	920a      	str	r2, [sp, #40]	; 0x28
    52aa:	9a0a      	ldr	r2, [sp, #40]	; 0x28
    52ac:	07d1      	lsls	r1, r2, #31
    52ae:	d5fa      	bpl.n	52a6 <PkaAddJcbAfn2Mdf+0x92>
    52b0:	4a33      	ldr	r2, [pc, #204]	; (5380 <PkaAddJcbAfn2Mdf+0x16c>)
    52b2:	601a      	str	r2, [r3, #0]
    52b4:	6822      	ldr	r2, [r4, #0]
    52b6:	920b      	str	r2, [sp, #44]	; 0x2c
    52b8:	9a0b      	ldr	r2, [sp, #44]	; 0x2c
    52ba:	07d2      	lsls	r2, r2, #31
    52bc:	d5fa      	bpl.n	52b4 <PkaAddJcbAfn2Mdf+0xa0>
    52be:	4a31      	ldr	r2, [pc, #196]	; (5384 <PkaAddJcbAfn2Mdf+0x170>)
    52c0:	601a      	str	r2, [r3, #0]
    52c2:	6822      	ldr	r2, [r4, #0]
    52c4:	920c      	str	r2, [sp, #48]	; 0x30
    52c6:	9a0c      	ldr	r2, [sp, #48]	; 0x30
    52c8:	07d0      	lsls	r0, r2, #31
    52ca:	d5fa      	bpl.n	52c2 <PkaAddJcbAfn2Mdf+0xae>
    52cc:	4a2e      	ldr	r2, [pc, #184]	; (5388 <PkaAddJcbAfn2Mdf+0x174>)
    52ce:	601a      	str	r2, [r3, #0]
    52d0:	6822      	ldr	r2, [r4, #0]
    52d2:	920d      	str	r2, [sp, #52]	; 0x34
    52d4:	9a0d      	ldr	r2, [sp, #52]	; 0x34
    52d6:	07d1      	lsls	r1, r2, #31
    52d8:	d5fa      	bpl.n	52d0 <PkaAddJcbAfn2Mdf+0xbc>
    52da:	4a2c      	ldr	r2, [pc, #176]	; (538c <PkaAddJcbAfn2Mdf+0x178>)
    52dc:	601a      	str	r2, [r3, #0]
    52de:	6822      	ldr	r2, [r4, #0]
    52e0:	920e      	str	r2, [sp, #56]	; 0x38
    52e2:	9a0e      	ldr	r2, [sp, #56]	; 0x38
    52e4:	07d2      	lsls	r2, r2, #31
    52e6:	d5fa      	bpl.n	52de <PkaAddJcbAfn2Mdf+0xca>
    52e8:	4a29      	ldr	r2, [pc, #164]	; (5390 <PkaAddJcbAfn2Mdf+0x17c>)
    52ea:	601a      	str	r2, [r3, #0]
    52ec:	6822      	ldr	r2, [r4, #0]
    52ee:	920f      	str	r2, [sp, #60]	; 0x3c
    52f0:	9a0f      	ldr	r2, [sp, #60]	; 0x3c
    52f2:	07d0      	lsls	r0, r2, #31
    52f4:	d5fa      	bpl.n	52ec <PkaAddJcbAfn2Mdf+0xd8>
    52f6:	4a27      	ldr	r2, [pc, #156]	; (5394 <PkaAddJcbAfn2Mdf+0x180>)
    52f8:	601a      	str	r2, [r3, #0]
    52fa:	6821      	ldr	r1, [r4, #0]
    52fc:	9110      	str	r1, [sp, #64]	; 0x40
    52fe:	9910      	ldr	r1, [sp, #64]	; 0x40
    5300:	07c9      	lsls	r1, r1, #31
    5302:	d5fa      	bpl.n	52fa <PkaAddJcbAfn2Mdf+0xe6>
    5304:	601a      	str	r2, [r3, #0]
    5306:	4b14      	ldr	r3, [pc, #80]	; (5358 <PkaAddJcbAfn2Mdf+0x144>)
    5308:	461a      	mov	r2, r3
    530a:	6819      	ldr	r1, [r3, #0]
    530c:	9111      	str	r1, [sp, #68]	; 0x44
    530e:	9911      	ldr	r1, [sp, #68]	; 0x44
    5310:	07c8      	lsls	r0, r1, #31
    5312:	d5fa      	bpl.n	530a <PkaAddJcbAfn2Mdf+0xf6>
    5314:	4b11      	ldr	r3, [pc, #68]	; (535c <PkaAddJcbAfn2Mdf+0x148>)
    5316:	4920      	ldr	r1, [pc, #128]	; (5398 <PkaAddJcbAfn2Mdf+0x184>)
    5318:	6019      	str	r1, [r3, #0]
    531a:	6811      	ldr	r1, [r2, #0]
    531c:	9112      	str	r1, [sp, #72]	; 0x48
    531e:	9912      	ldr	r1, [sp, #72]	; 0x48
    5320:	07c9      	lsls	r1, r1, #31
    5322:	d5fa      	bpl.n	531a <PkaAddJcbAfn2Mdf+0x106>
    5324:	491d      	ldr	r1, [pc, #116]	; (539c <PkaAddJcbAfn2Mdf+0x188>)
    5326:	6019      	str	r1, [r3, #0]
    5328:	6811      	ldr	r1, [r2, #0]
    532a:	9113      	str	r1, [sp, #76]	; 0x4c
    532c:	9913      	ldr	r1, [sp, #76]	; 0x4c
    532e:	07cc      	lsls	r4, r1, #31
    5330:	d5fa      	bpl.n	5328 <PkaAddJcbAfn2Mdf+0x114>
    5332:	490b      	ldr	r1, [pc, #44]	; (5360 <PkaAddJcbAfn2Mdf+0x14c>)
    5334:	6019      	str	r1, [r3, #0]
    5336:	6811      	ldr	r1, [r2, #0]
    5338:	9114      	str	r1, [sp, #80]	; 0x50
    533a:	9914      	ldr	r1, [sp, #80]	; 0x50
    533c:	07c8      	lsls	r0, r1, #31
    533e:	d5fa      	bpl.n	5336 <PkaAddJcbAfn2Mdf+0x122>
    5340:	4917      	ldr	r1, [pc, #92]	; (53a0 <PkaAddJcbAfn2Mdf+0x18c>)
    5342:	6019      	str	r1, [r3, #0]
    5344:	6811      	ldr	r1, [r2, #0]
    5346:	9115      	str	r1, [sp, #84]	; 0x54
    5348:	9915      	ldr	r1, [sp, #84]	; 0x54
    534a:	07c9      	lsls	r1, r1, #31
    534c:	d5fa      	bpl.n	5344 <PkaAddJcbAfn2Mdf+0x130>
    534e:	4a15      	ldr	r2, [pc, #84]	; (53a4 <PkaAddJcbAfn2Mdf+0x190>)
    5350:	601a      	str	r2, [r3, #0]
    5352:	b016      	add	sp, #88	; 0x58
    5354:	bd10      	pop	{r4, pc}
    5356:	bf00      	nop
    5358:	508410b0 	.word	0x508410b0
    535c:	50841080 	.word	0x50841080
    5360:	90410440 	.word	0x90410440
    5364:	29298600 	.word	0x29298600
    5368:	c80110d8 	.word	0xc80110d8
    536c:	90411440 	.word	0x90411440
    5370:	29211440 	.word	0x29211440
    5374:	21651440 	.word	0x21651440
    5378:	90403400 	.word	0x90403400
    537c:	900c3100 	.word	0x900c3100
    5380:	900c40c0 	.word	0x900c40c0
    5384:	292030c0 	.word	0x292030c0
    5388:	900d9640 	.word	0x900d9640
    538c:	90604100 	.word	0x90604100
    5390:	c8451603 	.word	0xc8451603
    5394:	21118600 	.word	0x21118600
    5398:	21604100 	.word	0x21604100
    539c:	c8444659 	.word	0xc8444659
    53a0:	90451440 	.word	0x90451440
    53a4:	902d1440 	.word	0x902d1440

000053a8 <PkaJcb2Afn>:
    53a8:	4826      	ldr	r0, [pc, #152]	; (5444 <PkaJcb2Afn+0x9c>)
    53aa:	b570      	push	{r4, r5, r6, lr}
    53ac:	4605      	mov	r5, r0
    53ae:	b088      	sub	sp, #32
    53b0:	6804      	ldr	r4, [r0, #0]
    53b2:	9400      	str	r4, [sp, #0]
    53b4:	9c00      	ldr	r4, [sp, #0]
    53b6:	07e6      	lsls	r6, r4, #31
    53b8:	d5fa      	bpl.n	53b0 <PkaJcb2Afn+0x8>
    53ba:	4c23      	ldr	r4, [pc, #140]	; (5448 <PkaJcb2Afn+0xa0>)
    53bc:	4823      	ldr	r0, [pc, #140]	; (544c <PkaJcb2Afn+0xa4>)
    53be:	6004      	str	r4, [r0, #0]
    53c0:	4c23      	ldr	r4, [pc, #140]	; (5450 <PkaJcb2Afn+0xa8>)
    53c2:	ea44 4383 	orr.w	r3, r4, r3, lsl #18
    53c6:	682c      	ldr	r4, [r5, #0]
    53c8:	9401      	str	r4, [sp, #4]
    53ca:	9c01      	ldr	r4, [sp, #4]
    53cc:	07e4      	lsls	r4, r4, #31
    53ce:	d5fa      	bpl.n	53c6 <PkaJcb2Afn+0x1e>
    53d0:	6003      	str	r3, [r0, #0]
    53d2:	0193      	lsls	r3, r2, #6
    53d4:	ea43 4282 	orr.w	r2, r3, r2, lsl #18
    53d8:	f042 4410 	orr.w	r4, r2, #2415919104	; 0x90000000
    53dc:	f444 44c0 	orr.w	r4, r4, #24576	; 0x6000
    53e0:	682b      	ldr	r3, [r5, #0]
    53e2:	9302      	str	r3, [sp, #8]
    53e4:	9b02      	ldr	r3, [sp, #8]
    53e6:	07de      	lsls	r6, r3, #31
    53e8:	d5fa      	bpl.n	53e0 <PkaJcb2Afn+0x38>
    53ea:	6004      	str	r4, [r0, #0]
    53ec:	682b      	ldr	r3, [r5, #0]
    53ee:	9303      	str	r3, [sp, #12]
    53f0:	9b03      	ldr	r3, [sp, #12]
    53f2:	07db      	lsls	r3, r3, #31
    53f4:	d5fa      	bpl.n	53ec <PkaJcb2Afn+0x44>
    53f6:	4b17      	ldr	r3, [pc, #92]	; (5454 <PkaJcb2Afn+0xac>)
    53f8:	6003      	str	r3, [r0, #0]
    53fa:	018b      	lsls	r3, r1, #6
    53fc:	ea43 4181 	orr.w	r1, r3, r1, lsl #18
    5400:	f041 4310 	orr.w	r3, r1, #2415919104	; 0x90000000
    5404:	f443 43c0 	orr.w	r3, r3, #24576	; 0x6000
    5408:	682e      	ldr	r6, [r5, #0]
    540a:	9604      	str	r6, [sp, #16]
    540c:	9e04      	ldr	r6, [sp, #16]
    540e:	07f6      	lsls	r6, r6, #31
    5410:	d5fa      	bpl.n	5408 <PkaJcb2Afn+0x60>
    5412:	6003      	str	r3, [r0, #0]
    5414:	682b      	ldr	r3, [r5, #0]
    5416:	9305      	str	r3, [sp, #20]
    5418:	9b05      	ldr	r3, [sp, #20]
    541a:	07de      	lsls	r6, r3, #31
    541c:	d5fa      	bpl.n	5414 <PkaJcb2Afn+0x6c>
    541e:	6004      	str	r4, [r0, #0]
    5420:	f041 4158 	orr.w	r1, r1, #3623878656	; 0xd8000000
    5424:	682b      	ldr	r3, [r5, #0]
    5426:	9306      	str	r3, [sp, #24]
    5428:	9b06      	ldr	r3, [sp, #24]
    542a:	07dc      	lsls	r4, r3, #31
    542c:	d5fa      	bpl.n	5424 <PkaJcb2Afn+0x7c>
    542e:	6001      	str	r1, [r0, #0]
    5430:	f042 4258 	orr.w	r2, r2, #3623878656	; 0xd8000000
    5434:	682b      	ldr	r3, [r5, #0]
    5436:	9307      	str	r3, [sp, #28]
    5438:	9b07      	ldr	r3, [sp, #28]
    543a:	07db      	lsls	r3, r3, #31
    543c:	d5fa      	bpl.n	5434 <PkaJcb2Afn+0x8c>
    543e:	6002      	str	r2, [r0, #0]
    5440:	b008      	add	sp, #32
    5442:	bd70      	pop	{r4, r5, r6, pc}
    5444:	508410b0 	.word	0x508410b0
    5448:	290221c0 	.word	0x290221c0
    544c:	50841080 	.word	0x50841080
    5450:	98007180 	.word	0x98007180
    5454:	90186180 	.word	0x90186180

00005458 <PkaAddAff>:
    5458:	4b35      	ldr	r3, [pc, #212]	; (5530 <PkaAddAff+0xd8>)
    545a:	b08e      	sub	sp, #56	; 0x38
    545c:	4619      	mov	r1, r3
    545e:	681a      	ldr	r2, [r3, #0]
    5460:	9200      	str	r2, [sp, #0]
    5462:	9a00      	ldr	r2, [sp, #0]
    5464:	07d2      	lsls	r2, r2, #31
    5466:	d5fa      	bpl.n	545e <PkaAddAff+0x6>
    5468:	4b32      	ldr	r3, [pc, #200]	; (5534 <PkaAddAff+0xdc>)
    546a:	4a33      	ldr	r2, [pc, #204]	; (5538 <PkaAddAff+0xe0>)
    546c:	601a      	str	r2, [r3, #0]
    546e:	680a      	ldr	r2, [r1, #0]
    5470:	9201      	str	r2, [sp, #4]
    5472:	9a01      	ldr	r2, [sp, #4]
    5474:	07d0      	lsls	r0, r2, #31
    5476:	d5fa      	bpl.n	546e <PkaAddAff+0x16>
    5478:	4a30      	ldr	r2, [pc, #192]	; (553c <PkaAddAff+0xe4>)
    547a:	601a      	str	r2, [r3, #0]
    547c:	680a      	ldr	r2, [r1, #0]
    547e:	9202      	str	r2, [sp, #8]
    5480:	9a02      	ldr	r2, [sp, #8]
    5482:	07d2      	lsls	r2, r2, #31
    5484:	d5fa      	bpl.n	547c <PkaAddAff+0x24>
    5486:	4a2e      	ldr	r2, [pc, #184]	; (5540 <PkaAddAff+0xe8>)
    5488:	601a      	str	r2, [r3, #0]
    548a:	680a      	ldr	r2, [r1, #0]
    548c:	9203      	str	r2, [sp, #12]
    548e:	9a03      	ldr	r2, [sp, #12]
    5490:	07d0      	lsls	r0, r2, #31
    5492:	d5fa      	bpl.n	548a <PkaAddAff+0x32>
    5494:	4a2b      	ldr	r2, [pc, #172]	; (5544 <PkaAddAff+0xec>)
    5496:	601a      	str	r2, [r3, #0]
    5498:	680a      	ldr	r2, [r1, #0]
    549a:	9204      	str	r2, [sp, #16]
    549c:	9a04      	ldr	r2, [sp, #16]
    549e:	07d2      	lsls	r2, r2, #31
    54a0:	d5fa      	bpl.n	5498 <PkaAddAff+0x40>
    54a2:	4a29      	ldr	r2, [pc, #164]	; (5548 <PkaAddAff+0xf0>)
    54a4:	601a      	str	r2, [r3, #0]
    54a6:	680a      	ldr	r2, [r1, #0]
    54a8:	9205      	str	r2, [sp, #20]
    54aa:	9a05      	ldr	r2, [sp, #20]
    54ac:	07d0      	lsls	r0, r2, #31
    54ae:	d5fa      	bpl.n	54a6 <PkaAddAff+0x4e>
    54b0:	4a26      	ldr	r2, [pc, #152]	; (554c <PkaAddAff+0xf4>)
    54b2:	601a      	str	r2, [r3, #0]
    54b4:	680a      	ldr	r2, [r1, #0]
    54b6:	9206      	str	r2, [sp, #24]
    54b8:	9a06      	ldr	r2, [sp, #24]
    54ba:	07d2      	lsls	r2, r2, #31
    54bc:	d5fa      	bpl.n	54b4 <PkaAddAff+0x5c>
    54be:	4a24      	ldr	r2, [pc, #144]	; (5550 <PkaAddAff+0xf8>)
    54c0:	601a      	str	r2, [r3, #0]
    54c2:	680a      	ldr	r2, [r1, #0]
    54c4:	9207      	str	r2, [sp, #28]
    54c6:	9a07      	ldr	r2, [sp, #28]
    54c8:	07d0      	lsls	r0, r2, #31
    54ca:	d5fa      	bpl.n	54c2 <PkaAddAff+0x6a>
    54cc:	4a21      	ldr	r2, [pc, #132]	; (5554 <PkaAddAff+0xfc>)
    54ce:	601a      	str	r2, [r3, #0]
    54d0:	680a      	ldr	r2, [r1, #0]
    54d2:	9208      	str	r2, [sp, #32]
    54d4:	9a08      	ldr	r2, [sp, #32]
    54d6:	07d2      	lsls	r2, r2, #31
    54d8:	d5fa      	bpl.n	54d0 <PkaAddAff+0x78>
    54da:	4a1f      	ldr	r2, [pc, #124]	; (5558 <PkaAddAff+0x100>)
    54dc:	601a      	str	r2, [r3, #0]
    54de:	680a      	ldr	r2, [r1, #0]
    54e0:	9209      	str	r2, [sp, #36]	; 0x24
    54e2:	9a09      	ldr	r2, [sp, #36]	; 0x24
    54e4:	07d0      	lsls	r0, r2, #31
    54e6:	d5fa      	bpl.n	54de <PkaAddAff+0x86>
    54e8:	4a1c      	ldr	r2, [pc, #112]	; (555c <PkaAddAff+0x104>)
    54ea:	601a      	str	r2, [r3, #0]
    54ec:	680a      	ldr	r2, [r1, #0]
    54ee:	920a      	str	r2, [sp, #40]	; 0x28
    54f0:	9a0a      	ldr	r2, [sp, #40]	; 0x28
    54f2:	07d2      	lsls	r2, r2, #31
    54f4:	d5fa      	bpl.n	54ec <PkaAddAff+0x94>
    54f6:	4a1a      	ldr	r2, [pc, #104]	; (5560 <PkaAddAff+0x108>)
    54f8:	601a      	str	r2, [r3, #0]
    54fa:	6808      	ldr	r0, [r1, #0]
    54fc:	900b      	str	r0, [sp, #44]	; 0x2c
    54fe:	980b      	ldr	r0, [sp, #44]	; 0x2c
    5500:	07c0      	lsls	r0, r0, #31
    5502:	d5fa      	bpl.n	54fa <PkaAddAff+0xa2>
    5504:	601a      	str	r2, [r3, #0]
    5506:	680a      	ldr	r2, [r1, #0]
    5508:	920c      	str	r2, [sp, #48]	; 0x30
    550a:	9a0c      	ldr	r2, [sp, #48]	; 0x30
    550c:	07d0      	lsls	r0, r2, #31
    550e:	d5fa      	bpl.n	5506 <PkaAddAff+0xae>
    5510:	4a14      	ldr	r2, [pc, #80]	; (5564 <PkaAddAff+0x10c>)
    5512:	601a      	str	r2, [r3, #0]
    5514:	680a      	ldr	r2, [r1, #0]
    5516:	920d      	str	r2, [sp, #52]	; 0x34
    5518:	9a0d      	ldr	r2, [sp, #52]	; 0x34
    551a:	07d2      	lsls	r2, r2, #31
    551c:	d5fa      	bpl.n	5514 <PkaAddAff+0xbc>
    551e:	4a12      	ldr	r2, [pc, #72]	; (5568 <PkaAddAff+0x110>)
    5520:	210e      	movs	r1, #14
    5522:	601a      	str	r2, [r3, #0]
    5524:	2000      	movs	r0, #0
    5526:	230d      	movs	r3, #13
    5528:	220f      	movs	r2, #15
    552a:	b00e      	add	sp, #56	; 0x38
    552c:	f7ff bf3c 	b.w	53a8 <PkaJcb2Afn>
    5530:	508410b0 	.word	0x508410b0
    5534:	50841080 	.word	0x50841080
    5538:	29014380 	.word	0x29014380
    553c:	21396340 	.word	0x21396340
    5540:	29017080 	.word	0x29017080
    5544:	21542080 	.word	0x21542080
    5548:	9034d100 	.word	0x9034d100
    554c:	903440c0 	.word	0x903440c0
    5550:	292030c0 	.word	0x292030c0
    5554:	900d53c0 	.word	0x900d53c0
    5558:	90384100 	.word	0x90384100
    555c:	c8082383 	.word	0xc8082383
    5560:	2110e380 	.word	0x2110e380
    5564:	21384100 	.word	0x21384100
    5568:	c80843cf 	.word	0xc80843cf

0000556c <PkaSum2ScalarMullt>:
    556c:	2301      	movs	r3, #1
    556e:	e92d 41f0 	stmdb	sp!, {r4, r5, r6, r7, r8, lr}
    5572:	b092      	sub	sp, #72	; 0x48
    5574:	e9cd 3303 	strd	r3, r3, [sp, #12]
    5578:	4b62      	ldr	r3, [pc, #392]	; (5704 <PkaSum2ScalarMullt+0x198>)
    557a:	461d      	mov	r5, r3
    557c:	681a      	ldr	r2, [r3, #0]
    557e:	9205      	str	r2, [sp, #20]
    5580:	9a05      	ldr	r2, [sp, #20]
    5582:	07d2      	lsls	r2, r2, #31
    5584:	d5fa      	bpl.n	557c <PkaSum2ScalarMullt+0x10>
    5586:	4b60      	ldr	r3, [pc, #384]	; (5708 <PkaSum2ScalarMullt+0x19c>)
    5588:	4c60      	ldr	r4, [pc, #384]	; (570c <PkaSum2ScalarMullt+0x1a0>)
    558a:	6023      	str	r3, [r4, #0]
    558c:	4b60      	ldr	r3, [pc, #384]	; (5710 <PkaSum2ScalarMullt+0x1a4>)
    558e:	4619      	mov	r1, r3
    5590:	681a      	ldr	r2, [r3, #0]
    5592:	9206      	str	r2, [sp, #24]
    5594:	9a06      	ldr	r2, [sp, #24]
    5596:	07d7      	lsls	r7, r2, #31
    5598:	d5fa      	bpl.n	5590 <PkaSum2ScalarMullt+0x24>
    559a:	4b5e      	ldr	r3, [pc, #376]	; (5714 <PkaSum2ScalarMullt+0x1a8>)
    559c:	681a      	ldr	r2, [r3, #0]
    559e:	04d6      	lsls	r6, r2, #19
    55a0:	f100 80a8 	bmi.w	56f4 <PkaSum2ScalarMullt+0x188>
    55a4:	682a      	ldr	r2, [r5, #0]
    55a6:	9207      	str	r2, [sp, #28]
    55a8:	9a07      	ldr	r2, [sp, #28]
    55aa:	07d0      	lsls	r0, r2, #31
    55ac:	d5fa      	bpl.n	55a4 <PkaSum2ScalarMullt+0x38>
    55ae:	4a5a      	ldr	r2, [pc, #360]	; (5718 <PkaSum2ScalarMullt+0x1ac>)
    55b0:	6022      	str	r2, [r4, #0]
    55b2:	680a      	ldr	r2, [r1, #0]
    55b4:	9208      	str	r2, [sp, #32]
    55b6:	9a08      	ldr	r2, [sp, #32]
    55b8:	07d2      	lsls	r2, r2, #31
    55ba:	d5fa      	bpl.n	55b2 <PkaSum2ScalarMullt+0x46>
    55bc:	681e      	ldr	r6, [r3, #0]
    55be:	f3c6 3600 	ubfx	r6, r6, #12, #1
    55c2:	2e00      	cmp	r6, #0
    55c4:	f040 8098 	bne.w	56f8 <PkaSum2ScalarMullt+0x18c>
    55c8:	2012      	movs	r0, #18
    55ca:	f7ff f8f3 	bl	47b4 <PkaGetRegEffectiveSizeInBits>
    55ce:	4607      	mov	r7, r0
    55d0:	2013      	movs	r0, #19
    55d2:	f7ff f8ef 	bl	47b4 <PkaGetRegEffectiveSizeInBits>
    55d6:	4287      	cmp	r7, r0
    55d8:	bf8c      	ite	hi
    55da:	2012      	movhi	r0, #18
    55dc:	2013      	movls	r0, #19
    55de:	f7ff f8e9 	bl	47b4 <PkaGetRegEffectiveSizeInBits>
    55e2:	1e47      	subs	r7, r0, #1
    55e4:	f7ff ff38 	bl	5458 <PkaAddAff>
    55e8:	ab03      	add	r3, sp, #12
    55ea:	aa01      	add	r2, sp, #4
    55ec:	4639      	mov	r1, r7
    55ee:	2012      	movs	r0, #18
    55f0:	f7ff f926 	bl	4840 <PkaGetNextMsBit>
    55f4:	ab04      	add	r3, sp, #16
    55f6:	4680      	mov	r8, r0
    55f8:	aa02      	add	r2, sp, #8
    55fa:	4639      	mov	r1, r7
    55fc:	2013      	movs	r0, #19
    55fe:	f7ff f91f 	bl	4840 <PkaGetNextMsBit>
    5602:	eb00 0048 	add.w	r0, r0, r8, lsl #1
    5606:	2802      	cmp	r0, #2
    5608:	d032      	beq.n	5670 <PkaSum2ScalarMullt+0x104>
    560a:	2803      	cmp	r0, #3
    560c:	d03e      	beq.n	568c <PkaSum2ScalarMullt+0x120>
    560e:	2801      	cmp	r0, #1
    5610:	d174      	bne.n	56fc <PkaSum2ScalarMullt+0x190>
    5612:	682b      	ldr	r3, [r5, #0]
    5614:	9309      	str	r3, [sp, #36]	; 0x24
    5616:	9b09      	ldr	r3, [sp, #36]	; 0x24
    5618:	07db      	lsls	r3, r3, #31
    561a:	d5fa      	bpl.n	5612 <PkaSum2ScalarMullt+0xa6>
    561c:	4b3f      	ldr	r3, [pc, #252]	; (571c <PkaSum2ScalarMullt+0x1b0>)
    561e:	6023      	str	r3, [r4, #0]
    5620:	682b      	ldr	r3, [r5, #0]
    5622:	930a      	str	r3, [sp, #40]	; 0x28
    5624:	9b0a      	ldr	r3, [sp, #40]	; 0x28
    5626:	07d8      	lsls	r0, r3, #31
    5628:	d5fa      	bpl.n	5620 <PkaSum2ScalarMullt+0xb4>
    562a:	4b3d      	ldr	r3, [pc, #244]	; (5720 <PkaSum2ScalarMullt+0x1b4>)
    562c:	6023      	str	r3, [r4, #0]
    562e:	682b      	ldr	r3, [r5, #0]
    5630:	930f      	str	r3, [sp, #60]	; 0x3c
    5632:	9b0f      	ldr	r3, [sp, #60]	; 0x3c
    5634:	07d9      	lsls	r1, r3, #31
    5636:	d5fa      	bpl.n	562e <PkaSum2ScalarMullt+0xc2>
    5638:	4b3a      	ldr	r3, [pc, #232]	; (5724 <PkaSum2ScalarMullt+0x1b8>)
    563a:	6023      	str	r3, [r4, #0]
    563c:	682b      	ldr	r3, [r5, #0]
    563e:	9310      	str	r3, [sp, #64]	; 0x40
    5640:	9b10      	ldr	r3, [sp, #64]	; 0x40
    5642:	07da      	lsls	r2, r3, #31
    5644:	d5fa      	bpl.n	563c <PkaSum2ScalarMullt+0xd0>
    5646:	4b38      	ldr	r3, [pc, #224]	; (5728 <PkaSum2ScalarMullt+0x1bc>)
    5648:	6023      	str	r3, [r4, #0]
    564a:	682b      	ldr	r3, [r5, #0]
    564c:	9311      	str	r3, [sp, #68]	; 0x44
    564e:	9b11      	ldr	r3, [sp, #68]	; 0x44
    5650:	07db      	lsls	r3, r3, #31
    5652:	d5fa      	bpl.n	564a <PkaSum2ScalarMullt+0xde>
    5654:	4b35      	ldr	r3, [pc, #212]	; (572c <PkaSum2ScalarMullt+0x1c0>)
    5656:	6023      	str	r3, [r4, #0]
    5658:	3f01      	subs	r7, #1
    565a:	d525      	bpl.n	56a8 <PkaSum2ScalarMullt+0x13c>
    565c:	2310      	movs	r3, #16
    565e:	2219      	movs	r2, #25
    5660:	2118      	movs	r1, #24
    5662:	2000      	movs	r0, #0
    5664:	f7ff fea0 	bl	53a8 <PkaJcb2Afn>
    5668:	4630      	mov	r0, r6
    566a:	b012      	add	sp, #72	; 0x48
    566c:	e8bd 81f0 	ldmia.w	sp!, {r4, r5, r6, r7, r8, pc}
    5670:	682b      	ldr	r3, [r5, #0]
    5672:	930b      	str	r3, [sp, #44]	; 0x2c
    5674:	9b0b      	ldr	r3, [sp, #44]	; 0x2c
    5676:	07d9      	lsls	r1, r3, #31
    5678:	d5fa      	bpl.n	5670 <PkaSum2ScalarMullt+0x104>
    567a:	4b2d      	ldr	r3, [pc, #180]	; (5730 <PkaSum2ScalarMullt+0x1c4>)
    567c:	6023      	str	r3, [r4, #0]
    567e:	682b      	ldr	r3, [r5, #0]
    5680:	930c      	str	r3, [sp, #48]	; 0x30
    5682:	9b0c      	ldr	r3, [sp, #48]	; 0x30
    5684:	07da      	lsls	r2, r3, #31
    5686:	d5fa      	bpl.n	567e <PkaSum2ScalarMullt+0x112>
    5688:	4b2a      	ldr	r3, [pc, #168]	; (5734 <PkaSum2ScalarMullt+0x1c8>)
    568a:	e7cf      	b.n	562c <PkaSum2ScalarMullt+0xc0>
    568c:	682b      	ldr	r3, [r5, #0]
    568e:	930d      	str	r3, [sp, #52]	; 0x34
    5690:	9b0d      	ldr	r3, [sp, #52]	; 0x34
    5692:	07db      	lsls	r3, r3, #31
    5694:	d5fa      	bpl.n	568c <PkaSum2ScalarMullt+0x120>
    5696:	4b28      	ldr	r3, [pc, #160]	; (5738 <PkaSum2ScalarMullt+0x1cc>)
    5698:	6023      	str	r3, [r4, #0]
    569a:	682b      	ldr	r3, [r5, #0]
    569c:	930e      	str	r3, [sp, #56]	; 0x38
    569e:	9b0e      	ldr	r3, [sp, #56]	; 0x38
    56a0:	07d8      	lsls	r0, r3, #31
    56a2:	d5fa      	bpl.n	569a <PkaSum2ScalarMullt+0x12e>
    56a4:	4b25      	ldr	r3, [pc, #148]	; (573c <PkaSum2ScalarMullt+0x1d0>)
    56a6:	e7c1      	b.n	562c <PkaSum2ScalarMullt+0xc0>
    56a8:	ab03      	add	r3, sp, #12
    56aa:	aa01      	add	r2, sp, #4
    56ac:	4639      	mov	r1, r7
    56ae:	2012      	movs	r0, #18
    56b0:	f7ff f8c6 	bl	4840 <PkaGetNextMsBit>
    56b4:	ab04      	add	r3, sp, #16
    56b6:	4604      	mov	r4, r0
    56b8:	aa02      	add	r2, sp, #8
    56ba:	4639      	mov	r1, r7
    56bc:	2013      	movs	r0, #19
    56be:	f7ff f8bf 	bl	4840 <PkaGetNextMsBit>
    56c2:	eb10 0444 	adds.w	r4, r0, r4, lsl #1
    56c6:	d102      	bne.n	56ce <PkaSum2ScalarMullt+0x162>
    56c8:	f7ff fc12 	bl	4ef0 <PkaDoubleMdf2Mdf>
    56cc:	e7c4      	b.n	5658 <PkaSum2ScalarMullt+0xec>
    56ce:	f7ff fce5 	bl	509c <PkaDoubleMdf2Jcb>
    56d2:	2c02      	cmp	r4, #2
    56d4:	d008      	beq.n	56e8 <PkaSum2ScalarMullt+0x17c>
    56d6:	2c03      	cmp	r4, #3
    56d8:	d009      	beq.n	56ee <PkaSum2ScalarMullt+0x182>
    56da:	2c01      	cmp	r4, #1
    56dc:	d110      	bne.n	5700 <PkaSum2ScalarMullt+0x194>
    56de:	2117      	movs	r1, #23
    56e0:	2016      	movs	r0, #22
    56e2:	f7ff fd97 	bl	5214 <PkaAddJcbAfn2Mdf>
    56e6:	e7b7      	b.n	5658 <PkaSum2ScalarMullt+0xec>
    56e8:	2115      	movs	r1, #21
    56ea:	2014      	movs	r0, #20
    56ec:	e7f9      	b.n	56e2 <PkaSum2ScalarMullt+0x176>
    56ee:	210f      	movs	r1, #15
    56f0:	200e      	movs	r0, #14
    56f2:	e7f6      	b.n	56e2 <PkaSum2ScalarMullt+0x176>
    56f4:	4e12      	ldr	r6, [pc, #72]	; (5740 <PkaSum2ScalarMullt+0x1d4>)
    56f6:	e7b7      	b.n	5668 <PkaSum2ScalarMullt+0xfc>
    56f8:	4e12      	ldr	r6, [pc, #72]	; (5744 <PkaSum2ScalarMullt+0x1d8>)
    56fa:	e7b5      	b.n	5668 <PkaSum2ScalarMullt+0xfc>
    56fc:	4e12      	ldr	r6, [pc, #72]	; (5748 <PkaSum2ScalarMullt+0x1dc>)
    56fe:	e7b3      	b.n	5668 <PkaSum2ScalarMullt+0xfc>
    5700:	4e12      	ldr	r6, [pc, #72]	; (574c <PkaSum2ScalarMullt+0x1e0>)
    5702:	e7b1      	b.n	5668 <PkaSum2ScalarMullt+0xfc>
    5704:	508410b0 	.word	0x508410b0
    5708:	514a0800 	.word	0x514a0800
    570c:	50841080 	.word	0x50841080
    5710:	508410b4 	.word	0x508410b4
    5714:	50841088 	.word	0x50841088
    5718:	514e0800 	.word	0x514e0800
    571c:	495a0600 	.word	0x495a0600
    5720:	495e0640 	.word	0x495e0640
    5724:	41420400 	.word	0x41420400
    5728:	49421400 	.word	0x49421400
    572c:	492e0440 	.word	0x492e0440
    5730:	49520600 	.word	0x49520600
    5734:	49560640 	.word	0x49560640
    5738:	493a0600 	.word	0x493a0600
    573c:	493e0640 	.word	0x493e0640
    5740:	00f10806 	.word	0x00f10806
    5744:	00f10807 	.word	0x00f10807
    5748:	00f10804 	.word	0x00f10804
    574c:	00f10805 	.word	0x00f10805

00005750 <SaSi_HalClearInterruptBit>:
    5750:	4b01      	ldr	r3, [pc, #4]	; (5758 <SaSi_HalClearInterruptBit+0x8>)
    5752:	6018      	str	r0, [r3, #0]
    5754:	4770      	bx	lr
    5756:	bf00      	nop
    5758:	50841a08 	.word	0x50841a08

0000575c <SaSi_HalMaskInterrupt>:
    575c:	4b01      	ldr	r3, [pc, #4]	; (5764 <SaSi_HalMaskInterrupt+0x8>)
    575e:	6018      	str	r0, [r3, #0]
    5760:	4770      	bx	lr
    5762:	bf00      	nop
    5764:	50841a04 	.word	0x50841a04

00005768 <SaSi_HalWaitInterrupt>:
    5768:	4a03      	ldr	r2, [pc, #12]	; (5778 <SaSi_HalWaitInterrupt+0x10>)
    576a:	6813      	ldr	r3, [r2, #0]
    576c:	4218      	tst	r0, r3
    576e:	d0fc      	beq.n	576a <SaSi_HalWaitInterrupt+0x2>
    5770:	4a02      	ldr	r2, [pc, #8]	; (577c <SaSi_HalWaitInterrupt+0x14>)
    5772:	6010      	str	r0, [r2, #0]
    5774:	4618      	mov	r0, r3
    5776:	4770      	bx	lr
    5778:	50841a00 	.word	0x50841a00
    577c:	50841a08 	.word	0x50841a08

00005780 <flash_area_id_from_multi_image_slot>:
    switch (slot) {
    5780:	b129      	cbz	r1, 578e <flash_area_id_from_multi_image_slot+0xe>
    return -EINVAL; /* flash_area_open will fail on that */
    5782:	2901      	cmp	r1, #1
    5784:	bf0c      	ite	eq
    5786:	2009      	moveq	r0, #9
    5788:	f06f 0015 	mvnne.w	r0, #21
    578c:	4770      	bx	lr
    case 0: return FLASH_AREA_IMAGE_PRIMARY(image_index);
    578e:	2003      	movs	r0, #3
}
    5790:	4770      	bx	lr

00005792 <flash_area_get_device_id>:

uint8_t flash_area_get_device_id(const struct flash_area *fa)
{
	(void)fa;
	return FLASH_DEVICE_ID;
}
    5792:	2000      	movs	r0, #0
    5794:	4770      	bx	lr

00005796 <os_heap_init>:
    mbedtls_memory_buffer_alloc_init(mempool, sizeof(mempool));
}
#else
void os_heap_init(void)
{
}
    5796:	4770      	bx	lr

00005798 <bootutil_tlv_iter_begin>:
 *          -1 on errors
 */
int
bootutil_tlv_iter_begin(struct image_tlv_iter *it, const struct image_header *hdr,
                        const struct flash_area *fap, uint16_t type, bool prot)
{
    5798:	e92d 43f7 	stmdb	sp!, {r0, r1, r2, r4, r5, r6, r7, r8, r9, lr}
    579c:	460e      	mov	r6, r1
    579e:	4617      	mov	r7, r2
    57a0:	4699      	mov	r9, r3
    uint32_t off_;
    struct image_tlv_info info;

    if (it == NULL || hdr == NULL || fap == NULL) {
    57a2:	4604      	mov	r4, r0
    57a4:	b928      	cbnz	r0, 57b2 <bootutil_tlv_iter_begin+0x1a>
        return -1;
    57a6:	f04f 38ff 	mov.w	r8, #4294967295	; 0xffffffff
    it->prot_end = off_ + it->hdr->ih_protect_tlv_size;
    it->tlv_end = off_ + it->hdr->ih_protect_tlv_size + info.it_tlv_tot;
    // position on first TLV
    it->tlv_off = off_ + sizeof(info);
    return 0;
}
    57aa:	4640      	mov	r0, r8
    57ac:	b003      	add	sp, #12
    57ae:	e8bd 83f0 	ldmia.w	sp!, {r4, r5, r6, r7, r8, r9, pc}
    if (it == NULL || hdr == NULL || fap == NULL) {
    57b2:	2900      	cmp	r1, #0
    57b4:	d0f7      	beq.n	57a6 <bootutil_tlv_iter_begin+0xe>
    57b6:	2a00      	cmp	r2, #0
    57b8:	d0f5      	beq.n	57a6 <bootutil_tlv_iter_begin+0xe>
    off_ = BOOT_TLV_OFF(hdr);
    57ba:	68cb      	ldr	r3, [r1, #12]
    57bc:	890d      	ldrh	r5, [r1, #8]
    if (LOAD_IMAGE_DATA(hdr, fap, off_, &info, sizeof(info))) {
    57be:	4638      	mov	r0, r7
    off_ = BOOT_TLV_OFF(hdr);
    57c0:	441d      	add	r5, r3
    if (LOAD_IMAGE_DATA(hdr, fap, off_, &info, sizeof(info))) {
    57c2:	2304      	movs	r3, #4
    57c4:	4629      	mov	r1, r5
    57c6:	eb0d 0203 	add.w	r2, sp, r3
    57ca:	f000 fc49 	bl	6060 <flash_area_read>
    57ce:	4680      	mov	r8, r0
    57d0:	2800      	cmp	r0, #0
    57d2:	d1e8      	bne.n	57a6 <bootutil_tlv_iter_begin+0xe>
    if (info.it_magic == IMAGE_TLV_PROT_INFO_MAGIC) {
    57d4:	f646 1208 	movw	r2, #26888	; 0x6908
    57d8:	f8bd 1004 	ldrh.w	r1, [sp, #4]
        if (hdr->ih_protect_tlv_size != info.it_tlv_tot) {
    57dc:	8973      	ldrh	r3, [r6, #10]
    if (info.it_magic == IMAGE_TLV_PROT_INFO_MAGIC) {
    57de:	4291      	cmp	r1, r2
    57e0:	d125      	bne.n	582e <bootutil_tlv_iter_begin+0x96>
        if (hdr->ih_protect_tlv_size != info.it_tlv_tot) {
    57e2:	f8bd 1006 	ldrh.w	r1, [sp, #6]
    57e6:	4299      	cmp	r1, r3
    57e8:	d1dd      	bne.n	57a6 <bootutil_tlv_iter_begin+0xe>
        if (LOAD_IMAGE_DATA(hdr, fap, off_ + info.it_tlv_tot,
    57ea:	2304      	movs	r3, #4
    57ec:	4638      	mov	r0, r7
    57ee:	eb0d 0203 	add.w	r2, sp, r3
    57f2:	4429      	add	r1, r5
    57f4:	f000 fc34 	bl	6060 <flash_area_read>
    57f8:	2800      	cmp	r0, #0
    57fa:	d1d4      	bne.n	57a6 <bootutil_tlv_iter_begin+0xe>
    if (info.it_magic != IMAGE_TLV_INFO_MAGIC) {
    57fc:	f646 1307 	movw	r3, #26887	; 0x6907
    5800:	f8bd 2004 	ldrh.w	r2, [sp, #4]
    5804:	429a      	cmp	r2, r3
    5806:	d1ce      	bne.n	57a6 <bootutil_tlv_iter_begin+0xe>
    it->fap = fap;
    5808:	e9c4 6700 	strd	r6, r7, [r4]
    it->prot = prot;
    580c:	f89d 3028 	ldrb.w	r3, [sp, #40]	; 0x28
    it->type = type;
    5810:	f8a4 9008 	strh.w	r9, [r4, #8]
    it->prot = prot;
    5814:	72a3      	strb	r3, [r4, #10]
    it->prot_end = off_ + it->hdr->ih_protect_tlv_size;
    5816:	8973      	ldrh	r3, [r6, #10]
    it->tlv_end = off_ + it->hdr->ih_protect_tlv_size + info.it_tlv_tot;
    5818:	f8bd 2006 	ldrh.w	r2, [sp, #6]
    it->prot_end = off_ + it->hdr->ih_protect_tlv_size;
    581c:	442b      	add	r3, r5
    581e:	60e3      	str	r3, [r4, #12]
    it->tlv_end = off_ + it->hdr->ih_protect_tlv_size + info.it_tlv_tot;
    5820:	8973      	ldrh	r3, [r6, #10]
    5822:	4413      	add	r3, r2
    5824:	442b      	add	r3, r5
    it->tlv_off = off_ + sizeof(info);
    5826:	3504      	adds	r5, #4
    it->tlv_end = off_ + it->hdr->ih_protect_tlv_size + info.it_tlv_tot;
    5828:	6163      	str	r3, [r4, #20]
    it->tlv_off = off_ + sizeof(info);
    582a:	6125      	str	r5, [r4, #16]
    return 0;
    582c:	e7bd      	b.n	57aa <bootutil_tlv_iter_begin+0x12>
    } else if (hdr->ih_protect_tlv_size != 0) {
    582e:	2b00      	cmp	r3, #0
    5830:	d0e4      	beq.n	57fc <bootutil_tlv_iter_begin+0x64>
    5832:	e7b8      	b.n	57a6 <bootutil_tlv_iter_begin+0xe>

00005834 <bootutil_tlv_iter_next>:
 *          -1 on errors
 */
int
bootutil_tlv_iter_next(struct image_tlv_iter *it, uint32_t *off, uint16_t *len,
                       uint16_t *type)
{
    5834:	e92d 41f3 	stmdb	sp!, {r0, r1, r4, r5, r6, r7, r8, lr}
    5838:	460e      	mov	r6, r1
    583a:	4617      	mov	r7, r2
    583c:	461d      	mov	r5, r3
    struct image_tlv tlv;
    int rc;

    if (it == NULL || it->hdr == NULL || it->fap == NULL) {
    583e:	4604      	mov	r4, r0
    5840:	b920      	cbnz	r0, 584c <bootutil_tlv_iter_next+0x18>
        return -1;
    5842:	f04f 30ff 	mov.w	r0, #4294967295	; 0xffffffff

        it->tlv_off += sizeof(tlv) + tlv.it_len;
    }

    return 1;
}
    5846:	b002      	add	sp, #8
    5848:	e8bd 81f0 	ldmia.w	sp!, {r4, r5, r6, r7, r8, pc}
    if (it == NULL || it->hdr == NULL || it->fap == NULL) {
    584c:	6803      	ldr	r3, [r0, #0]
    584e:	2b00      	cmp	r3, #0
    5850:	d0f7      	beq.n	5842 <bootutil_tlv_iter_next+0xe>
    5852:	6843      	ldr	r3, [r0, #4]
    5854:	2b00      	cmp	r3, #0
    5856:	d0f4      	beq.n	5842 <bootutil_tlv_iter_next+0xe>
        if (it->type == IMAGE_TLV_ANY || tlv.it_type == it->type) {
    5858:	f64f 78ff 	movw	r8, #65535	; 0xffff
    while (it->tlv_off < it->tlv_end) {
    585c:	e9d4 2304 	ldrd	r2, r3, [r4, #16]
    5860:	429a      	cmp	r2, r3
    5862:	d216      	bcs.n	5892 <bootutil_tlv_iter_next+0x5e>
        if (it->hdr->ih_protect_tlv_size > 0 && it->tlv_off == it->prot_end) {
    5864:	6823      	ldr	r3, [r4, #0]
    5866:	895b      	ldrh	r3, [r3, #10]
    5868:	b123      	cbz	r3, 5874 <bootutil_tlv_iter_next+0x40>
    586a:	68e3      	ldr	r3, [r4, #12]
    586c:	4293      	cmp	r3, r2
            it->tlv_off += sizeof(struct image_tlv_info);
    586e:	bf04      	itt	eq
    5870:	3304      	addeq	r3, #4
    5872:	6123      	streq	r3, [r4, #16]
        rc = LOAD_IMAGE_DATA(it->hdr, it->fap, it->tlv_off, &tlv, sizeof tlv);
    5874:	2304      	movs	r3, #4
    5876:	6921      	ldr	r1, [r4, #16]
    5878:	6860      	ldr	r0, [r4, #4]
    587a:	eb0d 0203 	add.w	r2, sp, r3
    587e:	f000 fbef 	bl	6060 <flash_area_read>
        if (rc) {
    5882:	2800      	cmp	r0, #0
    5884:	d1dd      	bne.n	5842 <bootutil_tlv_iter_next+0xe>
        if (it->prot && it->tlv_off >= it->prot_end) {
    5886:	7aa3      	ldrb	r3, [r4, #10]
    5888:	b12b      	cbz	r3, 5896 <bootutil_tlv_iter_next+0x62>
    588a:	e9d4 3203 	ldrd	r3, r2, [r4, #12]
    588e:	429a      	cmp	r2, r3
    5890:	d301      	bcc.n	5896 <bootutil_tlv_iter_next+0x62>
            return 1;
    5892:	2001      	movs	r0, #1
    5894:	e7d7      	b.n	5846 <bootutil_tlv_iter_next+0x12>
        if (it->type == IMAGE_TLV_ANY || tlv.it_type == it->type) {
    5896:	8923      	ldrh	r3, [r4, #8]
        it->tlv_off += sizeof(tlv) + tlv.it_len;
    5898:	f8bd 1006 	ldrh.w	r1, [sp, #6]
        if (it->type == IMAGE_TLV_ANY || tlv.it_type == it->type) {
    589c:	4543      	cmp	r3, r8
    589e:	f101 0204 	add.w	r2, r1, #4
    58a2:	d003      	beq.n	58ac <bootutil_tlv_iter_next+0x78>
    58a4:	f8bd c004 	ldrh.w	ip, [sp, #4]
    58a8:	459c      	cmp	ip, r3
    58aa:	d10b      	bne.n	58c4 <bootutil_tlv_iter_next+0x90>
            if (type != NULL) {
    58ac:	b115      	cbz	r5, 58b4 <bootutil_tlv_iter_next+0x80>
                *type = tlv.it_type;
    58ae:	f8bd 3004 	ldrh.w	r3, [sp, #4]
    58b2:	802b      	strh	r3, [r5, #0]
            *off = it->tlv_off + sizeof(tlv);
    58b4:	6923      	ldr	r3, [r4, #16]
    58b6:	3304      	adds	r3, #4
    58b8:	6033      	str	r3, [r6, #0]
            *len = tlv.it_len;
    58ba:	8039      	strh	r1, [r7, #0]
            it->tlv_off += sizeof(tlv) + tlv.it_len;
    58bc:	6923      	ldr	r3, [r4, #16]
    58be:	4413      	add	r3, r2
    58c0:	6123      	str	r3, [r4, #16]
            return 0;
    58c2:	e7c0      	b.n	5846 <bootutil_tlv_iter_next+0x12>
        it->tlv_off += sizeof(tlv) + tlv.it_len;
    58c4:	6923      	ldr	r3, [r4, #16]
    58c6:	4413      	add	r3, r2
    58c8:	6123      	str	r3, [r4, #16]
    58ca:	e7c7      	b.n	585c <bootutil_tlv_iter_next+0x28>

000058cc <bootutil_read_bigint>:
{
    58cc:	b573      	push	{r0, r1, r4, r5, r6, lr}
    58ce:	460c      	mov	r4, r1
    58d0:	4606      	mov	r6, r0
    58d2:	4611      	mov	r1, r2
    if (mbedtls_asn1_get_tag(cp, end, &len, MBEDTLS_ASN1_INTEGER)) {
    58d4:	2302      	movs	r3, #2
    58d6:	4620      	mov	r0, r4
    58d8:	aa01      	add	r2, sp, #4
    58da:	f000 fa3c 	bl	5d56 <mbedtls_asn1_get_tag>
    58de:	4605      	mov	r5, r0
    58e0:	b9e8      	cbnz	r0, 591e <bootutil_read_bigint+0x52>
    if (len >= NUM_ECC_BYTES) {
    58e2:	9a01      	ldr	r2, [sp, #4]
    58e4:	2a1f      	cmp	r2, #31
    58e6:	d90e      	bls.n	5906 <bootutil_read_bigint+0x3a>
        memcpy(i, *cp + len - NUM_ECC_BYTES, NUM_ECC_BYTES);
    58e8:	f1a2 0120 	sub.w	r1, r2, #32
    58ec:	4630      	mov	r0, r6
    58ee:	2220      	movs	r2, #32
    58f0:	6823      	ldr	r3, [r4, #0]
    58f2:	4419      	add	r1, r3
        memcpy(i + NUM_ECC_BYTES - len, *cp, len);
    58f4:	f000 fc4f 	bl	6196 <memcpy>
    *cp += len;
    58f8:	6823      	ldr	r3, [r4, #0]
    58fa:	9a01      	ldr	r2, [sp, #4]
    58fc:	4413      	add	r3, r2
    58fe:	6023      	str	r3, [r4, #0]
}
    5900:	4628      	mov	r0, r5
    5902:	b002      	add	sp, #8
    5904:	bd70      	pop	{r4, r5, r6, pc}
        memset(i, 0, NUM_ECC_BYTES - len);
    5906:	4601      	mov	r1, r0
    5908:	f1c2 0220 	rsb	r2, r2, #32
    590c:	4630      	mov	r0, r6
    590e:	f000 fc4d 	bl	61ac <memset>
        memcpy(i + NUM_ECC_BYTES - len, *cp, len);
    5912:	9a01      	ldr	r2, [sp, #4]
    5914:	6821      	ldr	r1, [r4, #0]
    5916:	f1c2 0020 	rsb	r0, r2, #32
    591a:	4430      	add	r0, r6
    591c:	e7ea      	b.n	58f4 <bootutil_read_bigint+0x28>
        return -3;
    591e:	f06f 0502 	mvn.w	r5, #2
    5922:	e7ed      	b.n	5900 <bootutil_read_bigint+0x34>

00005924 <boot_fih_memequal>:
    return memcmp(s1, s2, n);
    5924:	f000 bc27 	b.w	6176 <memcmp>

00005928 <boot_trailer_sz>:
    return BOOT_STATUS_MAX_ENTRIES * boot_status_entry_sz(min_write_sz);
    5928:	f44f 73c0 	mov.w	r3, #384	; 0x180
    592c:	4358      	muls	r0, r3
}
    592e:	3030      	adds	r0, #48	; 0x30
    5930:	4770      	bx	lr

00005932 <boot_status_entries>:
	return fa->fa_id;
    5932:	780b      	ldrb	r3, [r1, #0]
    if (flash_area_get_id(fap) == FLASH_AREA_IMAGE_PRIMARY(image_index) ||
    5934:	2b03      	cmp	r3, #3
    5936:	d006      	beq.n	5946 <boot_status_entries+0x14>
        return BOOT_STATUS_STATE_COUNT * BOOT_STATUS_MAX_ENTRIES;
    5938:	2b09      	cmp	r3, #9
    593a:	bf14      	ite	ne
    593c:	f04f 30ff 	movne.w	r0, #4294967295	; 0xffffffff
    5940:	f44f 70c0 	moveq.w	r0, #384	; 0x180
    5944:	4770      	bx	lr
    5946:	f44f 70c0 	mov.w	r0, #384	; 0x180
}
    594a:	4770      	bx	lr

0000594c <boot_status_off>:
{
    594c:	b510      	push	{r4, lr}
    594e:	4604      	mov	r4, r0
    elem_sz = flash_area_align(fap);
    5950:	f000 fbc6 	bl	60e0 <flash_area_align>
}
    5954:	f44f 72c0 	mov.w	r2, #384	; 0x180
    return flash_area_get_size(fap) - off_from_end;
    5958:	68a3      	ldr	r3, [r4, #8]
    595a:	3b30      	subs	r3, #48	; 0x30
}
    595c:	fb02 3010 	mls	r0, r2, r0, r3
    5960:	bd10      	pop	{r4, pc}

00005962 <boot_write_copy_done>:
    return ALIGN_DOWN(boot_magic_off(fap) - BOOT_MAX_ALIGN, BOOT_MAX_ALIGN);
    5962:	6881      	ldr	r1, [r0, #8]
    return boot_write_trailer_flag(fap, off, BOOT_FLAG_SET);
    5964:	2201      	movs	r2, #1
    return ALIGN_DOWN(boot_magic_off(fap) - BOOT_MAX_ALIGN, BOOT_MAX_ALIGN);
    5966:	3918      	subs	r1, #24
    5968:	f021 0107 	bic.w	r1, r1, #7
    return boot_write_trailer_flag(fap, off, BOOT_FLAG_SET);
    596c:	3908      	subs	r1, #8
    596e:	f000 be9d 	b.w	66ac <boot_write_trailer_flag>

00005972 <boot_write_swap_size>:
{
    5972:	b513      	push	{r0, r1, r4, lr}
    5974:	4604      	mov	r4, r0
    5976:	9101      	str	r1, [sp, #4]
    return boot_swap_info_off(fap) - BOOT_MAX_ALIGN;
    5978:	f000 fe29 	bl	65ce <boot_swap_info_off>
    return boot_write_trailer(fap, off, (const uint8_t *) &swap_size, 4);
    597c:	2304      	movs	r3, #4
    597e:	f1a0 0108 	sub.w	r1, r0, #8
    5982:	eb0d 0203 	add.w	r2, sp, r3
    5986:	4620      	mov	r0, r4
    5988:	f000 fe64 	bl	6654 <boot_write_trailer>
}
    598c:	b002      	add	sp, #8
    598e:	bd10      	pop	{r4, pc}

00005990 <boot_read_image_headers>:
{
    5990:	b570      	push	{r4, r5, r6, lr}
            rc = boot_read_image_header(state, i, boot_img_hdr(state, i), bs);
    5992:	4613      	mov	r3, r2
{
    5994:	460e      	mov	r6, r1
    5996:	4615      	mov	r5, r2
            rc = boot_read_image_header(state, i, boot_img_hdr(state, i), bs);
    5998:	2100      	movs	r1, #0
    599a:	4602      	mov	r2, r0
{
    599c:	4604      	mov	r4, r0
            rc = boot_read_image_header(state, i, boot_img_hdr(state, i), bs);
    599e:	f7fb f9e5 	bl	d6c <boot_read_image_header>
        if (rc != 0) {
    59a2:	b950      	cbnz	r0, 59ba <boot_read_image_headers+0x2a>
            rc = boot_read_image_header(state, i, boot_img_hdr(state, i), bs);
    59a4:	462b      	mov	r3, r5
    59a6:	2101      	movs	r1, #1
    59a8:	4620      	mov	r0, r4
    59aa:	f104 022c 	add.w	r2, r4, #44	; 0x2c
    59ae:	f7fb f9dd 	bl	d6c <boot_read_image_header>
        if (rc != 0) {
    59b2:	b110      	cbz	r0, 59ba <boot_read_image_headers+0x2a>
                return 0;
    59b4:	2e00      	cmp	r6, #0
    59b6:	bf08      	it	eq
    59b8:	2000      	moveq	r0, #0
}
    59ba:	bd70      	pop	{r4, r5, r6, pc}

000059bc <boot_read_image_size.constprop.0.isra.0>:
boot_read_image_size(struct boot_loader_state *state, int slot, uint32_t *size)
    59bc:	b573      	push	{r0, r1, r4, r5, r6, lr}
    59be:	4604      	mov	r4, r0
    area_id = flash_area_id_from_multi_image_slot(BOOT_CURR_IMG(state), slot);
    59c0:	2000      	movs	r0, #0
boot_read_image_size(struct boot_loader_state *state, int slot, uint32_t *size)
    59c2:	460d      	mov	r5, r1
    59c4:	4616      	mov	r6, r2
    area_id = flash_area_id_from_multi_image_slot(BOOT_CURR_IMG(state), slot);
    59c6:	f7ff fedb 	bl	5780 <flash_area_id_from_multi_image_slot>
    rc = flash_area_open(area_id, &fap);
    59ca:	4669      	mov	r1, sp
    59cc:	b2c0      	uxtb	r0, r0
    59ce:	f7fc f887 	bl	1ae0 <flash_area_open>
    if (rc != 0) {
    59d2:	bb30      	cbnz	r0, 5a22 <boot_read_image_size.constprop.0.isra.0+0x66>
    off = BOOT_TLV_OFF(boot_img_hdr(state, slot));
    59d4:	232c      	movs	r3, #44	; 0x2c
    59d6:	fb03 4405 	mla	r4, r3, r5, r4
    59da:	68e3      	ldr	r3, [r4, #12]
    59dc:	8925      	ldrh	r5, [r4, #8]
    if (flash_area_read(fap, off, &info, sizeof(info))) {
    59de:	9800      	ldr	r0, [sp, #0]
    off = BOOT_TLV_OFF(boot_img_hdr(state, slot));
    59e0:	441d      	add	r5, r3
    if (flash_area_read(fap, off, &info, sizeof(info))) {
    59e2:	2304      	movs	r3, #4
    59e4:	4629      	mov	r1, r5
    59e6:	eb0d 0203 	add.w	r2, sp, r3
    59ea:	f000 fb39 	bl	6060 <flash_area_read>
    59ee:	b9c0      	cbnz	r0, 5a22 <boot_read_image_size.constprop.0.isra.0+0x66>
    if (info.it_magic == IMAGE_TLV_PROT_INFO_MAGIC) {
    59f0:	f646 1308 	movw	r3, #26888	; 0x6908
    59f4:	f8bd 2004 	ldrh.w	r2, [sp, #4]
    protect_tlv_size = boot_img_hdr(state, slot)->ih_protect_tlv_size;
    59f8:	8964      	ldrh	r4, [r4, #10]
    if (info.it_magic == IMAGE_TLV_PROT_INFO_MAGIC) {
    59fa:	429a      	cmp	r2, r3
        if (flash_area_read(fap, off + info.it_tlv_tot, &info, sizeof(info))) {
    59fc:	9800      	ldr	r0, [sp, #0]
    if (info.it_magic == IMAGE_TLV_PROT_INFO_MAGIC) {
    59fe:	d115      	bne.n	5a2c <boot_read_image_size.constprop.0.isra.0+0x70>
        if (protect_tlv_size != info.it_tlv_tot) {
    5a00:	f8bd 3006 	ldrh.w	r3, [sp, #6]
    5a04:	429c      	cmp	r4, r3
    5a06:	d10c      	bne.n	5a22 <boot_read_image_size.constprop.0.isra.0+0x66>
        if (flash_area_read(fap, off + info.it_tlv_tot, &info, sizeof(info))) {
    5a08:	2304      	movs	r3, #4
    5a0a:	1961      	adds	r1, r4, r5
    5a0c:	eb0d 0203 	add.w	r2, sp, r3
    5a10:	f000 fb26 	bl	6060 <flash_area_read>
    5a14:	b928      	cbnz	r0, 5a22 <boot_read_image_size.constprop.0.isra.0+0x66>
    if (info.it_magic != IMAGE_TLV_INFO_MAGIC) {
    5a16:	f646 1307 	movw	r3, #26887	; 0x6907
    5a1a:	f8bd 2004 	ldrh.w	r2, [sp, #4]
    5a1e:	429a      	cmp	r2, r3
    5a20:	d007      	beq.n	5a32 <boot_read_image_size.constprop.0.isra.0+0x76>
    flash_area_close(fap);
    5a22:	9800      	ldr	r0, [sp, #0]
    5a24:	f000 fb1b 	bl	605e <flash_area_close>
}
    5a28:	b002      	add	sp, #8
    5a2a:	bd70      	pop	{r4, r5, r6, pc}
    } else if (protect_tlv_size != 0) {
    5a2c:	2c00      	cmp	r4, #0
    5a2e:	d0f2      	beq.n	5a16 <boot_read_image_size.constprop.0.isra.0+0x5a>
    5a30:	e7f7      	b.n	5a22 <boot_read_image_size.constprop.0.isra.0+0x66>
    *size = off + protect_tlv_size + info.it_tlv_tot;
    5a32:	f8bd 1006 	ldrh.w	r1, [sp, #6]
    5a36:	4421      	add	r1, r4
    5a38:	4429      	add	r1, r5
    5a3a:	6031      	str	r1, [r6, #0]
    rc = 0;
    5a3c:	e7f1      	b.n	5a22 <boot_read_image_size.constprop.0.isra.0+0x66>

00005a3e <boot_read_sectors>:
{
    5a3e:	b537      	push	{r0, r1, r2, r4, r5, lr}
    uint32_t num_sectors = BOOT_MAX_IMG_SECTORS;
    5a40:	2580      	movs	r5, #128	; 0x80
{
    5a42:	4604      	mov	r4, r0
    rc = flash_area_get_sectors(flash_area, &num_sectors, out_sectors);
    5a44:	6a42      	ldr	r2, [r0, #36]	; 0x24
    5a46:	a901      	add	r1, sp, #4
    5a48:	2003      	movs	r0, #3
    uint32_t num_sectors = BOOT_MAX_IMG_SECTORS;
    5a4a:	9501      	str	r5, [sp, #4]
    rc = flash_area_get_sectors(flash_area, &num_sectors, out_sectors);
    5a4c:	f7fc f870 	bl	1b30 <flash_area_get_sectors>
    if (rc != 0) {
    5a50:	b958      	cbnz	r0, 5a6a <boot_read_sectors+0x2c>
    *out_num_sectors = num_sectors;
    5a52:	9b01      	ldr	r3, [sp, #4]
    rc = flash_area_get_sectors(flash_area, &num_sectors, out_sectors);
    5a54:	2009      	movs	r0, #9
    5a56:	6d22      	ldr	r2, [r4, #80]	; 0x50
    *out_num_sectors = num_sectors;
    5a58:	62a3      	str	r3, [r4, #40]	; 0x28
    rc = flash_area_get_sectors(flash_area, &num_sectors, out_sectors);
    5a5a:	a901      	add	r1, sp, #4
    uint32_t num_sectors = BOOT_MAX_IMG_SECTORS;
    5a5c:	9501      	str	r5, [sp, #4]
    rc = flash_area_get_sectors(flash_area, &num_sectors, out_sectors);
    5a5e:	f7fc f867 	bl	1b30 <flash_area_get_sectors>
    if (rc != 0) {
    5a62:	4605      	mov	r5, r0
    5a64:	b128      	cbz	r0, 5a72 <boot_read_sectors+0x34>
        return BOOT_EFLASH_SEC;
    5a66:	2509      	movs	r5, #9
    5a68:	e000      	b.n	5a6c <boot_read_sectors+0x2e>
        return BOOT_EFLASH;
    5a6a:	2501      	movs	r5, #1
}
    5a6c:	4628      	mov	r0, r5
    5a6e:	b003      	add	sp, #12
    5a70:	bd30      	pop	{r4, r5, pc}
    *out_num_sectors = num_sectors;
    5a72:	9b01      	ldr	r3, [sp, #4]
    elem_sz = flash_area_align(BOOT_IMG_AREA(state, BOOT_PRIMARY_SLOT));
    5a74:	6a20      	ldr	r0, [r4, #32]
    *out_num_sectors = num_sectors;
    5a76:	6563      	str	r3, [r4, #84]	; 0x54
    elem_sz = flash_area_align(BOOT_IMG_AREA(state, BOOT_PRIMARY_SLOT));
    5a78:	f000 fb32 	bl	60e0 <flash_area_align>
    BOOT_WRITE_SZ(state) = boot_write_sz(state);
    5a7c:	65e0      	str	r0, [r4, #92]	; 0x5c
    return 0;
    5a7e:	e7f5      	b.n	5a6c <boot_read_sectors+0x2e>

00005a80 <boot_status_reset>:
    bs->idx = BOOT_STATUS_IDX_0;
    5a80:	2301      	movs	r3, #1
    5a82:	6003      	str	r3, [r0, #0]
    bs->state = BOOT_STATUS_STATE_0;
    5a84:	f103 2301 	add.w	r3, r3, #16777472	; 0x1000100
    5a88:	6043      	str	r3, [r0, #4]
    bs->swap_size = 0;
    5a8a:	2300      	movs	r3, #0
    bs->source = 0;
    5a8c:	e9c0 3302 	strd	r3, r3, [r0, #8]
}
    5a90:	4770      	bx	lr

00005a92 <boot_status_is_reset>:
            bs->idx == BOOT_STATUS_IDX_0 &&
    5a92:	7943      	ldrb	r3, [r0, #5]
    5a94:	2b01      	cmp	r3, #1
    5a96:	d107      	bne.n	5aa8 <boot_status_is_reset+0x16>
    return (bs->op == BOOT_STATUS_OP_MOVE &&
    5a98:	6803      	ldr	r3, [r0, #0]
    5a9a:	2b01      	cmp	r3, #1
    5a9c:	d104      	bne.n	5aa8 <boot_status_is_reset+0x16>
            bs->idx == BOOT_STATUS_IDX_0 &&
    5a9e:	7900      	ldrb	r0, [r0, #4]
    5aa0:	1e43      	subs	r3, r0, #1
    5aa2:	4258      	negs	r0, r3
    5aa4:	4158      	adcs	r0, r3
    5aa6:	4770      	bx	lr
    5aa8:	2000      	movs	r0, #0
}
    5aaa:	4770      	bx	lr

00005aac <boot_write_status>:
{
    5aac:	b57f      	push	{r0, r1, r2, r3, r4, r5, r6, lr}
    5aae:	4606      	mov	r6, r0
    5ab0:	460d      	mov	r5, r1
    rc = flash_area_open(area_id, &fap);
    5ab2:	2003      	movs	r0, #3
    5ab4:	a901      	add	r1, sp, #4
    5ab6:	f7fc f813 	bl	1ae0 <flash_area_open>
    if (rc != 0) {
    5aba:	bb38      	cbnz	r0, 5b0c <boot_write_status+0x60>
    off = boot_status_off(fap) +
    5abc:	9801      	ldr	r0, [sp, #4]
    5abe:	f7ff ff45 	bl	594c <boot_status_off>
          boot_status_internal_off(bs, BOOT_WRITE_SZ(state));
    5ac2:	6df1      	ldr	r1, [r6, #92]	; 0x5c
    off = boot_status_off(fap) +
    5ac4:	4604      	mov	r4, r0
          boot_status_internal_off(bs, BOOT_WRITE_SZ(state));
    5ac6:	4628      	mov	r0, r5
    5ac8:	f000 f8e6 	bl	5c98 <boot_status_internal_off>
    off = boot_status_off(fap) +
    5acc:	4404      	add	r4, r0
    align = flash_area_align(fap);
    5ace:	9801      	ldr	r0, [sp, #4]
    5ad0:	f000 fb06 	bl	60e0 <flash_area_align>
    5ad4:	4606      	mov	r6, r0
    erased_val = flash_area_erased_val(fap);
    5ad6:	9801      	ldr	r0, [sp, #4]
    5ad8:	f000 fb09 	bl	60ee <flash_area_erased_val>
    memset(buf, erased_val, BOOT_MAX_ALIGN);
    5adc:	2208      	movs	r2, #8
    erased_val = flash_area_erased_val(fap);
    5ade:	4601      	mov	r1, r0
    memset(buf, erased_val, BOOT_MAX_ALIGN);
    5ae0:	eb0d 0002 	add.w	r0, sp, r2
    5ae4:	f000 fb62 	bl	61ac <memset>
    buf[0] = bs->state;
    5ae8:	792b      	ldrb	r3, [r5, #4]
    rc = flash_area_write(fap, off, buf, align);
    5aea:	4621      	mov	r1, r4
    buf[0] = bs->state;
    5aec:	f88d 3008 	strb.w	r3, [sp, #8]
    rc = flash_area_write(fap, off, buf, align);
    5af0:	9801      	ldr	r0, [sp, #4]
    5af2:	4633      	mov	r3, r6
    5af4:	aa02      	add	r2, sp, #8
    5af6:	f000 fac8 	bl	608a <flash_area_write>
    if (rc != 0) {
    5afa:	1e04      	subs	r4, r0, #0
    flash_area_close(fap);
    5afc:	9801      	ldr	r0, [sp, #4]
    if (rc != 0) {
    5afe:	bf18      	it	ne
    5b00:	2401      	movne	r4, #1
    flash_area_close(fap);
    5b02:	f000 faac 	bl	605e <flash_area_close>
}
    5b06:	4620      	mov	r0, r4
    5b08:	b004      	add	sp, #16
    5b0a:	bd70      	pop	{r4, r5, r6, pc}
        return BOOT_EFLASH;
    5b0c:	2401      	movs	r4, #1
    5b0e:	e7fa      	b.n	5b06 <boot_write_status+0x5a>

00005b10 <boot_erase_region>:
    return flash_area_erase(fap, off, sz);
    5b10:	f000 bad0 	b.w	60b4 <flash_area_erase>

00005b14 <swap_erase_trailer_sectors>:

#if defined(MCUBOOT_SWAP_USING_SCRATCH) || defined(MCUBOOT_SWAP_USING_MOVE)
int
swap_erase_trailer_sectors(const struct boot_loader_state *state,
                           const struct flash_area *fap)
{
    5b14:	e92d 43f8 	stmdb	sp!, {r3, r4, r5, r6, r7, r8, r9, lr}
    5b18:	460e      	mov	r6, r1
    int rc;

    BOOT_LOG_DBG("erasing trailer; fa_id=%d", flash_area_get_id(fap));

    image_index = BOOT_CURR_IMG(state);
    fa_id_primary = flash_area_id_from_multi_image_slot(image_index,
    5b1a:	2100      	movs	r1, #0
{
    5b1c:	4607      	mov	r7, r0
    fa_id_primary = flash_area_id_from_multi_image_slot(image_index,
    5b1e:	4608      	mov	r0, r1
    5b20:	f7ff fe2e 	bl	5780 <flash_area_id_from_multi_image_slot>
    5b24:	4604      	mov	r4, r0
            BOOT_PRIMARY_SLOT);
    fa_id_secondary = flash_area_id_from_multi_image_slot(image_index,
    5b26:	2101      	movs	r1, #1
    5b28:	2000      	movs	r0, #0
    5b2a:	f7ff fe29 	bl	5780 <flash_area_id_from_multi_image_slot>
            BOOT_SECONDARY_SLOT);

    if (flash_area_get_id(fap) == fa_id_primary) {
    5b2e:	7833      	ldrb	r3, [r6, #0]
    5b30:	429c      	cmp	r4, r3
    5b32:	d021      	beq.n	5b78 <swap_erase_trailer_sectors+0x64>
        slot = BOOT_PRIMARY_SLOT;
    } else if (flash_area_get_id(fap) == fa_id_secondary) {
    5b34:	4298      	cmp	r0, r3
    5b36:	d121      	bne.n	5b7c <swap_erase_trailer_sectors+0x68>
        slot = BOOT_SECONDARY_SLOT;
    5b38:	2501      	movs	r5, #1
    return BOOT_IMG(state, slot).num_sectors;
    5b3a:	232c      	movs	r3, #44	; 0x2c
    5b3c:	fb03 7505 	mla	r5, r3, r5, r7
        return BOOT_EFLASH;
    }

    /* delete starting from last sector and moving to beginning */
    sector = boot_img_num_sectors(state, slot) - 1;
    trailer_sz = boot_trailer_sz(BOOT_WRITE_SZ(state));
    5b40:	6df8      	ldr	r0, [r7, #92]	; 0x5c
    sector = boot_img_num_sectors(state, slot) - 1;
    5b42:	6aac      	ldr	r4, [r5, #40]	; 0x28
    trailer_sz = boot_trailer_sz(BOOT_WRITE_SZ(state));
    5b44:	f7ff fef0 	bl	5928 <boot_trailer_sz>
    total_sz = 0;
    5b48:	f04f 0800 	mov.w	r8, #0
    trailer_sz = boot_trailer_sz(BOOT_WRITE_SZ(state));
    5b4c:	4607      	mov	r7, r0
    sector = boot_img_num_sectors(state, slot) - 1;
    5b4e:	3c01      	subs	r4, #1
    return flash_sector_get_size(&BOOT_IMG(state, slot).sectors[sector]);
    5b50:	6a6b      	ldr	r3, [r5, #36]	; 0x24
    do {
        sz = boot_img_sector_size(state, slot, sector);
        off = boot_img_sector_off(state, slot, sector);
        rc = boot_erase_region(fap, off, sz);
    5b52:	4630      	mov	r0, r6
    5b54:	eb03 02c4 	add.w	r2, r3, r4, lsl #3
    return flash_sector_get_off(&BOOT_IMG(state, slot).sectors[sector]) -
    5b58:	f853 1034 	ldr.w	r1, [r3, r4, lsl #3]
	return fs->fs_size;
    5b5c:	f8d2 9004 	ldr.w	r9, [r2, #4]
    5b60:	681b      	ldr	r3, [r3, #0]
    5b62:	464a      	mov	r2, r9
    5b64:	1ac9      	subs	r1, r1, r3
        assert(rc == 0);

        sector--;
        total_sz += sz;
    5b66:	44c8      	add	r8, r9
        rc = boot_erase_region(fap, off, sz);
    5b68:	f7ff ffd2 	bl	5b10 <boot_erase_region>
    } while (total_sz < trailer_sz);
    5b6c:	45b8      	cmp	r8, r7
        sector--;
    5b6e:	f104 34ff 	add.w	r4, r4, #4294967295	; 0xffffffff
    } while (total_sz < trailer_sz);
    5b72:	d3ed      	bcc.n	5b50 <swap_erase_trailer_sectors+0x3c>

    return rc;
}
    5b74:	e8bd 83f8 	ldmia.w	sp!, {r3, r4, r5, r6, r7, r8, r9, pc}
        slot = BOOT_PRIMARY_SLOT;
    5b78:	2500      	movs	r5, #0
    5b7a:	e7de      	b.n	5b3a <swap_erase_trailer_sectors+0x26>
        return BOOT_EFLASH;
    5b7c:	2001      	movs	r0, #1
    5b7e:	e7f9      	b.n	5b74 <swap_erase_trailer_sectors+0x60>

00005b80 <swap_status_init>:

int
swap_status_init(const struct boot_loader_state *state,
                 const struct flash_area *fap,
                 const struct boot_status *bs)
{
    5b80:	b537      	push	{r0, r1, r2, r4, r5, lr}
    5b82:	4615      	mov	r5, r2
    5b84:	460c      	mov	r4, r1

    image_index = BOOT_CURR_IMG(state);

    BOOT_LOG_DBG("initializing status; fa_id=%d", flash_area_get_id(fap));

    rc = boot_read_swap_state_by_id(FLASH_AREA_IMAGE_SECONDARY(image_index),
    5b86:	2009      	movs	r0, #9
    5b88:	4669      	mov	r1, sp
    5b8a:	f000 fda6 	bl	66da <boot_read_swap_state_by_id>
            &swap_state);
    assert(rc == 0);

    if (bs->swap_type != BOOT_SWAP_TYPE_NONE) {
    5b8e:	79e9      	ldrb	r1, [r5, #7]
    5b90:	2901      	cmp	r1, #1
    5b92:	d003      	beq.n	5b9c <swap_status_init+0x1c>
        rc = boot_write_swap_info(fap, bs->swap_type, image_index);
    5b94:	2200      	movs	r2, #0
    5b96:	4620      	mov	r0, r4
    5b98:	f000 fdb3 	bl	6702 <boot_write_swap_info>
        assert(rc == 0);
    }

    if (swap_state.image_ok == BOOT_FLAG_SET) {
    5b9c:	f89d 3003 	ldrb.w	r3, [sp, #3]
    5ba0:	2b01      	cmp	r3, #1
    5ba2:	d102      	bne.n	5baa <swap_status_init+0x2a>
        rc = boot_write_image_ok(fap);
    5ba4:	4620      	mov	r0, r4
    5ba6:	f000 fd8b 	bl	66c0 <boot_write_image_ok>
        assert(rc == 0);
    }

    rc = boot_write_swap_size(fap, bs->swap_size);
    5baa:	68a9      	ldr	r1, [r5, #8]
    5bac:	4620      	mov	r0, r4
    5bae:	f7ff fee0 	bl	5972 <boot_write_swap_size>

    rc = boot_write_enc_key(fap, 1, bs);
    assert(rc == 0);
#endif

    rc = boot_write_magic(fap);
    5bb2:	4620      	mov	r0, r4
    5bb4:	f7fd fae2 	bl	317c <boot_write_magic>
    assert(rc == 0);

    return 0;
}
    5bb8:	2000      	movs	r0, #0
    5bba:	b003      	add	sp, #12
    5bbc:	bd30      	pop	{r4, r5, pc}

00005bbe <swap_read_status>:

int
swap_read_status(struct boot_loader_state *state, struct boot_status *bs)
{
    5bbe:	b573      	push	{r0, r1, r4, r5, r6, lr}
    5bc0:	460d      	mov	r5, r1
    5bc2:	4606      	mov	r6, r0
    uint32_t off;
    uint8_t swap_info;
    int area_id;
    int rc;

    bs->source = swap_status_source(state);
    5bc4:	f7fb f9ba 	bl	f3c <swap_status_source>
    5bc8:	4604      	mov	r4, r0
    5bca:	60e8      	str	r0, [r5, #12]
    switch (bs->source) {
    5bcc:	b358      	cbz	r0, 5c26 <swap_read_status+0x68>
    5bce:	2802      	cmp	r0, #2
    5bd0:	d12e      	bne.n	5c30 <swap_read_status+0x72>
    default:
        assert(0);
        return BOOT_EBADARGS;
    }

    rc = flash_area_open(area_id, &fap);
    5bd2:	2003      	movs	r0, #3
    5bd4:	a901      	add	r1, sp, #4
    5bd6:	f7fb ff83 	bl	1ae0 <flash_area_open>
    if (rc != 0) {
    5bda:	bb58      	cbnz	r0, 5c34 <swap_read_status+0x76>
        return BOOT_EFLASH;
    }

    rc = swap_read_status_bytes(fap, state, bs);
    5bdc:	462a      	mov	r2, r5
    5bde:	4631      	mov	r1, r6
    5be0:	9801      	ldr	r0, [sp, #4]
    5be2:	f7fb f911 	bl	e08 <swap_read_status_bytes>
    if (rc == 0) {
    5be6:	4604      	mov	r4, r0
    5be8:	b9d0      	cbnz	r0, 5c20 <swap_read_status+0x62>
        off = boot_swap_info_off(fap);
    5bea:	9801      	ldr	r0, [sp, #4]
    5bec:	f000 fcef 	bl	65ce <boot_swap_info_off>
        rc = flash_area_read(fap, off, &swap_info, sizeof swap_info);
    5bf0:	2301      	movs	r3, #1
        off = boot_swap_info_off(fap);
    5bf2:	4601      	mov	r1, r0
        rc = flash_area_read(fap, off, &swap_info, sizeof swap_info);
    5bf4:	f10d 0203 	add.w	r2, sp, #3
    5bf8:	9801      	ldr	r0, [sp, #4]
    5bfa:	f000 fa31 	bl	6060 <flash_area_read>
        if (rc != 0) {
    5bfe:	4604      	mov	r4, r0
    5c00:	b9a0      	cbnz	r0, 5c2c <swap_read_status+0x6e>
            rc = BOOT_EFLASH;
            goto done;
        }

        if (bootutil_buffer_is_erased(fap, &swap_info, sizeof swap_info)) {
    5c02:	2201      	movs	r2, #1
    5c04:	9801      	ldr	r0, [sp, #4]
    5c06:	f10d 0103 	add.w	r1, sp, #3
    5c0a:	f000 fcf4 	bl	65f6 <bootutil_buffer_is_erased>
    5c0e:	b110      	cbz	r0, 5c16 <swap_read_status+0x58>
            BOOT_SET_SWAP_INFO(swap_info, 0, BOOT_SWAP_TYPE_NONE);
    5c10:	2301      	movs	r3, #1
    5c12:	f88d 3003 	strb.w	r3, [sp, #3]
            rc = 0;
        }

        /* Extract the swap type info */
        bs->swap_type = BOOT_GET_SWAP_TYPE(swap_info);
    5c16:	f89d 3003 	ldrb.w	r3, [sp, #3]
    5c1a:	f003 030f 	and.w	r3, r3, #15
    5c1e:	71eb      	strb	r3, [r5, #7]
    }

done:
    flash_area_close(fap);
    5c20:	9801      	ldr	r0, [sp, #4]
    5c22:	f000 fa1c 	bl	605e <flash_area_close>

    return rc;
}
    5c26:	4620      	mov	r0, r4
    5c28:	b002      	add	sp, #8
    5c2a:	bd70      	pop	{r4, r5, r6, pc}
            rc = BOOT_EFLASH;
    5c2c:	2401      	movs	r4, #1
    5c2e:	e7f7      	b.n	5c20 <swap_read_status+0x62>
    switch (bs->source) {
    5c30:	2407      	movs	r4, #7
    5c32:	e7f8      	b.n	5c26 <swap_read_status+0x68>
        return BOOT_EFLASH;
    5c34:	2401      	movs	r4, #1
    5c36:	e7f6      	b.n	5c26 <swap_read_status+0x68>

00005c38 <swap_set_copy_done>:

int
swap_set_copy_done(uint8_t image_index)
{
    5c38:	b513      	push	{r0, r1, r4, lr}
    const struct flash_area *fap;
    int rc;

    rc = flash_area_open(FLASH_AREA_IMAGE_PRIMARY(image_index),
    5c3a:	2003      	movs	r0, #3
    5c3c:	a901      	add	r1, sp, #4
    5c3e:	f7fb ff4f 	bl	1ae0 <flash_area_open>
            &fap);
    if (rc != 0) {
    5c42:	b948      	cbnz	r0, 5c58 <swap_set_copy_done+0x20>
        return BOOT_EFLASH;
    }

    rc = boot_write_copy_done(fap);
    5c44:	9801      	ldr	r0, [sp, #4]
    5c46:	f7ff fe8c 	bl	5962 <boot_write_copy_done>
    5c4a:	4604      	mov	r4, r0
    flash_area_close(fap);
    5c4c:	9801      	ldr	r0, [sp, #4]
    5c4e:	f000 fa06 	bl	605e <flash_area_close>
    return rc;
}
    5c52:	4620      	mov	r0, r4
    5c54:	b002      	add	sp, #8
    5c56:	bd10      	pop	{r4, pc}
        return BOOT_EFLASH;
    5c58:	2401      	movs	r4, #1
    5c5a:	e7fa      	b.n	5c52 <swap_set_copy_done+0x1a>

00005c5c <swap_set_image_ok>:

int
swap_set_image_ok(uint8_t image_index)
{
    5c5c:	b51f      	push	{r0, r1, r2, r3, r4, lr}
    const struct flash_area *fap;
    struct boot_swap_state state;
    int rc;

    rc = flash_area_open(FLASH_AREA_IMAGE_PRIMARY(image_index),
    5c5e:	2003      	movs	r0, #3
    5c60:	a901      	add	r1, sp, #4
    5c62:	f7fb ff3d 	bl	1ae0 <flash_area_open>
            &fap);
    if (rc != 0) {
    5c66:	b9a8      	cbnz	r0, 5c94 <swap_set_image_ok+0x38>
        return BOOT_EFLASH;
    }

    rc = boot_read_swap_state(fap, &state);
    5c68:	9801      	ldr	r0, [sp, #4]
    5c6a:	a902      	add	r1, sp, #8
    5c6c:	f7fd faa6 	bl	31bc <boot_read_swap_state>
    if (rc != 0) {
    5c70:	4604      	mov	r4, r0
    5c72:	b968      	cbnz	r0, 5c90 <swap_set_image_ok+0x34>
        rc = BOOT_EFLASH;
        goto out;
    }

    if (state.image_ok == BOOT_FLAG_UNSET) {
    5c74:	f89d 300b 	ldrb.w	r3, [sp, #11]
    5c78:	2b03      	cmp	r3, #3
    5c7a:	d103      	bne.n	5c84 <swap_set_image_ok+0x28>
        rc = boot_write_image_ok(fap);
    5c7c:	9801      	ldr	r0, [sp, #4]
    5c7e:	f000 fd1f 	bl	66c0 <boot_write_image_ok>
    5c82:	4604      	mov	r4, r0
    }

out:
    flash_area_close(fap);
    5c84:	9801      	ldr	r0, [sp, #4]
    5c86:	f000 f9ea 	bl	605e <flash_area_close>
    return rc;
}
    5c8a:	4620      	mov	r0, r4
    5c8c:	b004      	add	sp, #16
    5c8e:	bd10      	pop	{r4, pc}
        rc = BOOT_EFLASH;
    5c90:	2401      	movs	r4, #1
    5c92:	e7f7      	b.n	5c84 <swap_set_image_ok+0x28>
        return BOOT_EFLASH;
    5c94:	2401      	movs	r4, #1
    5c96:	e7f8      	b.n	5c8a <swap_set_image_ok+0x2e>

00005c98 <boot_status_internal_off>:
{
    5c98:	b510      	push	{r4, lr}
            BOOT_STATUS_MOVE_STATE_COUNT : BOOT_STATUS_SWAP_STATE_COUNT);
    5c9a:	7943      	ldrb	r3, [r0, #5]
           (bs->state - BOOT_STATUS_STATE_0) * elem_sz;
    5c9c:	7902      	ldrb	r2, [r0, #4]
            BOOT_STATUS_MOVE_STATE_COUNT : BOOT_STATUS_SWAP_STATE_COUNT);
    5c9e:	2b01      	cmp	r3, #1
               0 : (BOOT_MAX_IMG_SECTORS * BOOT_STATUS_MOVE_STATE_COUNT * elem_sz)) +
    5ca0:	bf06      	itte	eq
    5ca2:	2300      	moveq	r3, #0
    idx_sz = elem_sz * ((bs->op == BOOT_STATUS_OP_MOVE) ?
    5ca4:	460c      	moveq	r4, r1
               0 : (BOOT_MAX_IMG_SECTORS * BOOT_STATUS_MOVE_STATE_COUNT * elem_sz)) +
    5ca6:	01cb      	lslne	r3, r1, #7
           (bs->state - BOOT_STATUS_STATE_0) * elem_sz;
    5ca8:	f102 32ff 	add.w	r2, r2, #4294967295	; 0xffffffff
    off = ((bs->op == BOOT_STATUS_OP_MOVE) ?
    5cac:	fb01 3302 	mla	r3, r1, r2, r3
           (bs->idx - BOOT_STATUS_IDX_0) * idx_sz +
    5cb0:	6802      	ldr	r2, [r0, #0]
    idx_sz = elem_sz * ((bs->op == BOOT_STATUS_OP_MOVE) ?
    5cb2:	bf18      	it	ne
    5cb4:	004c      	lslne	r4, r1, #1
           (bs->idx - BOOT_STATUS_IDX_0) * idx_sz +
    5cb6:	3a01      	subs	r2, #1
}
    5cb8:	fb04 3002 	mla	r0, r4, r2, r3
    5cbc:	bd10      	pop	{r4, pc}

00005cbe <mbedtls_asn1_get_len>:
 * ASN.1 DER decoding routines
 */
int mbedtls_asn1_get_len( unsigned char **p,
                  const unsigned char *end,
                  size_t *len )
{
    5cbe:	b570      	push	{r4, r5, r6, lr}
    if( ( end - *p ) < 1 )
    5cc0:	6803      	ldr	r3, [r0, #0]
    5cc2:	1acd      	subs	r5, r1, r3
    5cc4:	2d00      	cmp	r5, #0
    5cc6:	dc02      	bgt.n	5cce <mbedtls_asn1_get_len+0x10>
        return( MBEDTLS_ERR_ASN1_OUT_OF_DATA );
    5cc8:	f06f 005f 	mvn.w	r0, #95	; 0x5f

    if( *len > (size_t) ( end - *p ) )
        return( MBEDTLS_ERR_ASN1_OUT_OF_DATA );

    return( 0 );
}
    5ccc:	bd70      	pop	{r4, r5, r6, pc}
    if( ( **p & 0x80 ) == 0 )
    5cce:	f993 6000 	ldrsb.w	r6, [r3]
    5cd2:	781c      	ldrb	r4, [r3, #0]
    5cd4:	2e00      	cmp	r6, #0
    5cd6:	db0a      	blt.n	5cee <mbedtls_asn1_get_len+0x30>
        *len = *(*p)++;
    5cd8:	1c5c      	adds	r4, r3, #1
    5cda:	6004      	str	r4, [r0, #0]
    5cdc:	781b      	ldrb	r3, [r3, #0]
    5cde:	6013      	str	r3, [r2, #0]
    if( *len > (size_t) ( end - *p ) )
    5ce0:	6803      	ldr	r3, [r0, #0]
    5ce2:	1ac9      	subs	r1, r1, r3
    5ce4:	6813      	ldr	r3, [r2, #0]
    5ce6:	428b      	cmp	r3, r1
    5ce8:	d8ee      	bhi.n	5cc8 <mbedtls_asn1_get_len+0xa>
    return( 0 );
    5cea:	2000      	movs	r0, #0
    5cec:	e7ee      	b.n	5ccc <mbedtls_asn1_get_len+0xe>
        switch( **p & 0x7F )
    5cee:	f004 047f 	and.w	r4, r4, #127	; 0x7f
    5cf2:	3c01      	subs	r4, #1
    5cf4:	2c03      	cmp	r4, #3
    5cf6:	d82b      	bhi.n	5d50 <mbedtls_asn1_get_len+0x92>
    5cf8:	e8df f004 	tbb	[pc, r4]
    5cfc:	21140a02 	.word	0x21140a02
            if( ( end - *p ) < 2 )
    5d00:	2d01      	cmp	r5, #1
    5d02:	d0e1      	beq.n	5cc8 <mbedtls_asn1_get_len+0xa>
            *len = (*p)[1];
    5d04:	785b      	ldrb	r3, [r3, #1]
    5d06:	6013      	str	r3, [r2, #0]
            (*p) += 2;
    5d08:	6803      	ldr	r3, [r0, #0]
    5d0a:	3302      	adds	r3, #2
            (*p) += 5;
    5d0c:	6003      	str	r3, [r0, #0]
            break;
    5d0e:	e7e7      	b.n	5ce0 <mbedtls_asn1_get_len+0x22>
            if( ( end - *p ) < 3 )
    5d10:	2d02      	cmp	r5, #2
    5d12:	ddd9      	ble.n	5cc8 <mbedtls_asn1_get_len+0xa>
            *len = ( (size_t)(*p)[1] << 8 ) | (*p)[2];
    5d14:	f8b3 3001 	ldrh.w	r3, [r3, #1]
    5d18:	ba5b      	rev16	r3, r3
    5d1a:	b29b      	uxth	r3, r3
    5d1c:	6013      	str	r3, [r2, #0]
            (*p) += 3;
    5d1e:	6803      	ldr	r3, [r0, #0]
    5d20:	3303      	adds	r3, #3
    5d22:	e7f3      	b.n	5d0c <mbedtls_asn1_get_len+0x4e>
            if( ( end - *p ) < 4 )
    5d24:	2d03      	cmp	r5, #3
    5d26:	ddcf      	ble.n	5cc8 <mbedtls_asn1_get_len+0xa>
                   ( (size_t)(*p)[2] << 8  ) | (*p)[3];
    5d28:	789c      	ldrb	r4, [r3, #2]
            *len = ( (size_t)(*p)[1] << 16 ) |
    5d2a:	785d      	ldrb	r5, [r3, #1]
                   ( (size_t)(*p)[2] << 8  ) | (*p)[3];
    5d2c:	0224      	lsls	r4, r4, #8
    5d2e:	78db      	ldrb	r3, [r3, #3]
            *len = ( (size_t)(*p)[1] << 16 ) |
    5d30:	ea44 4405 	orr.w	r4, r4, r5, lsl #16
                   ( (size_t)(*p)[2] << 8  ) | (*p)[3];
    5d34:	4323      	orrs	r3, r4
            *len = ( (size_t)(*p)[1] << 16 ) |
    5d36:	6013      	str	r3, [r2, #0]
            (*p) += 4;
    5d38:	6803      	ldr	r3, [r0, #0]
    5d3a:	3304      	adds	r3, #4
    5d3c:	e7e6      	b.n	5d0c <mbedtls_asn1_get_len+0x4e>
            if( ( end - *p ) < 5 )
    5d3e:	2d04      	cmp	r5, #4
    5d40:	ddc2      	ble.n	5cc8 <mbedtls_asn1_get_len+0xa>
            *len = ( (size_t)(*p)[1] << 24 ) | ( (size_t)(*p)[2] << 16 ) |
    5d42:	f8d3 3001 	ldr.w	r3, [r3, #1]
    5d46:	ba1b      	rev	r3, r3
    5d48:	6013      	str	r3, [r2, #0]
            (*p) += 5;
    5d4a:	6803      	ldr	r3, [r0, #0]
    5d4c:	3305      	adds	r3, #5
    5d4e:	e7dd      	b.n	5d0c <mbedtls_asn1_get_len+0x4e>
        switch( **p & 0x7F )
    5d50:	f06f 0063 	mvn.w	r0, #99	; 0x63
    5d54:	e7ba      	b.n	5ccc <mbedtls_asn1_get_len+0xe>

00005d56 <mbedtls_asn1_get_tag>:

int mbedtls_asn1_get_tag( unsigned char **p,
                  const unsigned char *end,
                  size_t *len, int tag )
{
    5d56:	b470      	push	{r4, r5, r6}
    if( ( end - *p ) < 1 )
    5d58:	6804      	ldr	r4, [r0, #0]
    5d5a:	1b0e      	subs	r6, r1, r4
    5d5c:	2e00      	cmp	r6, #0
    5d5e:	dd07      	ble.n	5d70 <mbedtls_asn1_get_tag+0x1a>
        return( MBEDTLS_ERR_ASN1_OUT_OF_DATA );

    if( **p != tag )
    5d60:	7826      	ldrb	r6, [r4, #0]
    5d62:	429e      	cmp	r6, r3
    5d64:	d108      	bne.n	5d78 <mbedtls_asn1_get_tag+0x22>
        return( MBEDTLS_ERR_ASN1_UNEXPECTED_TAG );

    (*p)++;
    5d66:	3401      	adds	r4, #1
    5d68:	6004      	str	r4, [r0, #0]

    return( mbedtls_asn1_get_len( p, end, len ) );
}
    5d6a:	bc70      	pop	{r4, r5, r6}
    return( mbedtls_asn1_get_len( p, end, len ) );
    5d6c:	f7ff bfa7 	b.w	5cbe <mbedtls_asn1_get_len>
        return( MBEDTLS_ERR_ASN1_OUT_OF_DATA );
    5d70:	f06f 005f 	mvn.w	r0, #95	; 0x5f
}
    5d74:	bc70      	pop	{r4, r5, r6}
    5d76:	4770      	bx	lr
        return( MBEDTLS_ERR_ASN1_UNEXPECTED_TAG );
    5d78:	f06f 0061 	mvn.w	r0, #97	; 0x61
    5d7c:	e7fa      	b.n	5d74 <mbedtls_asn1_get_tag+0x1e>

00005d7e <mbedtls_asn1_get_bitstring_null>:
/*
 * Get a bit string without unused bits
 */
int mbedtls_asn1_get_bitstring_null( unsigned char **p, const unsigned char *end,
                             size_t *len )
{
    5d7e:	b538      	push	{r3, r4, r5, lr}
    int ret = MBEDTLS_ERR_ERROR_CORRUPTION_DETECTED;

    if( ( ret = mbedtls_asn1_get_tag( p, end, len, MBEDTLS_ASN1_BIT_STRING ) ) != 0 )
    5d80:	2303      	movs	r3, #3
{
    5d82:	4604      	mov	r4, r0
    if( ( ret = mbedtls_asn1_get_tag( p, end, len, MBEDTLS_ASN1_BIT_STRING ) ) != 0 )
    5d84:	f7ff ffe7 	bl	5d56 <mbedtls_asn1_get_tag>
    5d88:	b918      	cbnz	r0, 5d92 <mbedtls_asn1_get_bitstring_null+0x14>
        return( ret );

    if( *len == 0 )
    5d8a:	6813      	ldr	r3, [r2, #0]
    5d8c:	b913      	cbnz	r3, 5d94 <mbedtls_asn1_get_bitstring_null+0x16>
        return( MBEDTLS_ERR_ASN1_INVALID_DATA );
    5d8e:	f06f 0067 	mvn.w	r0, #103	; 0x67
    if( **p != 0 )
        return( MBEDTLS_ERR_ASN1_INVALID_DATA );
    ++( *p );

    return( 0 );
}
    5d92:	bd38      	pop	{r3, r4, r5, pc}
    --( *len );
    5d94:	3b01      	subs	r3, #1
    5d96:	6013      	str	r3, [r2, #0]
    if( **p != 0 )
    5d98:	6823      	ldr	r3, [r4, #0]
    5d9a:	781a      	ldrb	r2, [r3, #0]
    5d9c:	2a00      	cmp	r2, #0
    5d9e:	d1f6      	bne.n	5d8e <mbedtls_asn1_get_bitstring_null+0x10>
    ++( *p );
    5da0:	3301      	adds	r3, #1
    5da2:	6023      	str	r3, [r4, #0]
    return( 0 );
    5da4:	e7f5      	b.n	5d92 <mbedtls_asn1_get_bitstring_null+0x14>

00005da6 <mbedtls_asn1_get_alg>:
}

int mbedtls_asn1_get_alg( unsigned char **p,
                  const unsigned char *end,
                  mbedtls_asn1_buf *alg, mbedtls_asn1_buf *params )
{
    5da6:	e92d 41f3 	stmdb	sp!, {r0, r1, r4, r5, r6, r7, r8, lr}
    5daa:	4690      	mov	r8, r2
    5dac:	461f      	mov	r7, r3
    int ret = MBEDTLS_ERR_ERROR_CORRUPTION_DETECTED;
    size_t len;

    if( ( ret = mbedtls_asn1_get_tag( p, end, &len,
    5dae:	aa01      	add	r2, sp, #4
    5db0:	2330      	movs	r3, #48	; 0x30
{
    5db2:	4605      	mov	r5, r0
    5db4:	460e      	mov	r6, r1
    if( ( ret = mbedtls_asn1_get_tag( p, end, &len,
    5db6:	f7ff ffce 	bl	5d56 <mbedtls_asn1_get_tag>
    5dba:	4604      	mov	r4, r0
    5dbc:	b9f0      	cbnz	r0, 5dfc <mbedtls_asn1_get_alg+0x56>
            MBEDTLS_ASN1_CONSTRUCTED | MBEDTLS_ASN1_SEQUENCE ) ) != 0 )
        return( ret );

    if( ( end - *p ) < 1 )
    5dbe:	682b      	ldr	r3, [r5, #0]
    5dc0:	1af6      	subs	r6, r6, r3
    5dc2:	2e00      	cmp	r6, #0
    5dc4:	dd34      	ble.n	5e30 <mbedtls_asn1_get_alg+0x8a>
        return( MBEDTLS_ERR_ASN1_OUT_OF_DATA );

    alg->tag = **p;
    5dc6:	4642      	mov	r2, r8
    5dc8:	781b      	ldrb	r3, [r3, #0]
    end = *p + len;

    if( ( ret = mbedtls_asn1_get_tag( p, end, &alg->len, MBEDTLS_ASN1_OID ) ) != 0 )
    5dca:	4628      	mov	r0, r5
    alg->tag = **p;
    5dcc:	f842 3b04 	str.w	r3, [r2], #4
    end = *p + len;
    5dd0:	682e      	ldr	r6, [r5, #0]
    5dd2:	9b01      	ldr	r3, [sp, #4]
    5dd4:	441e      	add	r6, r3
    if( ( ret = mbedtls_asn1_get_tag( p, end, &alg->len, MBEDTLS_ASN1_OID ) ) != 0 )
    5dd6:	4631      	mov	r1, r6
    5dd8:	2306      	movs	r3, #6
    5dda:	f7ff ffbc 	bl	5d56 <mbedtls_asn1_get_tag>
    5dde:	4604      	mov	r4, r0
    5de0:	b960      	cbnz	r0, 5dfc <mbedtls_asn1_get_alg+0x56>
        return( ret );

    alg->p = *p;
    5de2:	682b      	ldr	r3, [r5, #0]
    *p += alg->len;
    5de4:	f8d8 2004 	ldr.w	r2, [r8, #4]
    alg->p = *p;
    5de8:	f8c8 3008 	str.w	r3, [r8, #8]
    *p += alg->len;
    5dec:	1899      	adds	r1, r3, r2

    if( *p == end )
    5dee:	42b1      	cmp	r1, r6
    *p += alg->len;
    5df0:	6029      	str	r1, [r5, #0]
    if( *p == end )
    5df2:	d107      	bne.n	5e04 <mbedtls_asn1_get_alg+0x5e>
    {
        mbedtls_platform_zeroize( params, sizeof(mbedtls_asn1_buf) );
    5df4:	210c      	movs	r1, #12
    5df6:	4638      	mov	r0, r7
    5df8:	f7fe f94c 	bl	4094 <mbedtls_platform_zeroize>

    if( *p != end )
        return( MBEDTLS_ERR_ASN1_LENGTH_MISMATCH );

    return( 0 );
}
    5dfc:	4620      	mov	r0, r4
    5dfe:	b002      	add	sp, #8
    5e00:	e8bd 81f0 	ldmia.w	sp!, {r4, r5, r6, r7, r8, pc}
    params->tag = **p;
    5e04:	5c9b      	ldrb	r3, [r3, r2]
    5e06:	463a      	mov	r2, r7
    5e08:	f842 3b04 	str.w	r3, [r2], #4
    (*p)++;
    5e0c:	682b      	ldr	r3, [r5, #0]
    if( ( ret = mbedtls_asn1_get_len( p, end, &params->len ) ) != 0 )
    5e0e:	4631      	mov	r1, r6
    (*p)++;
    5e10:	3301      	adds	r3, #1
    if( ( ret = mbedtls_asn1_get_len( p, end, &params->len ) ) != 0 )
    5e12:	4628      	mov	r0, r5
    (*p)++;
    5e14:	602b      	str	r3, [r5, #0]
    if( ( ret = mbedtls_asn1_get_len( p, end, &params->len ) ) != 0 )
    5e16:	f7ff ff52 	bl	5cbe <mbedtls_asn1_get_len>
    5e1a:	b960      	cbnz	r0, 5e36 <mbedtls_asn1_get_alg+0x90>
    params->p = *p;
    5e1c:	682b      	ldr	r3, [r5, #0]
    *p += params->len;
    5e1e:	687a      	ldr	r2, [r7, #4]
    params->p = *p;
    5e20:	60bb      	str	r3, [r7, #8]
    *p += params->len;
    5e22:	4413      	add	r3, r2
        return( MBEDTLS_ERR_ASN1_LENGTH_MISMATCH );
    5e24:	42b3      	cmp	r3, r6
    5e26:	bf18      	it	ne
    5e28:	f06f 0465 	mvnne.w	r4, #101	; 0x65
    *p += params->len;
    5e2c:	602b      	str	r3, [r5, #0]
    if( *p != end )
    5e2e:	e7e5      	b.n	5dfc <mbedtls_asn1_get_alg+0x56>
        return( MBEDTLS_ERR_ASN1_OUT_OF_DATA );
    5e30:	f06f 045f 	mvn.w	r4, #95	; 0x5f
    5e34:	e7e2      	b.n	5dfc <mbedtls_asn1_get_alg+0x56>
    5e36:	4604      	mov	r4, r0
    5e38:	e7e0      	b.n	5dfc <mbedtls_asn1_get_alg+0x56>

00005e3a <cc310_sha256_update>:
{
    5e3a:	b5f8      	push	{r3, r4, r5, r6, r7, lr}
    if ((uint32_t) data < CONFIG_SRAM_BASE_ADDRESS) {
    5e3c:	f1b1 5f00 	cmp.w	r1, #536870912	; 0x20000000
{
    5e40:	4605      	mov	r5, r0
    5e42:	4614      	mov	r4, r2
    5e44:	af00      	add	r7, sp, #0
    if ((uint32_t) data < CONFIG_SRAM_BASE_ADDRESS) {
    5e46:	d210      	bcs.n	5e6a <cc310_sha256_update+0x30>
    5e48:	466e      	mov	r6, sp
        uint8_t stack_buffer[data_len];
    5e4a:	1dd3      	adds	r3, r2, #7
    5e4c:	f023 0307 	bic.w	r3, r3, #7
    5e50:	ebad 0d03 	sub.w	sp, sp, r3
        memcpy(stack_buffer, data, block_len);
    5e54:	4668      	mov	r0, sp
    5e56:	f000 f99e 	bl	6196 <memcpy>
        nrf_cc310_bl_hash_sha256_update(ctx, stack_buffer, block_len);
    5e5a:	4669      	mov	r1, sp
    5e5c:	4622      	mov	r2, r4
    5e5e:	4628      	mov	r0, r5
    5e60:	f7fe fbe2 	bl	4628 <nrf_cc310_bl_hash_sha256_update>
    5e64:	46b5      	mov	sp, r6
};
    5e66:	46bd      	mov	sp, r7
    5e68:	bdf8      	pop	{r3, r4, r5, r6, r7, pc}
        nrf_cc310_bl_hash_sha256_update(ctx, data, data_len);
    5e6a:	f7fe fbdd 	bl	4628 <nrf_cc310_bl_hash_sha256_update>
};
    5e6e:	e7fa      	b.n	5e66 <cc310_sha256_update+0x2c>

00005e70 <arch_printk_char_out>:
}
    5e70:	2000      	movs	r0, #0
    5e72:	4770      	bx	lr

00005e74 <printk>:
 *
 * @param fmt formatted string to output
 */

void printk(const char *fmt, ...)
{
    5e74:	b40f      	push	{r0, r1, r2, r3}
    5e76:	b507      	push	{r0, r1, r2, lr}
    5e78:	a904      	add	r1, sp, #16
    5e7a:	f851 0b04 	ldr.w	r0, [r1], #4
	va_list ap;

	va_start(ap, fmt);
    5e7e:	9101      	str	r1, [sp, #4]

	vprintk(fmt, ap);
    5e80:	f7fb fabe 	bl	1400 <vprintk>

	va_end(ap);
}
    5e84:	b003      	add	sp, #12
    5e86:	f85d eb04 	ldr.w	lr, [sp], #4
    5e8a:	b004      	add	sp, #16
    5e8c:	4770      	bx	lr

00005e8e <process_recheck>:
	uint32_t state = mgr->flags & ONOFF_STATE_MASK;
    5e8e:	8b03      	ldrh	r3, [r0, #24]
	if ((state == ONOFF_STATE_OFF)
    5e90:	f013 0307 	ands.w	r3, r3, #7
    5e94:	d105      	bne.n	5ea2 <process_recheck+0x14>
	    && !sys_slist_is_empty(&mgr->clients)) {
    5e96:	6803      	ldr	r3, [r0, #0]
		evt = EVT_START;
    5e98:	2b00      	cmp	r3, #0
    5e9a:	bf0c      	ite	eq
    5e9c:	2000      	moveq	r0, #0
    5e9e:	2003      	movne	r0, #3
    5ea0:	4770      	bx	lr
	} else if ((state == ONOFF_STATE_ON)
    5ea2:	2b02      	cmp	r3, #2
    5ea4:	d105      	bne.n	5eb2 <process_recheck+0x24>
		   && (mgr->refs == 0U)) {
    5ea6:	8b40      	ldrh	r0, [r0, #26]
    5ea8:	fab0 f080 	clz	r0, r0
    5eac:	0940      	lsrs	r0, r0, #5
    5eae:	0080      	lsls	r0, r0, #2
    5eb0:	4770      	bx	lr
	} else if ((state == ONOFF_STATE_ERROR)
    5eb2:	2b01      	cmp	r3, #1
    5eb4:	d105      	bne.n	5ec2 <process_recheck+0x34>
		   && !sys_slist_is_empty(&mgr->clients)) {
    5eb6:	6803      	ldr	r3, [r0, #0]
		evt = EVT_RESET;
    5eb8:	2b00      	cmp	r3, #0
    5eba:	bf0c      	ite	eq
    5ebc:	2000      	moveq	r0, #0
    5ebe:	2005      	movne	r0, #5
    5ec0:	4770      	bx	lr
	int evt = EVT_NOP;
    5ec2:	2000      	movs	r0, #0
}
    5ec4:	4770      	bx	lr

00005ec6 <validate_args>:
{
    5ec6:	b510      	push	{r4, lr}
    5ec8:	460c      	mov	r4, r1
	if ((mgr == NULL) || (cli == NULL)) {
    5eca:	b100      	cbz	r0, 5ece <validate_args+0x8>
    5ecc:	b911      	cbnz	r1, 5ed4 <validate_args+0xe>
		return -EINVAL;
    5ece:	f06f 0015 	mvn.w	r0, #21
}
    5ed2:	bd10      	pop	{r4, pc}
	int rv = sys_notify_validate(&cli->notify);
    5ed4:	1d08      	adds	r0, r1, #4
    5ed6:	f000 f896 	bl	6006 <sys_notify_validate>
	if ((rv == 0)
    5eda:	2800      	cmp	r0, #0
    5edc:	d1f9      	bne.n	5ed2 <validate_args+0xc>
	    && ((cli->notify.flags
    5ede:	68a3      	ldr	r3, [r4, #8]
    5ee0:	2b03      	cmp	r3, #3
    5ee2:	d9f6      	bls.n	5ed2 <validate_args+0xc>
    5ee4:	e7f3      	b.n	5ece <validate_args+0x8>

00005ee6 <notify_one>:
{
    5ee6:	e92d 41f0 	stmdb	sp!, {r4, r5, r6, r7, r8, lr}
    5eea:	460d      	mov	r5, r1
    5eec:	4607      	mov	r7, r0
		(onoff_client_callback)sys_notify_finalize(&cli->notify, res);
    5eee:	4619      	mov	r1, r3
    5ef0:	1d28      	adds	r0, r5, #4
{
    5ef2:	4690      	mov	r8, r2
    5ef4:	461e      	mov	r6, r3
		(onoff_client_callback)sys_notify_finalize(&cli->notify, res);
    5ef6:	f000 f897 	bl	6028 <sys_notify_finalize>
	if (cb) {
    5efa:	4604      	mov	r4, r0
    5efc:	b138      	cbz	r0, 5f0e <notify_one+0x28>
		cb(mgr, cli, state, res);
    5efe:	4633      	mov	r3, r6
    5f00:	4642      	mov	r2, r8
    5f02:	4629      	mov	r1, r5
    5f04:	4638      	mov	r0, r7
    5f06:	46a4      	mov	ip, r4
}
    5f08:	e8bd 41f0 	ldmia.w	sp!, {r4, r5, r6, r7, r8, lr}
		cb(mgr, cli, state, res);
    5f0c:	4760      	bx	ip
}
    5f0e:	e8bd 81f0 	ldmia.w	sp!, {r4, r5, r6, r7, r8, pc}

00005f12 <transition_complete>:
{
    5f12:	b410      	push	{r4}
    5f14:	f04f 0420 	mov.w	r4, #32
    5f18:	f3ef 8211 	mrs	r2, BASEPRI
    5f1c:	f384 8812 	msr	BASEPRI_MAX, r4
    5f20:	f3bf 8f6f 	isb	sy
	mgr->last_res = res;
    5f24:	6141      	str	r1, [r0, #20]
}
    5f26:	f85d 4b04 	ldr.w	r4, [sp], #4
	process_event(mgr, EVT_COMPLETE, key);
    5f2a:	2101      	movs	r1, #1
    5f2c:	f7fb ba76 	b.w	141c <process_event>

00005f30 <onoff_manager_init>:
{
    5f30:	b538      	push	{r3, r4, r5, lr}
    5f32:	460c      	mov	r4, r1
	if ((mgr == NULL)
    5f34:	4605      	mov	r5, r0
    5f36:	b158      	cbz	r0, 5f50 <onoff_manager_init+0x20>
	    || (transitions == NULL)
    5f38:	b151      	cbz	r1, 5f50 <onoff_manager_init+0x20>
	    || (transitions->start == NULL)
    5f3a:	680b      	ldr	r3, [r1, #0]
    5f3c:	b143      	cbz	r3, 5f50 <onoff_manager_init+0x20>
	    || (transitions->stop == NULL)) {
    5f3e:	684b      	ldr	r3, [r1, #4]
    5f40:	b133      	cbz	r3, 5f50 <onoff_manager_init+0x20>
	*mgr = (struct onoff_manager)ONOFF_MANAGER_INITIALIZER(transitions);
    5f42:	221c      	movs	r2, #28
    5f44:	2100      	movs	r1, #0
    5f46:	f000 f931 	bl	61ac <memset>
	return 0;
    5f4a:	2000      	movs	r0, #0
	*mgr = (struct onoff_manager)ONOFF_MANAGER_INITIALIZER(transitions);
    5f4c:	612c      	str	r4, [r5, #16]
}
    5f4e:	bd38      	pop	{r3, r4, r5, pc}
		return -EINVAL;
    5f50:	f06f 0015 	mvn.w	r0, #21
    5f54:	e7fb      	b.n	5f4e <onoff_manager_init+0x1e>

00005f56 <onoff_request>:

int onoff_request(struct onoff_manager *mgr,
		  struct onoff_client *cli)
{
    5f56:	b570      	push	{r4, r5, r6, lr}
    5f58:	4605      	mov	r5, r0
    5f5a:	460e      	mov	r6, r1
	bool add_client = false;        /* add client to pending list */
	bool start = false;             /* trigger a start transition */
	bool notify = false;            /* do client notification */
	int rv = validate_args(mgr, cli);
    5f5c:	f7ff ffb3 	bl	5ec6 <validate_args>

	if (rv < 0) {
    5f60:	1e04      	subs	r4, r0, #0
    5f62:	db15      	blt.n	5f90 <onoff_request+0x3a>
    5f64:	f04f 0320 	mov.w	r3, #32
    5f68:	f3ef 8211 	mrs	r2, BASEPRI
    5f6c:	f383 8812 	msr	BASEPRI_MAX, r3
    5f70:	f3bf 8f6f 	isb	sy

	k_spinlock_key_t key = k_spin_lock(&mgr->lock);
	uint32_t state = mgr->flags & ONOFF_STATE_MASK;

	/* Reject if this would overflow the reference count. */
	if (mgr->refs == SERVICE_REFS_MAX) {
    5f74:	f64f 71ff 	movw	r1, #65535	; 0xffff
    5f78:	8b6b      	ldrh	r3, [r5, #26]
    5f7a:	8b2c      	ldrh	r4, [r5, #24]
    5f7c:	428b      	cmp	r3, r1
    5f7e:	f004 0407 	and.w	r4, r4, #7
    5f82:	d107      	bne.n	5f94 <onoff_request+0x3e>
	__asm__ volatile(
    5f84:	f382 8811 	msr	BASEPRI, r2
    5f88:	f3bf 8f6f 	isb	sy
		rv = -EAGAIN;
    5f8c:	f06f 040a 	mvn.w	r4, #10
			notify_one(mgr, cli, state, 0);
		}
	}

	return rv;
}
    5f90:	4620      	mov	r0, r4
    5f92:	bd70      	pop	{r4, r5, r6, pc}
	if (state == ONOFF_STATE_ON) {
    5f94:	2c02      	cmp	r4, #2
    5f96:	d10c      	bne.n	5fb2 <onoff_request+0x5c>
		mgr->refs += 1U;
    5f98:	3301      	adds	r3, #1
    5f9a:	836b      	strh	r3, [r5, #26]
    5f9c:	f382 8811 	msr	BASEPRI, r2
    5fa0:	f3bf 8f6f 	isb	sy
			notify_one(mgr, cli, state, 0);
    5fa4:	2300      	movs	r3, #0
    5fa6:	4622      	mov	r2, r4
    5fa8:	4631      	mov	r1, r6
    5faa:	4628      	mov	r0, r5
    5fac:	f7ff ff9b 	bl	5ee6 <notify_one>
    5fb0:	e7ee      	b.n	5f90 <onoff_request+0x3a>
	} else if ((state == ONOFF_STATE_OFF)
    5fb2:	2c06      	cmp	r4, #6
    5fb4:	d814      	bhi.n	5fe0 <onoff_request+0x8a>
    5fb6:	e8df f004 	tbb	[pc, r4]
    5fba:	1304      	.short	0x1304
    5fbc:	1a041313 	.word	0x1a041313
    5fc0:	04          	.byte	0x04
    5fc1:	00          	.byte	0x00
	parent->next = child;
    5fc2:	2300      	movs	r3, #0
    5fc4:	6033      	str	r3, [r6, #0]
 *
 * @return A pointer on the last node of the list (or NULL if none)
 */
static inline sys_snode_t *sys_slist_peek_tail(sys_slist_t *list)
{
	return list->tail;
    5fc6:	686b      	ldr	r3, [r5, #4]
 * @param node A pointer on the node to append
 */
static inline void sys_slist_append(sys_slist_t *list,
				    sys_snode_t *node);

Z_GENLIST_APPEND(slist, snode)
    5fc8:	b93b      	cbnz	r3, 5fda <onoff_request+0x84>
	list->head = node;
    5fca:	e9c5 6600 	strd	r6, r6, [r5]
	if (start) {
    5fce:	b9ac      	cbnz	r4, 5ffc <onoff_request+0xa6>
		process_event(mgr, EVT_RECHECK, key);
    5fd0:	2102      	movs	r1, #2
    5fd2:	4628      	mov	r0, r5
    5fd4:	f7fb fa22 	bl	141c <process_event>
    5fd8:	e7da      	b.n	5f90 <onoff_request+0x3a>
	parent->next = child;
    5fda:	601e      	str	r6, [r3, #0]
	list->tail = node;
    5fdc:	606e      	str	r6, [r5, #4]
}
    5fde:	e7f6      	b.n	5fce <onoff_request+0x78>
    5fe0:	f382 8811 	msr	BASEPRI, r2
    5fe4:	f3bf 8f6f 	isb	sy
		rv = -EIO;
    5fe8:	f06f 0404 	mvn.w	r4, #4
    5fec:	e7d0      	b.n	5f90 <onoff_request+0x3a>
    5fee:	f382 8811 	msr	BASEPRI, r2
    5ff2:	f3bf 8f6f 	isb	sy
    5ff6:	f06f 0485 	mvn.w	r4, #133	; 0x85
    5ffa:	e7c9      	b.n	5f90 <onoff_request+0x3a>
    5ffc:	f382 8811 	msr	BASEPRI, r2
    6000:	f3bf 8f6f 	isb	sy
		if (notify) {
    6004:	e7c4      	b.n	5f90 <onoff_request+0x3a>

00006006 <sys_notify_validate>:

int sys_notify_validate(struct sys_notify *notify)
{
	int rv = 0;

	if (notify == NULL) {
    6006:	4603      	mov	r3, r0
    6008:	b158      	cbz	r0, 6022 <sys_notify_validate+0x1c>
	uint32_t method = notify->flags >> SYS_NOTIFY_METHOD_POS;
    600a:	6842      	ldr	r2, [r0, #4]
	return method & SYS_NOTIFY_METHOD_MASK;
    600c:	f002 0203 	and.w	r2, r2, #3
		return -EINVAL;
	}

	/* Validate configuration based on mode */
	switch (sys_notify_get_method(notify)) {
    6010:	2a01      	cmp	r2, #1
    6012:	d003      	beq.n	601c <sys_notify_validate+0x16>
    6014:	2a03      	cmp	r2, #3
    6016:	d104      	bne.n	6022 <sys_notify_validate+0x1c>
	case SYS_NOTIFY_METHOD_SPINWAIT:
		break;
	case SYS_NOTIFY_METHOD_CALLBACK:
		if (notify->method.callback == NULL) {
    6018:	6802      	ldr	r2, [r0, #0]
    601a:	b112      	cbz	r2, 6022 <sys_notify_validate+0x1c>
		break;
	}

	/* Clear the result here instead of in all callers. */
	if (rv == 0) {
		notify->result = 0;
    601c:	2000      	movs	r0, #0
    601e:	6098      	str	r0, [r3, #8]
    6020:	4770      	bx	lr
    6022:	f06f 0015 	mvn.w	r0, #21
	}

	return rv;
}
    6026:	4770      	bx	lr

00006028 <sys_notify_finalize>:
	uint32_t method = notify->flags >> SYS_NOTIFY_METHOD_POS;
    6028:	6842      	ldr	r2, [r0, #4]

sys_notify_generic_callback sys_notify_finalize(struct sys_notify *notify,
						    int res)
{
    602a:	4603      	mov	r3, r0
	return method & SYS_NOTIFY_METHOD_MASK;
    602c:	f002 0203 	and.w	r2, r2, #3

	/* Store the result and capture secondary notification
	 * information.
	 */
	notify->result = res;
	switch (method) {
    6030:	2a03      	cmp	r2, #3
    6032:	f04f 0200 	mov.w	r2, #0
	notify->result = res;
    6036:	6081      	str	r1, [r0, #8]
	sys_notify_generic_callback rv = NULL;
    6038:	bf14      	ite	ne
    603a:	4610      	movne	r0, r2
	case SYS_NOTIFY_METHOD_SPINWAIT:
		break;
	case SYS_NOTIFY_METHOD_CALLBACK:
		rv = notify->method.callback;
    603c:	6800      	ldreq	r0, [r0, #0]
	/* Mark completion by clearing the flags field to the
	 * completed state, releasing any spin-waiters, then complete
	 * secondary notification.
	 */
	compiler_barrier();
	notify->flags = SYS_NOTIFY_METHOD_COMPLETED;
    603e:	605a      	str	r2, [r3, #4]
	if (IS_ENABLED(CONFIG_POLL) && (sig != NULL)) {
		k_poll_signal_raise(sig, res);
	}

	return rv;
}
    6040:	4770      	bx	lr

00006042 <_ConfigAbsSyms>:
GEN_ABSOLUTE_SYM_KCONFIG(CONFIG_BUILD_OUTPUT_META, 1);
GEN_ABSOLUTE_SYM_KCONFIG(CONFIG_WARN_DEPRECATED, 1);
GEN_ABSOLUTE_SYM_KCONFIG(CONFIG_ENFORCE_ZEPHYR_STDINT, 1);
GEN_ABSOLUTE_SYM_KCONFIG(CONFIG_COMPAT_INCLUDES, 1);

GEN_ABS_SYM_END
    6042:	4770      	bx	lr

00006044 <z_log_minimal_printk>:
#include <zephyr/sys/printk.h>

#define HEXDUMP_BYTES_IN_LINE 8U

void z_log_minimal_printk(const char *fmt, ...)
{
    6044:	b40f      	push	{r0, r1, r2, r3}
    6046:	b507      	push	{r0, r1, r2, lr}
    6048:	a904      	add	r1, sp, #16
    604a:	f851 0b04 	ldr.w	r0, [r1], #4
	va_list ap;

	va_start(ap, fmt);
    604e:	9101      	str	r1, [sp, #4]
	vprintk(fmt, ap);
    6050:	f7fb f9d6 	bl	1400 <vprintk>
	va_end(ap);
}
    6054:	b003      	add	sp, #12
    6056:	f85d eb04 	ldr.w	lr, [sp], #4
    605a:	b004      	add	sp, #16
    605c:	4770      	bx	lr

0000605e <flash_area_close>:

void flash_area_close(const struct flash_area *fa)
{
	/* nothing to do for now */
}
    605e:	4770      	bx	lr

00006060 <flash_area_read>:


static inline bool is_in_flash_area_bounds(const struct flash_area *fa,
					   off_t off, size_t len)
{
	return (off >= 0) && ((off + len) <= fa->fa_size);
    6060:	2900      	cmp	r1, #0

int flash_area_read(const struct flash_area *fa, off_t off, void *dst,
		    size_t len)
{
    6062:	b430      	push	{r4, r5}
    6064:	4604      	mov	r4, r0
    6066:	4618      	mov	r0, r3
    6068:	db0b      	blt.n	6082 <flash_area_read+0x22>
    606a:	68a5      	ldr	r5, [r4, #8]
    606c:	4408      	add	r0, r1
    606e:	42a8      	cmp	r0, r5
    6070:	d807      	bhi.n	6082 <flash_area_read+0x22>
	if (!is_in_flash_area_bounds(fa, off, len)) {
		return -EINVAL;
	}

	return flash_read(fa->fa_dev, fa->fa_off + off, dst, len);
    6072:	68e0      	ldr	r0, [r4, #12]
    6074:	6864      	ldr	r4, [r4, #4]
    6076:	4421      	add	r1, r4
				    size_t len)
{
	const struct flash_driver_api *api =
		(const struct flash_driver_api *)dev->api;

	return api->read(dev, offset, data, len);
    6078:	6884      	ldr	r4, [r0, #8]
    607a:	6824      	ldr	r4, [r4, #0]
    607c:	46a4      	mov	ip, r4
}
    607e:	bc30      	pop	{r4, r5}
    6080:	4760      	bx	ip
    6082:	f06f 0015 	mvn.w	r0, #21
    6086:	bc30      	pop	{r4, r5}
    6088:	4770      	bx	lr

0000608a <flash_area_write>:
    608a:	2900      	cmp	r1, #0

int flash_area_write(const struct flash_area *fa, off_t off, const void *src,
		     size_t len)
{
    608c:	b430      	push	{r4, r5}
    608e:	4604      	mov	r4, r0
    6090:	4618      	mov	r0, r3
    6092:	db0b      	blt.n	60ac <flash_area_write+0x22>
    6094:	68a5      	ldr	r5, [r4, #8]
    6096:	4408      	add	r0, r1
    6098:	42a8      	cmp	r0, r5
    609a:	d807      	bhi.n	60ac <flash_area_write+0x22>
	if (!is_in_flash_area_bounds(fa, off, len)) {
		return -EINVAL;
	}

	return flash_write(fa->fa_dev, fa->fa_off + off, (void *)src, len);
    609c:	68e0      	ldr	r0, [r4, #12]
    609e:	6864      	ldr	r4, [r4, #4]
    60a0:	4421      	add	r1, r4
{
	const struct flash_driver_api *api =
		(const struct flash_driver_api *)dev->api;
	int rc;

	rc = api->write(dev, offset, data, len);
    60a2:	6884      	ldr	r4, [r0, #8]
    60a4:	6864      	ldr	r4, [r4, #4]
    60a6:	46a4      	mov	ip, r4
}
    60a8:	bc30      	pop	{r4, r5}
    60aa:	4760      	bx	ip
    60ac:	f06f 0015 	mvn.w	r0, #21
    60b0:	bc30      	pop	{r4, r5}
    60b2:	4770      	bx	lr

000060b4 <flash_area_erase>:
    60b4:	2900      	cmp	r1, #0

int flash_area_erase(const struct flash_area *fa, off_t off, size_t len)
{
    60b6:	4603      	mov	r3, r0
    60b8:	b410      	push	{r4}
    60ba:	4610      	mov	r0, r2
    60bc:	db0b      	blt.n	60d6 <flash_area_erase+0x22>
    60be:	689c      	ldr	r4, [r3, #8]
    60c0:	4408      	add	r0, r1
    60c2:	42a0      	cmp	r0, r4
    60c4:	d807      	bhi.n	60d6 <flash_area_erase+0x22>
	if (!is_in_flash_area_bounds(fa, off, len)) {
		return -EINVAL;
	}

	return flash_erase(fa->fa_dev, fa->fa_off + off, len);
    60c6:	68d8      	ldr	r0, [r3, #12]
    60c8:	685b      	ldr	r3, [r3, #4]
    60ca:	4419      	add	r1, r3
{
	const struct flash_driver_api *api =
		(const struct flash_driver_api *)dev->api;
	int rc;

	rc = api->erase(dev, offset, size);
    60cc:	6883      	ldr	r3, [r0, #8]
}
    60ce:	f85d 4b04 	ldr.w	r4, [sp], #4
    60d2:	689b      	ldr	r3, [r3, #8]
    60d4:	4718      	bx	r3
    60d6:	f06f 0015 	mvn.w	r0, #21
    60da:	f85d 4b04 	ldr.w	r4, [sp], #4
    60de:	4770      	bx	lr

000060e0 <flash_area_align>:

uint32_t flash_area_align(const struct flash_area *fa)
{
    60e0:	b508      	push	{r3, lr}
	return flash_get_write_block_size(fa->fa_dev);
    60e2:	68c0      	ldr	r0, [r0, #12]
static inline size_t z_impl_flash_get_write_block_size(const struct device *dev)
{
	const struct flash_driver_api *api =
		(const struct flash_driver_api *)dev->api;

	return api->get_parameters(dev)->write_block_size;
    60e4:	6883      	ldr	r3, [r0, #8]
    60e6:	68db      	ldr	r3, [r3, #12]
    60e8:	4798      	blx	r3
}
    60ea:	6800      	ldr	r0, [r0, #0]
    60ec:	bd08      	pop	{r3, pc}

000060ee <flash_area_erased_val>:
{
	return fa->fa_dev;
}

uint8_t flash_area_erased_val(const struct flash_area *fa)
{
    60ee:	b508      	push	{r3, lr}
	const struct flash_parameters *param;

	param = flash_get_parameters(fa->fa_dev);
    60f0:	68c0      	ldr	r0, [r0, #12]
static inline const struct flash_parameters *z_impl_flash_get_parameters(const struct device *dev)
{
	const struct flash_driver_api *api =
		(const struct flash_driver_api *)dev->api;

	return api->get_parameters(dev);
    60f2:	6883      	ldr	r3, [r0, #8]
    60f4:	68db      	ldr	r3, [r3, #12]
    60f6:	4798      	blx	r3

	return param->erase_value;
}
    60f8:	7900      	ldrb	r0, [r0, #4]
    60fa:	bd08      	pop	{r3, pc}

000060fc <get_sectors_cb>:
{
    60fc:	b570      	push	{r4, r5, r6, lr}
	if (info->start_offset < data->area_off) {
    60fe:	684c      	ldr	r4, [r1, #4]
    6100:	6803      	ldr	r3, [r0, #0]
    6102:	42a3      	cmp	r3, r4
    6104:	d201      	bcs.n	610a <get_sectors_cb+0xe>
		*bail_value = true;
    6106:	2001      	movs	r0, #1
}
    6108:	bd70      	pop	{r4, r5, r6, pc}
	} else if (info->start_offset >= data->area_off + data->area_len) {
    610a:	688a      	ldr	r2, [r1, #8]
    610c:	4422      	add	r2, r4
    610e:	4293      	cmp	r3, r2
    6110:	d301      	bcc.n	6116 <get_sectors_cb+0x1a>
		*bail_value = false;
    6112:	2000      	movs	r0, #0
    6114:	e7f8      	b.n	6108 <get_sectors_cb+0xc>
	} else if (data->ret_idx >= data->ret_len) {
    6116:	694e      	ldr	r6, [r1, #20]
    6118:	e9d1 2503 	ldrd	r2, r5, [r1, #12]
    611c:	42b5      	cmp	r5, r6
    611e:	d303      	bcc.n	6128 <get_sectors_cb+0x2c>
		data->status = -ENOMEM;
    6120:	f06f 030b 	mvn.w	r3, #11
    6124:	618b      	str	r3, [r1, #24]
		return true;
    6126:	e7f4      	b.n	6112 <get_sectors_cb+0x16>
	ret[data->ret_idx].fs_off = info->start_offset - data->area_off;
    6128:	1b1b      	subs	r3, r3, r4
    612a:	f842 3035 	str.w	r3, [r2, r5, lsl #3]
	ret[data->ret_idx].fs_size = info->size;
    612e:	6843      	ldr	r3, [r0, #4]
    6130:	6908      	ldr	r0, [r1, #16]
    6132:	eb02 02c0 	add.w	r2, r2, r0, lsl #3
    6136:	6053      	str	r3, [r2, #4]
	data->ret_idx++;
    6138:	690b      	ldr	r3, [r1, #16]
    613a:	3301      	adds	r3, #1
    613c:	610b      	str	r3, [r1, #16]
	return true;
    613e:	e7e2      	b.n	6106 <get_sectors_cb+0xa>

00006140 <abort_function>:
	sys_reboot(SYS_REBOOT_WARM);
    6140:	2000      	movs	r0, #0
{
    6142:	b508      	push	{r3, lr}
	sys_reboot(SYS_REBOOT_WARM);
    6144:	f7fb fc98 	bl	1a78 <sys_reboot>

00006148 <nrf_cc3xx_platform_mutex_init>:
/** @brief Function to initialize the nrf_cc3xx_platform mutex APIs
 */
void nrf_cc3xx_platform_mutex_init(void)
{
	// No thread-safe mutexes are required
}
    6148:	4770      	bx	lr

0000614a <z_do_kernel_oops>:
 *
 * @param esf exception frame
 * @param callee_regs Callee-saved registers (R4-R11)
 */
void z_do_kernel_oops(const z_arch_esf_t *esf, _callee_saved_t *callee_regs)
{
    614a:	4601      	mov	r1, r0
	}

#endif /* CONFIG_USERSPACE */

#if !defined(CONFIG_EXTRA_EXCEPTION_INFO)
	z_arm_fatal_error(reason, esf);
    614c:	6800      	ldr	r0, [r0, #0]
    614e:	f7fb bd45 	b.w	1bdc <z_arm_fatal_error>

00006152 <z_irq_spurious>:
 */
void z_irq_spurious(const void *unused)
{
	ARG_UNUSED(unused);

	z_arm_fatal_error(K_ERR_SPURIOUS_IRQ, NULL);
    6152:	2100      	movs	r1, #0
    6154:	2001      	movs	r0, #1
    6156:	f7fb bd41 	b.w	1bdc <z_arm_fatal_error>

0000615a <z_arm_nmi>:
 * Simply call what is installed in 'static void(*handler)(void)'.
 *
 */

void z_arm_nmi(void)
{
    615a:	b508      	push	{r3, lr}
	handler();
    615c:	f7fb fd9e 	bl	1c9c <z_SysNmiOnReset>
	z_arm_int_exit();
}
    6160:	e8bd 4008 	ldmia.w	sp!, {r3, lr}
	z_arm_int_exit();
    6164:	f7fb be10 	b.w	1d88 <z_arm_exc_exit>

00006168 <strlen>:
 *
 * @return number of bytes in string <s>
 */

size_t strlen(const char *s)
{
    6168:	4603      	mov	r3, r0
	size_t n = 0;
    616a:	2000      	movs	r0, #0

	while (*s != '\0') {
    616c:	5c1a      	ldrb	r2, [r3, r0]
    616e:	b902      	cbnz	r2, 6172 <strlen+0xa>
		s++;
		n++;
	}

	return n;
}
    6170:	4770      	bx	lr
		n++;
    6172:	3001      	adds	r0, #1
    6174:	e7fa      	b.n	616c <strlen+0x4>

00006176 <memcmp>:
 * @brief Compare two memory areas
 *
 * @return negative # if <m1> < <m2>, 0 if <m1> == <m2>, else positive #
 */
int memcmp(const void *m1, const void *m2, size_t n)
{
    6176:	b510      	push	{r4, lr}
	const char *c1 = m1;
	const char *c2 = m2;

	if (!n) {
    6178:	b15a      	cbz	r2, 6192 <memcmp+0x1c>
    617a:	3901      	subs	r1, #1
    617c:	1884      	adds	r4, r0, r2
		return 0;
	}

	while ((--n > 0) && (*c1 == *c2)) {
    617e:	f810 2b01 	ldrb.w	r2, [r0], #1
    6182:	f811 3f01 	ldrb.w	r3, [r1, #1]!
    6186:	42a0      	cmp	r0, r4
    6188:	d001      	beq.n	618e <memcmp+0x18>
    618a:	429a      	cmp	r2, r3
    618c:	d0f7      	beq.n	617e <memcmp+0x8>
		c1++;
		c2++;
	}

	return *c1 - *c2;
    618e:	1ad0      	subs	r0, r2, r3
}
    6190:	bd10      	pop	{r4, pc}
		return 0;
    6192:	4610      	mov	r0, r2
    6194:	e7fc      	b.n	6190 <memcmp+0x1a>

00006196 <memcpy>:
 *
 * @return pointer to start of destination buffer
 */

void *memcpy(void *ZRESTRICT d, const void *ZRESTRICT s, size_t n)
{
    6196:	b510      	push	{r4, lr}
    6198:	1e43      	subs	r3, r0, #1
    619a:	440a      	add	r2, r1
	}
#endif

	/* do byte-sized copying until finished */

	while (n > 0) {
    619c:	4291      	cmp	r1, r2
    619e:	d100      	bne.n	61a2 <memcpy+0xc>
		*(d_byte++) = *(s_byte++);
		n--;
	}

	return d;
}
    61a0:	bd10      	pop	{r4, pc}
		*(d_byte++) = *(s_byte++);
    61a2:	f811 4b01 	ldrb.w	r4, [r1], #1
    61a6:	f803 4f01 	strb.w	r4, [r3, #1]!
		n--;
    61aa:	e7f7      	b.n	619c <memcpy+0x6>

000061ac <memset>:

void *memset(void *buf, int c, size_t n)
{
	/* do byte-sized initialization until word-aligned or finished */

	unsigned char *d_byte = (unsigned char *)buf;
    61ac:	4603      	mov	r3, r0
	unsigned char c_byte = (unsigned char)c;
    61ae:	b2c9      	uxtb	r1, r1
	/* do byte-sized initialization until finished */

	d_byte = (unsigned char *)d_word;
#endif

	while (n > 0) {
    61b0:	4402      	add	r2, r0
    61b2:	4293      	cmp	r3, r2
    61b4:	d100      	bne.n	61b8 <memset+0xc>
		*(d_byte++) = c_byte;
		n--;
	}

	return buf;
}
    61b6:	4770      	bx	lr
		*(d_byte++) = c_byte;
    61b8:	f803 1b01 	strb.w	r1, [r3], #1
		n--;
    61bc:	e7f9      	b.n	61b2 <memset+0x6>

000061be <_stdout_hook_default>:
}
    61be:	f04f 30ff 	mov.w	r0, #4294967295	; 0xffffffff
    61c2:	4770      	bx	lr

000061c4 <get_status>:
	return GET_STATUS(get_sub_data(dev, type)->flags);
    61c4:	220c      	movs	r2, #12
    61c6:	6903      	ldr	r3, [r0, #16]
    61c8:	b2c9      	uxtb	r1, r1
    61ca:	fb01 3302 	mla	r3, r1, r2, r3
    61ce:	6c18      	ldr	r0, [r3, #64]	; 0x40
}
    61d0:	f000 0007 	and.w	r0, r0, #7
    61d4:	4770      	bx	lr

000061d6 <set_on_state>:
	__asm__ volatile(
    61d6:	f04f 0320 	mov.w	r3, #32
    61da:	f3ef 8211 	mrs	r2, BASEPRI
    61de:	f383 8812 	msr	BASEPRI_MAX, r3
    61e2:	f3bf 8f6f 	isb	sy
	*flags = CLOCK_CONTROL_STATUS_ON | GET_CTX(*flags);
    61e6:	6803      	ldr	r3, [r0, #0]
    61e8:	f003 03c0 	and.w	r3, r3, #192	; 0xc0
    61ec:	f043 0302 	orr.w	r3, r3, #2
    61f0:	6003      	str	r3, [r0, #0]
	__asm__ volatile(
    61f2:	f382 8811 	msr	BASEPRI, r2
    61f6:	f3bf 8f6f 	isb	sy
}
    61fa:	4770      	bx	lr

000061fc <stop>:
{
    61fc:	b570      	push	{r4, r5, r6, lr}
    61fe:	b2c9      	uxtb	r1, r1
	struct nrf_clock_control_data *data = dev->data;
    6200:	6903      	ldr	r3, [r0, #16]
	__asm__ volatile(
    6202:	f04f 0420 	mov.w	r4, #32
    6206:	f3ef 8511 	mrs	r5, BASEPRI
    620a:	f384 8812 	msr	BASEPRI_MAX, r4
    620e:	f3bf 8f6f 	isb	sy
	uint32_t current_ctx = GET_CTX(*flags);
    6212:	260c      	movs	r6, #12
    6214:	fb06 3401 	mla	r4, r6, r1, r3
    6218:	6c24      	ldr	r4, [r4, #64]	; 0x40
	if ((current_ctx != 0) && (current_ctx != ctx)) {
    621a:	f014 04c0 	ands.w	r4, r4, #192	; 0xc0
    621e:	d008      	beq.n	6232 <stop+0x36>
    6220:	42a2      	cmp	r2, r4
    6222:	d006      	beq.n	6232 <stop+0x36>
	__asm__ volatile(
    6224:	f385 8811 	msr	BASEPRI, r5
    6228:	f3bf 8f6f 	isb	sy
		err = -EPERM;
    622c:	f04f 30ff 	mov.w	r0, #4294967295	; 0xffffffff
}
    6230:	bd70      	pop	{r4, r5, r6, pc}
		*flags = CLOCK_CONTROL_STATUS_OFF;
    6232:	2201      	movs	r2, #1
    6234:	4371      	muls	r1, r6
    6236:	440b      	add	r3, r1
    6238:	641a      	str	r2, [r3, #64]	; 0x40
    623a:	f385 8811 	msr	BASEPRI, r5
    623e:	f3bf 8f6f 	isb	sy
	get_sub_config(dev, type)->stop();
    6242:	6843      	ldr	r3, [r0, #4]
    6244:	440b      	add	r3, r1
    6246:	685b      	ldr	r3, [r3, #4]
    6248:	4798      	blx	r3
	return 0;
    624a:	2000      	movs	r0, #0
    624c:	e7f0      	b.n	6230 <stop+0x34>

0000624e <api_stop>:
	return stop(dev, subsys, CTX_API);
    624e:	2280      	movs	r2, #128	; 0x80
    6250:	f7ff bfd4 	b.w	61fc <stop>

00006254 <async_start>:
{
    6254:	b5f8      	push	{r3, r4, r5, r6, r7, lr}
    6256:	9f06      	ldr	r7, [sp, #24]
	struct nrf_clock_control_data *data = dev->data;
    6258:	6904      	ldr	r4, [r0, #16]
	return &data->subsys[type];
    625a:	b2c9      	uxtb	r1, r1
	__asm__ volatile(
    625c:	f04f 0520 	mov.w	r5, #32
    6260:	f3ef 8611 	mrs	r6, BASEPRI
    6264:	f385 8812 	msr	BASEPRI_MAX, r5
    6268:	f3bf 8f6f 	isb	sy
	uint32_t current_ctx = GET_CTX(*flags);
    626c:	250c      	movs	r5, #12
    626e:	4369      	muls	r1, r5
    6270:	440c      	add	r4, r1
    6272:	6c25      	ldr	r5, [r4, #64]	; 0x40
	if ((*flags & (STATUS_MASK)) == CLOCK_CONTROL_STATUS_OFF) {
    6274:	f005 0c07 	and.w	ip, r5, #7
    6278:	f1bc 0f01 	cmp.w	ip, #1
    627c:	d10b      	bne.n	6296 <async_start+0x42>
		*flags = CLOCK_CONTROL_STATUS_STARTING | ctx;
    627e:	6427      	str	r7, [r4, #64]	; 0x40
	__asm__ volatile(
    6280:	f386 8811 	msr	BASEPRI, r6
    6284:	f3bf 8f6f 	isb	sy
	subdata->user_data = user_data;
    6288:	e9c4 230e 	strd	r2, r3, [r4, #56]	; 0x38
	 get_sub_config(dev, type)->start();
    628c:	6843      	ldr	r3, [r0, #4]
    628e:	585b      	ldr	r3, [r3, r1]
    6290:	4798      	blx	r3
	return 0;
    6292:	2000      	movs	r0, #0
}
    6294:	bdf8      	pop	{r3, r4, r5, r6, r7, pc}
	uint32_t current_ctx = GET_CTX(*flags);
    6296:	f005 05c0 	and.w	r5, r5, #192	; 0xc0
	} else if (current_ctx != ctx) {
    629a:	42af      	cmp	r7, r5
    629c:	f386 8811 	msr	BASEPRI, r6
    62a0:	f3bf 8f6f 	isb	sy
		err = -EALREADY;
    62a4:	bf0c      	ite	eq
    62a6:	f06f 0077 	mvneq.w	r0, #119	; 0x77
		err = -EPERM;
    62aa:	f04f 30ff 	movne.w	r0, #4294967295	; 0xffffffff
    62ae:	e7f1      	b.n	6294 <async_start+0x40>

000062b0 <api_start>:
{
    62b0:	b513      	push	{r0, r1, r4, lr}
	return async_start(dev, subsys, cb, user_data, CTX_API);
    62b2:	2480      	movs	r4, #128	; 0x80
    62b4:	9400      	str	r4, [sp, #0]
    62b6:	f7ff ffcd 	bl	6254 <async_start>
}
    62ba:	b002      	add	sp, #8
    62bc:	bd10      	pop	{r4, pc}

000062be <api_blocking_start>:
}
    62be:	f06f 0085 	mvn.w	r0, #133	; 0x85
    62c2:	4770      	bx	lr

000062c4 <onoff_started_callback>:
{
    62c4:	b410      	push	{r4}
	notify(mgr, 0);
    62c6:	241c      	movs	r4, #28
	return &data->mgr[type];
    62c8:	6900      	ldr	r0, [r0, #16]
    62ca:	b2cb      	uxtb	r3, r1
	notify(mgr, 0);
    62cc:	fb03 0004 	mla	r0, r3, r4, r0
    62d0:	2100      	movs	r1, #0
}
    62d2:	f85d 4b04 	ldr.w	r4, [sp], #4
	notify(mgr, 0);
    62d6:	4710      	bx	r2

000062d8 <lfclk_start>:
    nrfx_clock_start(NRF_CLOCK_DOMAIN_LFCLK);
    62d8:	2000      	movs	r0, #0
    62da:	f000 ba9e 	b.w	681a <nrfx_clock_start>

000062de <lfclk_stop>:
    nrfx_clock_stop(NRF_CLOCK_DOMAIN_LFCLK);
    62de:	2000      	movs	r0, #0
    62e0:	f000 badb 	b.w	689a <nrfx_clock_stop>

000062e4 <gpio_nrfx_port_get_raw>:
	NRF_GPIO_Type *reg = get_port_cfg(port)->port;
    62e4:	6843      	ldr	r3, [r0, #4]
}
    62e6:	2000      	movs	r0, #0
	NRF_GPIO_Type *reg = get_port_cfg(port)->port;
    62e8:	685b      	ldr	r3, [r3, #4]
    return p_reg->IN;
    62ea:	691b      	ldr	r3, [r3, #16]
	*value = nrf_gpio_port_in_read(reg);
    62ec:	600b      	str	r3, [r1, #0]
}
    62ee:	4770      	bx	lr

000062f0 <gpio_nrfx_port_set_masked_raw>:
	NRF_GPIO_Type *reg = get_port_cfg(port)->port;
    62f0:	6843      	ldr	r3, [r0, #4]
	const uint32_t set_mask = value & mask;
    62f2:	ea02 0001 	and.w	r0, r2, r1
	NRF_GPIO_Type *reg = get_port_cfg(port)->port;
    62f6:	685b      	ldr	r3, [r3, #4]
	const uint32_t clear_mask = (~set_mask) & mask;
    62f8:	ea21 0102 	bic.w	r1, r1, r2
    p_reg->OUTSET = set_mask;
    62fc:	6098      	str	r0, [r3, #8]
}
    62fe:	2000      	movs	r0, #0
    p_reg->OUTCLR = clr_mask;
    6300:	60d9      	str	r1, [r3, #12]
    6302:	4770      	bx	lr

00006304 <gpio_nrfx_port_set_bits_raw>:
	NRF_GPIO_Type *reg = get_port_cfg(port)->port;
    6304:	6843      	ldr	r3, [r0, #4]
}
    6306:	2000      	movs	r0, #0
	NRF_GPIO_Type *reg = get_port_cfg(port)->port;
    6308:	685b      	ldr	r3, [r3, #4]
    p_reg->OUTSET = set_mask;
    630a:	6099      	str	r1, [r3, #8]
}
    630c:	4770      	bx	lr

0000630e <gpio_nrfx_port_clear_bits_raw>:
	NRF_GPIO_Type *reg = get_port_cfg(port)->port;
    630e:	6843      	ldr	r3, [r0, #4]
}
    6310:	2000      	movs	r0, #0
	NRF_GPIO_Type *reg = get_port_cfg(port)->port;
    6312:	685b      	ldr	r3, [r3, #4]
    p_reg->OUTCLR = clr_mask;
    6314:	60d9      	str	r1, [r3, #12]
}
    6316:	4770      	bx	lr

00006318 <gpio_nrfx_port_toggle_bits>:
	NRF_GPIO_Type *reg = get_port_cfg(port)->port;
    6318:	6843      	ldr	r3, [r0, #4]
    631a:	685a      	ldr	r2, [r3, #4]
    return p_reg->OUT;
    631c:	6853      	ldr	r3, [r2, #4]
	const uint32_t set_mask = value & mask;
    631e:	ea21 0003 	bic.w	r0, r1, r3
	const uint32_t clear_mask = (~value) & mask;
    6322:	400b      	ands	r3, r1
    p_reg->OUTSET = set_mask;
    6324:	6090      	str	r0, [r2, #8]
}
    6326:	2000      	movs	r0, #0
    p_reg->OUTCLR = clr_mask;
    6328:	60d3      	str	r3, [r2, #12]
    632a:	4770      	bx	lr

0000632c <gpio_nrfx_manage_callback>:
{
    632c:	b510      	push	{r4, lr}
	return port->data;
    632e:	6903      	ldr	r3, [r0, #16]
	return list->head;
    6330:	6858      	ldr	r0, [r3, #4]
	if (!sys_slist_is_empty(callbacks)) {
    6332:	b1f8      	cbz	r0, 6374 <gpio_nrfx_manage_callback+0x48>
 */
static inline bool sys_slist_find_and_remove(sys_slist_t *list,
					     sys_snode_t *node);

/** @} */
Z_GENLIST_FIND_AND_REMOVE(slist, snode)
    6334:	4288      	cmp	r0, r1
    6336:	d119      	bne.n	636c <gpio_nrfx_manage_callback+0x40>
Z_GENLIST_REMOVE(slist, snode)
    6338:	689c      	ldr	r4, [r3, #8]
	return node->next;
    633a:	6808      	ldr	r0, [r1, #0]
Z_GENLIST_REMOVE(slist, snode)
    633c:	42a1      	cmp	r1, r4
	list->head = node;
    633e:	6058      	str	r0, [r3, #4]
Z_GENLIST_REMOVE(slist, snode)
    6340:	d100      	bne.n	6344 <gpio_nrfx_manage_callback+0x18>
	list->tail = node;
    6342:	6098      	str	r0, [r3, #8]
	parent->next = child;
    6344:	2000      	movs	r0, #0
    6346:	6008      	str	r0, [r1, #0]
	if (set) {
    6348:	b12a      	cbz	r2, 6356 <gpio_nrfx_manage_callback+0x2a>
	return list->head;
    634a:	685a      	ldr	r2, [r3, #4]
	parent->next = child;
    634c:	600a      	str	r2, [r1, #0]
Z_GENLIST_PREPEND(slist, snode)
    634e:	689a      	ldr	r2, [r3, #8]
	list->head = node;
    6350:	6059      	str	r1, [r3, #4]
Z_GENLIST_PREPEND(slist, snode)
    6352:	b902      	cbnz	r2, 6356 <gpio_nrfx_manage_callback+0x2a>
	list->tail = node;
    6354:	6099      	str	r1, [r3, #8]
	return 0;
    6356:	2000      	movs	r0, #0
	return gpio_manage_callback(&get_port_data(port)->callbacks,
    6358:	e010      	b.n	637c <gpio_nrfx_manage_callback+0x50>
Z_GENLIST_FIND_AND_REMOVE(slist, snode)
    635a:	4281      	cmp	r1, r0
    635c:	d106      	bne.n	636c <gpio_nrfx_manage_callback+0x40>
	return node->next;
    635e:	6808      	ldr	r0, [r1, #0]
	parent->next = child;
    6360:	6020      	str	r0, [r4, #0]
Z_GENLIST_REMOVE(slist, snode)
    6362:	6898      	ldr	r0, [r3, #8]
    6364:	4281      	cmp	r1, r0
    6366:	d1ed      	bne.n	6344 <gpio_nrfx_manage_callback+0x18>
	list->tail = node;
    6368:	609c      	str	r4, [r3, #8]
}
    636a:	e7eb      	b.n	6344 <gpio_nrfx_manage_callback+0x18>
	return node->next;
    636c:	4604      	mov	r4, r0
    636e:	6800      	ldr	r0, [r0, #0]
Z_GENLIST_FIND_AND_REMOVE(slist, snode)
    6370:	2800      	cmp	r0, #0
    6372:	d1f2      	bne.n	635a <gpio_nrfx_manage_callback+0x2e>
			if (!set) {
    6374:	2a00      	cmp	r2, #0
    6376:	d1e8      	bne.n	634a <gpio_nrfx_manage_callback+0x1e>
				return -EINVAL;
    6378:	f06f 0015 	mvn.w	r0, #21
}
    637c:	bd10      	pop	{r4, pc}

0000637e <is_regular_addr_valid>:
{
    637e:	b538      	push	{r3, r4, r5, lr}
    6380:	4605      	mov	r5, r0
    6382:	460c      	mov	r4, r1
	return is_within_bounds(addr, len, 0, nrfx_nvmc_flash_size_get());
    6384:	f000 fa8b 	bl	689e <nrfx_nvmc_flash_size_get>
			(addr < (boundary_start + boundary_size)) &&
    6388:	2d00      	cmp	r5, #0
    638a:	db07      	blt.n	639c <is_regular_addr_valid+0x1e>
	return (addr >= boundary_start &&
    638c:	42a8      	cmp	r0, r5
    638e:	d905      	bls.n	639c <is_regular_addr_valid+0x1e>
			(len <= (boundary_start + boundary_size - addr)));
    6390:	1b40      	subs	r0, r0, r5
			(addr < (boundary_start + boundary_size)) &&
    6392:	4284      	cmp	r4, r0
    6394:	bf8c      	ite	hi
    6396:	2000      	movhi	r0, #0
    6398:	2001      	movls	r0, #1
}
    639a:	bd38      	pop	{r3, r4, r5, pc}
			(addr < (boundary_start + boundary_size)) &&
    639c:	2000      	movs	r0, #0
    639e:	e7fc      	b.n	639a <is_regular_addr_valid+0x1c>

000063a0 <flash_get_page_info>:

#include <zephyr/drivers/flash.h>

static int flash_get_page_info(const struct device *dev, off_t offs,
			       uint32_t index, struct flash_pages_info *info)
{
    63a0:	e92d 41f3 	stmdb	sp!, {r0, r1, r4, r5, r6, r7, r8, lr}
    63a4:	461c      	mov	r4, r3
	const struct flash_driver_api *api = dev->api;
	const struct flash_pages_layout *layout;
	size_t layout_size;
	uint32_t index_jmp;

	info->start_offset = 0;
    63a6:	2300      	movs	r3, #0
{
    63a8:	4690      	mov	r8, r2
	const struct flash_driver_api *api = dev->api;
    63aa:	6882      	ldr	r2, [r0, #8]
	info->start_offset = 0;
    63ac:	6023      	str	r3, [r4, #0]
	info->index = 0U;
    63ae:	60a3      	str	r3, [r4, #8]
{
    63b0:	460d      	mov	r5, r1

	api->page_layout(dev, &layout, &layout_size);
    63b2:	6913      	ldr	r3, [r2, #16]
    63b4:	4669      	mov	r1, sp
    63b6:	aa01      	add	r2, sp, #4
    63b8:	4798      	blx	r3

	while (layout_size--) {
    63ba:	9b01      	ldr	r3, [sp, #4]
    63bc:	1e5a      	subs	r2, r3, #1
    63be:	9201      	str	r2, [sp, #4]
    63c0:	b923      	cbnz	r3, 63cc <flash_get_page_info+0x2c>
		}

		layout++;
	}

	return -EINVAL; /* page at offs or idx doesn't exist */
    63c2:	f06f 0015 	mvn.w	r0, #21
}
    63c6:	b002      	add	sp, #8
    63c8:	e8bd 81f0 	ldmia.w	sp!, {r4, r5, r6, r7, r8, pc}
		info->size = layout->pages_size;
    63cc:	9800      	ldr	r0, [sp, #0]
			index_jmp = index - info->index;
    63ce:	68a2      	ldr	r2, [r4, #8]
		info->size = layout->pages_size;
    63d0:	6847      	ldr	r7, [r0, #4]
			index_jmp = (offs - info->start_offset) / info->size;
    63d2:	6821      	ldr	r1, [r4, #0]
		info->size = layout->pages_size;
    63d4:	6067      	str	r7, [r4, #4]
		if (offs == 0) {
    63d6:	b985      	cbnz	r5, 63fa <flash_get_page_info+0x5a>
			index_jmp = index - info->index;
    63d8:	eba8 0302 	sub.w	r3, r8, r2
		index_jmp = MIN(index_jmp, layout->pages_count);
    63dc:	6806      	ldr	r6, [r0, #0]
    63de:	42b3      	cmp	r3, r6
    63e0:	bf28      	it	cs
    63e2:	4633      	movcs	r3, r6
		info->start_offset += (index_jmp * info->size);
    63e4:	fb03 1107 	mla	r1, r3, r7, r1
		info->index += index_jmp;
    63e8:	441a      	add	r2, r3
		info->start_offset += (index_jmp * info->size);
    63ea:	6021      	str	r1, [r4, #0]
		info->index += index_jmp;
    63ec:	60a2      	str	r2, [r4, #8]
		if (index_jmp < layout->pages_count) {
    63ee:	6802      	ldr	r2, [r0, #0]
    63f0:	429a      	cmp	r2, r3
    63f2:	d806      	bhi.n	6402 <flash_get_page_info+0x62>
		layout++;
    63f4:	3008      	adds	r0, #8
    63f6:	9000      	str	r0, [sp, #0]
    63f8:	e7df      	b.n	63ba <flash_get_page_info+0x1a>
			index_jmp = (offs - info->start_offset) / info->size;
    63fa:	1a6b      	subs	r3, r5, r1
    63fc:	fbb3 f3f7 	udiv	r3, r3, r7
    6400:	e7ec      	b.n	63dc <flash_get_page_info+0x3c>
			return 0;
    6402:	2000      	movs	r0, #0
    6404:	e7df      	b.n	63c6 <flash_get_page_info+0x26>

00006406 <z_impl_flash_get_page_info_by_offs>:

int z_impl_flash_get_page_info_by_offs(const struct device *dev, off_t offs,
				       struct flash_pages_info *info)
{
    6406:	4613      	mov	r3, r2
	return flash_get_page_info(dev, offs, 0U, info);
    6408:	2200      	movs	r2, #0
    640a:	f7ff bfc9 	b.w	63a0 <flash_get_page_info>

0000640e <flash_page_foreach>:
	return count;
}

void flash_page_foreach(const struct device *dev, flash_page_cb cb,
			void *data)
{
    640e:	e92d 47f0 	stmdb	sp!, {r4, r5, r6, r7, r8, r9, sl, lr}
	const struct flash_driver_api *api = dev->api;
	const struct flash_pages_layout *layout;
	struct flash_pages_info page_info;
	size_t block, num_blocks, page = 0, i;
	off_t off = 0;
    6412:	2400      	movs	r4, #0

	api->page_layout(dev, &layout, &num_blocks);
    6414:	6883      	ldr	r3, [r0, #8]
{
    6416:	b086      	sub	sp, #24
    6418:	4688      	mov	r8, r1
    641a:	4691      	mov	r9, r2
	api->page_layout(dev, &layout, &num_blocks);
    641c:	691b      	ldr	r3, [r3, #16]
    641e:	aa02      	add	r2, sp, #8
    6420:	a901      	add	r1, sp, #4
    6422:	4798      	blx	r3
	size_t block, num_blocks, page = 0, i;
    6424:	46a2      	mov	sl, r4

	for (block = 0; block < num_blocks; block++) {
    6426:	4625      	mov	r5, r4
    6428:	9b02      	ldr	r3, [sp, #8]
    642a:	42ab      	cmp	r3, r5
    642c:	d802      	bhi.n	6434 <flash_page_foreach+0x26>

			off += page_info.size;
			page++;
		}
	}
}
    642e:	b006      	add	sp, #24
    6430:	e8bd 87f0 	ldmia.w	sp!, {r4, r5, r6, r7, r8, r9, sl, pc}
		for (i = 0; i < l->pages_count; i++) {
    6434:	2600      	movs	r6, #0
		const struct flash_pages_layout *l = &layout[block];
    6436:	9f01      	ldr	r7, [sp, #4]
    6438:	eb07 07c5 	add.w	r7, r7, r5, lsl #3
		page_info.size = l->pages_size;
    643c:	687b      	ldr	r3, [r7, #4]
    643e:	9304      	str	r3, [sp, #16]
		for (i = 0; i < l->pages_count; i++) {
    6440:	683a      	ldr	r2, [r7, #0]
    6442:	eb0a 0306 	add.w	r3, sl, r6
    6446:	42b2      	cmp	r2, r6
    6448:	d802      	bhi.n	6450 <flash_page_foreach+0x42>
	for (block = 0; block < num_blocks; block++) {
    644a:	469a      	mov	sl, r3
    644c:	3501      	adds	r5, #1
    644e:	e7eb      	b.n	6428 <flash_page_foreach+0x1a>
			if (!cb(&page_info, data)) {
    6450:	4649      	mov	r1, r9
			page_info.start_offset = off;
    6452:	9403      	str	r4, [sp, #12]
			page_info.index = page;
    6454:	9305      	str	r3, [sp, #20]
			if (!cb(&page_info, data)) {
    6456:	a803      	add	r0, sp, #12
    6458:	47c0      	blx	r8
    645a:	2800      	cmp	r0, #0
    645c:	d0e7      	beq.n	642e <flash_page_foreach+0x20>
			off += page_info.size;
    645e:	9b04      	ldr	r3, [sp, #16]
		for (i = 0; i < l->pages_count; i++) {
    6460:	3601      	adds	r6, #1
			off += page_info.size;
    6462:	441c      	add	r4, r3
		for (i = 0; i < l->pages_count; i++) {
    6464:	e7ec      	b.n	6440 <flash_page_foreach+0x32>

00006466 <uarte_nrfx_config_get>:
{
    6466:	460b      	mov	r3, r1
	struct uarte_nrfx_data *data = dev->data;
    6468:	6902      	ldr	r2, [r0, #16]
	*cfg = data->uart_config;
    646a:	e9d2 0101 	ldrd	r0, r1, [r2, #4]
    646e:	e883 0003 	stmia.w	r3, {r0, r1}
}
    6472:	2000      	movs	r0, #0
    6474:	4770      	bx	lr

00006476 <uarte_nrfx_err_check>:
	return config->uarte_regs;
    6476:	6843      	ldr	r3, [r0, #4]
    6478:	681b      	ldr	r3, [r3, #0]
    uint32_t errsrc_mask = p_reg->ERRORSRC;
    647a:	f8d3 0480 	ldr.w	r0, [r3, #1152]	; 0x480
    p_reg->ERRORSRC = errsrc_mask;
    647e:	f8c3 0480 	str.w	r0, [r3, #1152]	; 0x480
}
    6482:	4770      	bx	lr

00006484 <uarte_nrfx_poll_in>:
	return config->uarte_regs;
    6484:	6843      	ldr	r3, [r0, #4]
	const struct uarte_nrfx_data *data = dev->data;
    6486:	6902      	ldr	r2, [r0, #16]
	return config->uarte_regs;
    6488:	681b      	ldr	r3, [r3, #0]
    return (bool)*(volatile uint32_t *)((uint8_t *)p_reg + (uint32_t)event);
    648a:	f8d3 0110 	ldr.w	r0, [r3, #272]	; 0x110
	if (!nrf_uarte_event_check(uarte, NRF_UARTE_EVENT_ENDRX)) {
    648e:	b150      	cbz	r0, 64a6 <uarte_nrfx_poll_in+0x22>
    *((volatile uint32_t *)((uint8_t *)p_reg + (uint32_t)event)) = 0x0UL;
    6490:	2000      	movs	r0, #0
	*c = *data->rx_data;
    6492:	6952      	ldr	r2, [r2, #20]
    6494:	7812      	ldrb	r2, [r2, #0]
    6496:	700a      	strb	r2, [r1, #0]
    6498:	f8c3 0110 	str.w	r0, [r3, #272]	; 0x110
    649c:	f8d3 2110 	ldr.w	r2, [r3, #272]	; 0x110
    *((volatile uint32_t *)((uint8_t *)p_reg + (uint32_t)task)) = 0x1UL;
    64a0:	2201      	movs	r2, #1
    64a2:	601a      	str	r2, [r3, #0]
	return 0;
    64a4:	4770      	bx	lr
		return -1;
    64a6:	f04f 30ff 	mov.w	r0, #4294967295	; 0xffffffff
}
    64aa:	4770      	bx	lr

000064ac <is_tx_ready.isra.0>:
	return config->uarte_regs;
    64ac:	6802      	ldr	r2, [r0, #0]
static bool is_tx_ready(const struct device *dev)
    64ae:	4603      	mov	r3, r0
    return (bool)*(volatile uint32_t *)((uint8_t *)p_reg + (uint32_t)event);
    64b0:	f8d2 0158 	ldr.w	r0, [r2, #344]	; 0x158
	return nrf_uarte_event_check(uarte, NRF_UARTE_EVENT_TXSTOPPED) ||
    64b4:	b940      	cbnz	r0, 64c8 <is_tx_ready.isra.0+0x1c>
	bool ppi_endtx = config->flags & UARTE_CFG_FLAG_PPI_ENDTX;
    64b6:	685b      	ldr	r3, [r3, #4]
	return nrf_uarte_event_check(uarte, NRF_UARTE_EVENT_TXSTOPPED) ||
    64b8:	079b      	lsls	r3, r3, #30
    64ba:	d406      	bmi.n	64ca <is_tx_ready.isra.0+0x1e>
    64bc:	f8d2 0120 	ldr.w	r0, [r2, #288]	; 0x120
    64c0:	3800      	subs	r0, #0
    64c2:	bf18      	it	ne
    64c4:	2001      	movne	r0, #1
    64c6:	4770      	bx	lr
    64c8:	2001      	movs	r0, #1
}
    64ca:	4770      	bx	lr

000064cc <uarte_nrfx_isr_int>:
	const struct uarte_nrfx_config *config = dev->config;
    64cc:	6842      	ldr	r2, [r0, #4]
	return config->uarte_regs;
    64ce:	6813      	ldr	r3, [r2, #0]
    return p_reg->INTENSET & mask;
    64d0:	f8d3 1304 	ldr.w	r1, [r3, #772]	; 0x304
	if (nrf_uarte_int_enable_check(uarte, NRF_UARTE_INT_ENDTX_MASK) &&
    64d4:	05c9      	lsls	r1, r1, #23
    64d6:	d518      	bpl.n	650a <uarte_nrfx_isr_int+0x3e>
    return (bool)*(volatile uint32_t *)((uint8_t *)p_reg + (uint32_t)event);
    64d8:	f8d3 1120 	ldr.w	r1, [r3, #288]	; 0x120
    64dc:	b1a9      	cbz	r1, 650a <uarte_nrfx_isr_int+0x3e>
	__asm__ volatile(
    64de:	f04f 0020 	mov.w	r0, #32
    64e2:	f3ef 8111 	mrs	r1, BASEPRI
    64e6:	f380 8812 	msr	BASEPRI_MAX, r0
    64ea:	f3bf 8f6f 	isb	sy
    64ee:	f8d3 0120 	ldr.w	r0, [r3, #288]	; 0x120
	if (nrf_uarte_event_check(uarte, NRF_UARTE_EVENT_ENDTX)) {
    64f2:	b130      	cbz	r0, 6502 <uarte_nrfx_isr_int+0x36>
    *((volatile uint32_t *)((uint8_t *)p_reg + (uint32_t)event)) = 0x0UL;
    64f4:	2000      	movs	r0, #0
    64f6:	f8c3 0120 	str.w	r0, [r3, #288]	; 0x120
    64fa:	f8d3 0120 	ldr.w	r0, [r3, #288]	; 0x120
    *((volatile uint32_t *)((uint8_t *)p_reg + (uint32_t)task)) = 0x1UL;
    64fe:	2001      	movs	r0, #1
    6500:	60d8      	str	r0, [r3, #12]
	__asm__ volatile(
    6502:	f381 8811 	msr	BASEPRI, r1
    6506:	f3bf 8f6f 	isb	sy
	if (config->flags & UARTE_CFG_FLAG_LOW_POWER) {
    650a:	6852      	ldr	r2, [r2, #4]
    650c:	06d2      	lsls	r2, r2, #27
    650e:	d515      	bpl.n	653c <uarte_nrfx_isr_int+0x70>
	__asm__ volatile(
    6510:	f04f 0120 	mov.w	r1, #32
    6514:	f3ef 8211 	mrs	r2, BASEPRI
    6518:	f381 8812 	msr	BASEPRI_MAX, r1
    651c:	f3bf 8f6f 	isb	sy
    return (bool)*(volatile uint32_t *)((uint8_t *)p_reg + (uint32_t)event);
    6520:	f8d3 1158 	ldr.w	r1, [r3, #344]	; 0x158
		if (nrf_uarte_event_check(uarte, NRF_UARTE_EVENT_TXSTOPPED)) {
    6524:	b111      	cbz	r1, 652c <uarte_nrfx_isr_int+0x60>
    p_reg->ENABLE = UARTE_ENABLE_ENABLE_Disabled;
    6526:	2100      	movs	r1, #0
    6528:	f8c3 1500 	str.w	r1, [r3, #1280]	; 0x500
    p_reg->INTENCLR = mask;
    652c:	f44f 0180 	mov.w	r1, #4194304	; 0x400000
    6530:	f8c3 1308 	str.w	r1, [r3, #776]	; 0x308
	__asm__ volatile(
    6534:	f382 8811 	msr	BASEPRI, r2
    6538:	f3bf 8f6f 	isb	sy
}
    653c:	4770      	bx	lr

0000653e <uarte_1_init>:
#ifdef CONFIG_UART_0_NRF_UARTE
UART_NRF_UARTE_DEVICE(0);
#endif

#ifdef CONFIG_UART_1_NRF_UARTE
UART_NRF_UARTE_DEVICE(1);
    653e:	b510      	push	{r4, lr}
    6540:	4604      	mov	r4, r0
    6542:	2200      	movs	r2, #0
    6544:	2101      	movs	r1, #1
    6546:	2009      	movs	r0, #9
    6548:	f7fb fb92 	bl	1c70 <z_arm_irq_priority_set>
    654c:	2009      	movs	r0, #9
    654e:	f7fb fb73 	bl	1c38 <arch_irq_enable>
    6552:	4620      	mov	r0, r4
    6554:	e8bd 4010 	ldmia.w	sp!, {r4, lr}
    6558:	f7fc bafa 	b.w	2b50 <uarte_instance_init.constprop.0>

0000655c <uarte_0_init>:
UART_NRF_UARTE_DEVICE(0);
    655c:	b510      	push	{r4, lr}
    655e:	4604      	mov	r4, r0
    6560:	2200      	movs	r2, #0
    6562:	2101      	movs	r1, #1
    6564:	2008      	movs	r0, #8
    6566:	f7fb fb83 	bl	1c70 <z_arm_irq_priority_set>
    656a:	2008      	movs	r0, #8
    656c:	f7fb fb64 	bl	1c38 <arch_irq_enable>
    6570:	4620      	mov	r0, r4
    6572:	e8bd 4010 	ldmia.w	sp!, {r4, lr}
    6576:	f7fc baeb 	b.w	2b50 <uarte_instance_init.constprop.0>

0000657a <event_clear>:
    657a:	2200      	movs	r2, #0
	nrf_rtc_event_clear(RTC, RTC_CHANNEL_EVENT_ADDR(chan));
    657c:	f100 0350 	add.w	r3, r0, #80	; 0x50
    6580:	009b      	lsls	r3, r3, #2
    6582:	b29b      	uxth	r3, r3
    6584:	f103 2350 	add.w	r3, r3, #1342197760	; 0x50005000
    6588:	f503 3380 	add.w	r3, r3, #65536	; 0x10000
    658c:	601a      	str	r2, [r3, #0]
    658e:	681b      	ldr	r3, [r3, #0]
}
    6590:	4770      	bx	lr

00006592 <pinctrl_lookup_state>:

#include <zephyr/drivers/pinctrl.h>

int pinctrl_lookup_state(const struct pinctrl_dev_config *config, uint8_t id,
			 const struct pinctrl_state **state)
{
    6592:	b530      	push	{r4, r5, lr}
	*state = &config->states[0];
    6594:	6843      	ldr	r3, [r0, #4]
    6596:	6013      	str	r3, [r2, #0]
	while (*state < &config->states[config->state_cnt]) {
    6598:	7a05      	ldrb	r5, [r0, #8]
    659a:	6844      	ldr	r4, [r0, #4]
    659c:	eb04 04c5 	add.w	r4, r4, r5, lsl #3
    65a0:	42a3      	cmp	r3, r4
    65a2:	d302      	bcc.n	65aa <pinctrl_lookup_state+0x18>
		}

		(*state)++;
	}

	return -ENOENT;
    65a4:	f06f 0001 	mvn.w	r0, #1
}
    65a8:	bd30      	pop	{r4, r5, pc}
		if (id == (*state)->id) {
    65aa:	795c      	ldrb	r4, [r3, #5]
    65ac:	428c      	cmp	r4, r1
    65ae:	d001      	beq.n	65b4 <pinctrl_lookup_state+0x22>
		(*state)++;
    65b0:	3308      	adds	r3, #8
    65b2:	e7f0      	b.n	6596 <pinctrl_lookup_state+0x4>
			return 0;
    65b4:	2000      	movs	r0, #0
    65b6:	e7f7      	b.n	65a8 <pinctrl_lookup_state+0x16>

000065b8 <hw_cc3xx_init_internal>:

	/* Initialize the cc3xx HW with or without RNG support */
#if CONFIG_ENTROPY_CC3XX
	res = nrf_cc3xx_platform_init();
#else
	res = nrf_cc3xx_platform_init_no_rng();
    65b8:	f7fd bd1c 	b.w	3ff4 <nrf_cc3xx_platform_init_no_rng>

000065bc <hw_cc3xx_init>:

	return res;
}

static int hw_cc3xx_init(const struct device *dev)
{
    65bc:	b508      	push	{r3, lr}
	int res;

	/* Set the RTOS abort APIs */
	nrf_cc3xx_platform_abort_init();
    65be:	f7fb fae7 	bl	1b90 <nrf_cc3xx_platform_abort_init>

	/* Set the RTOS mutex APIs */
	nrf_cc3xx_platform_mutex_init();
    65c2:	f7ff fdc1 	bl	6148 <nrf_cc3xx_platform_mutex_init>

	/* Enable the hardware */
	res = hw_cc3xx_init_internal(dev);
	return res;
}
    65c6:	e8bd 4008 	ldmia.w	sp!, {r3, lr}
	res = nrf_cc3xx_platform_init_no_rng();
    65ca:	f7fd bd13 	b.w	3ff4 <nrf_cc3xx_platform_init_no_rng>

000065ce <boot_swap_info_off>:
    return ALIGN_DOWN(boot_magic_off(fap) - BOOT_MAX_ALIGN, BOOT_MAX_ALIGN);
    65ce:	6880      	ldr	r0, [r0, #8]
    65d0:	3818      	subs	r0, #24
    65d2:	f020 0007 	bic.w	r0, r0, #7
}
    65d6:	3810      	subs	r0, #16
    65d8:	4770      	bx	lr

000065da <boot_magic_compatible_check>:
    switch (tbl_val) {
    65da:	2804      	cmp	r0, #4
    65dc:	d009      	beq.n	65f2 <boot_magic_compatible_check+0x18>
    65de:	2805      	cmp	r0, #5
    65e0:	d103      	bne.n	65ea <boot_magic_compatible_check+0x10>
        return val != BOOT_MAGIC_GOOD;
    65e2:	1e48      	subs	r0, r1, #1
    65e4:	bf18      	it	ne
    65e6:	2001      	movne	r0, #1
    65e8:	4770      	bx	lr
        return tbl_val == val;
    65ea:	1a43      	subs	r3, r0, r1
    65ec:	4258      	negs	r0, r3
    65ee:	4158      	adcs	r0, r3
    65f0:	4770      	bx	lr
    switch (tbl_val) {
    65f2:	2001      	movs	r0, #1
}
    65f4:	4770      	bx	lr

000065f6 <bootutil_buffer_is_erased>:
{
    65f6:	b538      	push	{r3, r4, r5, lr}
    65f8:	4615      	mov	r5, r2
    if (buffer == NULL || len == 0) {
    65fa:	460c      	mov	r4, r1
    65fc:	b161      	cbz	r1, 6618 <bootutil_buffer_is_erased+0x22>
    65fe:	b15a      	cbz	r2, 6618 <bootutil_buffer_is_erased+0x22>
    erased_val = flash_area_erased_val(area);
    6600:	f7ff fd75 	bl	60ee <flash_area_erased_val>
    for (i = 0, u8b = (uint8_t *)buffer; i < len; i++) {
    6604:	4621      	mov	r1, r4
    6606:	4425      	add	r5, r4
        if (u8b[i] != erased_val) {
    6608:	f811 3b01 	ldrb.w	r3, [r1], #1
    660c:	4283      	cmp	r3, r0
    660e:	d103      	bne.n	6618 <bootutil_buffer_is_erased+0x22>
    for (i = 0, u8b = (uint8_t *)buffer; i < len; i++) {
    6610:	42a9      	cmp	r1, r5
    6612:	d1f9      	bne.n	6608 <bootutil_buffer_is_erased+0x12>
    return true;
    6614:	2001      	movs	r0, #1
}
    6616:	bd38      	pop	{r3, r4, r5, pc}
        return false;
    6618:	2000      	movs	r0, #0
    661a:	e7fc      	b.n	6616 <bootutil_buffer_is_erased+0x20>

0000661c <boot_read_flag>:
{
    661c:	b538      	push	{r3, r4, r5, lr}
    661e:	460c      	mov	r4, r1
    rc = flash_area_read(fap, off, flag, sizeof *flag);
    6620:	2301      	movs	r3, #1
{
    6622:	4611      	mov	r1, r2
    rc = flash_area_read(fap, off, flag, sizeof *flag);
    6624:	4622      	mov	r2, r4
{
    6626:	4605      	mov	r5, r0
    rc = flash_area_read(fap, off, flag, sizeof *flag);
    6628:	f7ff fd1a 	bl	6060 <flash_area_read>
    if (rc < 0) {
    662c:	2800      	cmp	r0, #0
    662e:	db0f      	blt.n	6650 <boot_read_flag+0x34>
    if (bootutil_buffer_is_erased(fap, flag, sizeof *flag)) {
    6630:	2201      	movs	r2, #1
    6632:	4621      	mov	r1, r4
    6634:	4628      	mov	r0, r5
    6636:	f7ff ffde 	bl	65f6 <bootutil_buffer_is_erased>
    663a:	b938      	cbnz	r0, 664c <boot_read_flag+0x30>
    if (flag != BOOT_FLAG_SET) {
    663c:	7823      	ldrb	r3, [r4, #0]
    return BOOT_FLAG_SET;
    663e:	2b01      	cmp	r3, #1
        *flag = boot_flag_decode(*flag);
    6640:	bf14      	ite	ne
    6642:	2302      	movne	r3, #2
    6644:	2301      	moveq	r3, #1
    6646:	2000      	movs	r0, #0
    6648:	7023      	strb	r3, [r4, #0]
}
    664a:	bd38      	pop	{r3, r4, r5, pc}
    664c:	2303      	movs	r3, #3
    664e:	e7fa      	b.n	6646 <boot_read_flag+0x2a>
        return BOOT_EFLASH;
    6650:	2001      	movs	r0, #1
    6652:	e7fa      	b.n	664a <boot_read_flag+0x2e>

00006654 <boot_write_trailer>:
{
    6654:	e92d 43f7 	stmdb	sp!, {r0, r1, r2, r4, r5, r6, r7, r8, r9, lr}
    6658:	461d      	mov	r5, r3
    665a:	4606      	mov	r6, r0
    665c:	460f      	mov	r7, r1
    665e:	4690      	mov	r8, r2
    align = flash_area_align(fap);
    6660:	f7ff fd3e 	bl	60e0 <flash_area_align>
    align = ALIGN_UP(inlen, align);
    6664:	1e6c      	subs	r4, r5, #1
    6666:	4404      	add	r4, r0
    6668:	4240      	negs	r0, r0
    666a:	4004      	ands	r4, r0
    if (align > BOOT_MAX_ALIGN) {
    666c:	2c08      	cmp	r4, #8
    666e:	d81a      	bhi.n	66a6 <boot_write_trailer+0x52>
    erased_val = flash_area_erased_val(fap);
    6670:	4630      	mov	r0, r6
    6672:	f7ff fd3c 	bl	60ee <flash_area_erased_val>
    6676:	4681      	mov	r9, r0
    memcpy(buf, inbuf, inlen);
    6678:	462a      	mov	r2, r5
    667a:	4641      	mov	r1, r8
    667c:	4668      	mov	r0, sp
    667e:	f7ff fd8a 	bl	6196 <memcpy>
    memset(&buf[inlen], erased_val, align - inlen);
    6682:	4649      	mov	r1, r9
    6684:	1b62      	subs	r2, r4, r5
    6686:	eb0d 0005 	add.w	r0, sp, r5
    668a:	f7ff fd8f 	bl	61ac <memset>
    rc = flash_area_write(fap, off, buf, align);
    668e:	4623      	mov	r3, r4
    6690:	466a      	mov	r2, sp
    6692:	4639      	mov	r1, r7
    6694:	4630      	mov	r0, r6
    6696:	f7ff fcf8 	bl	608a <flash_area_write>
    if (rc != 0) {
    669a:	3800      	subs	r0, #0
    669c:	bf18      	it	ne
    669e:	2001      	movne	r0, #1
}
    66a0:	b003      	add	sp, #12
    66a2:	e8bd 83f0 	ldmia.w	sp!, {r4, r5, r6, r7, r8, r9, pc}
        return -1;
    66a6:	f04f 30ff 	mov.w	r0, #4294967295	; 0xffffffff
    66aa:	e7f9      	b.n	66a0 <boot_write_trailer+0x4c>

000066ac <boot_write_trailer_flag>:
{
    66ac:	b507      	push	{r0, r1, r2, lr}
    return boot_write_trailer(fap, off, buf, 1);
    66ae:	2301      	movs	r3, #1
    const uint8_t buf[1] = { flag_val };
    66b0:	f88d 2004 	strb.w	r2, [sp, #4]
    return boot_write_trailer(fap, off, buf, 1);
    66b4:	aa01      	add	r2, sp, #4
    66b6:	f7ff ffcd 	bl	6654 <boot_write_trailer>
}
    66ba:	b003      	add	sp, #12
    66bc:	f85d fb04 	ldr.w	pc, [sp], #4

000066c0 <boot_write_image_ok>:
    return ALIGN_DOWN(boot_magic_off(fap) - BOOT_MAX_ALIGN, BOOT_MAX_ALIGN);
    66c0:	6881      	ldr	r1, [r0, #8]
    return boot_write_trailer_flag(fap, off, BOOT_FLAG_SET);
    66c2:	2201      	movs	r2, #1
    return ALIGN_DOWN(boot_magic_off(fap) - BOOT_MAX_ALIGN, BOOT_MAX_ALIGN);
    66c4:	3918      	subs	r1, #24
    return boot_write_trailer_flag(fap, off, BOOT_FLAG_SET);
    66c6:	f021 0107 	bic.w	r1, r1, #7
    66ca:	f7ff bfef 	b.w	66ac <boot_write_trailer_flag>

000066ce <boot_read_image_ok>:
    return ALIGN_DOWN(boot_magic_off(fap) - BOOT_MAX_ALIGN, BOOT_MAX_ALIGN);
    66ce:	6882      	ldr	r2, [r0, #8]
    66d0:	3a18      	subs	r2, #24
    return boot_read_flag(fap, image_ok, boot_image_ok_off(fap));
    66d2:	f022 0207 	bic.w	r2, r2, #7
    66d6:	f7ff bfa1 	b.w	661c <boot_read_flag>

000066da <boot_read_swap_state_by_id>:
{
    66da:	b513      	push	{r0, r1, r4, lr}
    66dc:	460c      	mov	r4, r1
    rc = flash_area_open(flash_area_id, &fap);
    66de:	b2c0      	uxtb	r0, r0
    66e0:	a901      	add	r1, sp, #4
    66e2:	f7fb f9fd 	bl	1ae0 <flash_area_open>
    if (rc != 0) {
    66e6:	b950      	cbnz	r0, 66fe <boot_read_swap_state_by_id+0x24>
    rc = boot_read_swap_state(fap, state);
    66e8:	4621      	mov	r1, r4
    66ea:	9801      	ldr	r0, [sp, #4]
    66ec:	f7fc fd66 	bl	31bc <boot_read_swap_state>
    66f0:	4604      	mov	r4, r0
    flash_area_close(fap);
    66f2:	9801      	ldr	r0, [sp, #4]
    66f4:	f7ff fcb3 	bl	605e <flash_area_close>
}
    66f8:	4620      	mov	r0, r4
    66fa:	b002      	add	sp, #8
    66fc:	bd10      	pop	{r4, pc}
        return BOOT_EFLASH;
    66fe:	2401      	movs	r4, #1
    6700:	e7fa      	b.n	66f8 <boot_read_swap_state_by_id+0x1e>

00006702 <boot_write_swap_info>:
{
    6702:	b513      	push	{r0, r1, r4, lr}
    BOOT_SET_SWAP_INFO(swap_info, image_num, swap_type);
    6704:	ea41 1102 	orr.w	r1, r1, r2, lsl #4
{
    6708:	4604      	mov	r4, r0
    BOOT_SET_SWAP_INFO(swap_info, image_num, swap_type);
    670a:	f88d 1007 	strb.w	r1, [sp, #7]
    off = boot_swap_info_off(fap);
    670e:	f7ff ff5e 	bl	65ce <boot_swap_info_off>
    return boot_write_trailer(fap, off, (const uint8_t *) &swap_info, 1);
    6712:	2301      	movs	r3, #1
    off = boot_swap_info_off(fap);
    6714:	4601      	mov	r1, r0
    return boot_write_trailer(fap, off, (const uint8_t *) &swap_info, 1);
    6716:	f10d 0207 	add.w	r2, sp, #7
    671a:	4620      	mov	r0, r4
    671c:	f7ff ff9a 	bl	6654 <boot_write_trailer>
}
    6720:	b002      	add	sp, #8
    6722:	bd10      	pop	{r4, pc}

00006724 <nrf91_errata_14>:
                uint32_t var1 = *((volatile uint32_t *)((uint32_t)NRF_FICR_S + 0x00000130ul));
    6724:	f44f 037f 	mov.w	r3, #16711680	; 0xff0000
    6728:	f8d3 2130 	ldr.w	r2, [r3, #304]	; 0x130
                uint32_t var2 = *((volatile uint32_t *)((uint32_t)NRF_FICR_S + 0x00000134ul));
    672c:	f8d3 0134 	ldr.w	r0, [r3, #308]	; 0x134
  __ASM volatile ("dsb 0xF":::"memory");
    6730:	f3bf 8f4f 	dsb	sy
            if (var1 == 0x09)
    6734:	2a09      	cmp	r2, #9
    6736:	d103      	bne.n	6740 <nrf91_errata_14+0x1c>
                switch(var2)
    6738:	1e43      	subs	r3, r0, #1
    673a:	4258      	negs	r0, r3
    673c:	4158      	adcs	r0, r3
    673e:	4770      	bx	lr
                        return false;
    6740:	2000      	movs	r0, #0
}
    6742:	4770      	bx	lr

00006744 <nrfx_isr>:
#include <zephyr/kernel.h>
#include <soc/nrfx_coredep.h>

void nrfx_isr(const void *irq_handler)
{
	((nrfx_irq_handler_t)irq_handler)();
    6744:	4700      	bx	r0

00006746 <nrfx_busy_wait>:
		(void) arch_syscall_invoke1(parm0.x, K_SYSCALL_K_BUSY_WAIT);
		return;
	}
#endif
	compiler_barrier();
	z_impl_k_busy_wait(usec_to_wait);
    6746:	f000 b8c9 	b.w	68dc <z_impl_k_busy_wait>

0000674a <clock_stop>:
{
    674a:	b5f7      	push	{r0, r1, r2, r4, r5, r6, r7, lr}
    switch (domain)
    674c:	4604      	mov	r4, r0
    674e:	b118      	cbz	r0, 6758 <clock_stop+0xe>
    6750:	2801      	cmp	r0, #1
    6752:	d020      	beq.n	6796 <clock_stop+0x4c>
}
    6754:	b003      	add	sp, #12
    6756:	bdf0      	pop	{r4, r5, r6, r7, pc}
    6758:	f04f 2350 	mov.w	r3, #1342197760	; 0x50005000
    675c:	2202      	movs	r2, #2
    675e:	f8c3 2308 	str.w	r2, [r3, #776]	; 0x308
    *((volatile uint32_t *)((uint8_t *)p_reg + (uint32_t)event)) = 0x0UL;
    6762:	f8c3 0104 	str.w	r0, [r3, #260]	; 0x104
    6766:	f8d3 2104 	ldr.w	r2, [r3, #260]	; 0x104
    *((volatile uint32_t *)((uint8_t *)p_reg + (uint32_t)task)) = 0x1UL;
    676a:	2201      	movs	r2, #1
    nrf_clock_hfclk_t *p_clk_src = (domain == NRF_CLOCK_DOMAIN_HFCLK) ? &clk_src : NULL;
    676c:	4607      	mov	r7, r0
    676e:	60da      	str	r2, [r3, #12]
    nrf_clock_hfclk_t clk_src = NRF_CLOCK_HFCLK_HIGH_ACCURACY;
    6770:	2301      	movs	r3, #1
    6772:	f242 7510 	movw	r5, #10000	; 0x2710
    6776:	f04f 2650 	mov.w	r6, #1342197760	; 0x50005000
    677a:	f88d 3007 	strb.w	r3, [sp, #7]
    switch (domain)
    677e:	b1bc      	cbz	r4, 67b0 <clock_stop+0x66>
    6780:	2c01      	cmp	r4, #1
    6782:	d1e7      	bne.n	6754 <clock_stop+0xa>
            if (p_clk_src != NULL)
    6784:	b38f      	cbz	r7, 67ea <clock_stop+0xa0>
                    (nrf_clock_hfclk_t)((p_reg->HFCLKSTAT & CLOCK_HFCLKSTAT_SRC_Msk)
    6786:	f8d6 340c 	ldr.w	r3, [r6, #1036]	; 0x40c
    678a:	f003 0301 	and.w	r3, r3, #1
                (*(nrf_clock_hfclk_t *)p_clk_src) =
    678e:	703b      	strb	r3, [r7, #0]
            if ((p_reg->HFCLKSTAT & CLOCK_HFCLKSTAT_STATE_Msk)
    6790:	f8d6 340c 	ldr.w	r3, [r6, #1036]	; 0x40c
    6794:	e014      	b.n	67c0 <clock_stop+0x76>
    p_reg->INTENCLR = mask;
    6796:	f04f 2350 	mov.w	r3, #1342197760	; 0x50005000
    *((volatile uint32_t *)((uint8_t *)p_reg + (uint32_t)event)) = 0x0UL;
    679a:	2200      	movs	r2, #0
    p_reg->INTENCLR = mask;
    679c:	f8c3 0308 	str.w	r0, [r3, #776]	; 0x308
    *((volatile uint32_t *)((uint8_t *)p_reg + (uint32_t)event)) = 0x0UL;
    67a0:	f8c3 2100 	str.w	r2, [r3, #256]	; 0x100
    67a4:	f8d3 2100 	ldr.w	r2, [r3, #256]	; 0x100
    nrf_clock_hfclk_t *p_clk_src = (domain == NRF_CLOCK_DOMAIN_HFCLK) ? &clk_src : NULL;
    67a8:	f10d 0707 	add.w	r7, sp, #7
    *((volatile uint32_t *)((uint8_t *)p_reg + (uint32_t)task)) = 0x1UL;
    67ac:	6058      	str	r0, [r3, #4]
    67ae:	e7df      	b.n	6770 <clock_stop+0x26>
            if (p_clk_src != NULL)
    67b0:	b18f      	cbz	r7, 67d6 <clock_stop+0x8c>
                    (nrf_clock_lfclk_t)((p_reg->LFCLKSTAT & CLOCK_LFCLKSTAT_SRC_Msk)
    67b2:	f8d6 3418 	ldr.w	r3, [r6, #1048]	; 0x418
    67b6:	f003 0303 	and.w	r3, r3, #3
                (*(nrf_clock_lfclk_t *)p_clk_src) =
    67ba:	703b      	strb	r3, [r7, #0]
            if ((p_reg->LFCLKSTAT & CLOCK_LFCLKSTAT_STATE_Msk)
    67bc:	f8d6 3418 	ldr.w	r3, [r6, #1048]	; 0x418
            if ((p_reg->HFCLKSTAT & CLOCK_HFCLKSTAT_STATE_Msk)
    67c0:	03da      	lsls	r2, r3, #15
    67c2:	d5c7      	bpl.n	6754 <clock_stop+0xa>
    NRFX_WAIT_FOR((!nrfx_clock_is_running(domain, p_clk_src) ||
    67c4:	f89d 0007 	ldrb.w	r0, [sp, #7]
    67c8:	2801      	cmp	r0, #1
    67ca:	d1c3      	bne.n	6754 <clock_stop+0xa>
    67cc:	f7ff ffbb 	bl	6746 <nrfx_busy_wait>
    67d0:	3d01      	subs	r5, #1
    67d2:	d1d4      	bne.n	677e <clock_stop+0x34>
    67d4:	e7be      	b.n	6754 <clock_stop+0xa>
            if ((p_reg->LFCLKSTAT & CLOCK_LFCLKSTAT_STATE_Msk)
    67d6:	f8d6 3418 	ldr.w	r3, [r6, #1048]	; 0x418
    67da:	03d9      	lsls	r1, r3, #15
    67dc:	d5ba      	bpl.n	6754 <clock_stop+0xa>
    67de:	2001      	movs	r0, #1
    67e0:	f7ff ffb1 	bl	6746 <nrfx_busy_wait>
    67e4:	3d01      	subs	r5, #1
    67e6:	d1f6      	bne.n	67d6 <clock_stop+0x8c>
    67e8:	e7b4      	b.n	6754 <clock_stop+0xa>
            if ((p_reg->HFCLKSTAT & CLOCK_HFCLKSTAT_STATE_Msk)
    67ea:	f8d6 340c 	ldr.w	r3, [r6, #1036]	; 0x40c
    67ee:	03db      	lsls	r3, r3, #15
    67f0:	d5b0      	bpl.n	6754 <clock_stop+0xa>
    67f2:	2001      	movs	r0, #1
    67f4:	f7ff ffa7 	bl	6746 <nrfx_busy_wait>
    67f8:	3d01      	subs	r5, #1
    67fa:	d1f6      	bne.n	67ea <clock_stop+0xa0>
    67fc:	e7aa      	b.n	6754 <clock_stop+0xa>

000067fe <nrfx_clock_enable>:
{
    67fe:	b508      	push	{r3, lr}
    priority = NRFX_CLOCK_DEFAULT_CONFIG_IRQ_PRIORITY;
#else
    #error "This code is not supposed to be compiled when neither POWER nor CLOCK is enabled."
#endif

    if (!NRFX_IRQ_IS_ENABLED(nrfx_get_irq_number(NRF_CLOCK)))
    6800:	2005      	movs	r0, #5
    6802:	f7fb fa27 	bl	1c54 <arch_irq_is_enabled>
    6806:	b910      	cbnz	r0, 680e <nrfx_clock_enable+0x10>
    {
        NRFX_IRQ_PRIORITY_SET(nrfx_get_irq_number(NRF_CLOCK), priority);
        NRFX_IRQ_ENABLE(nrfx_get_irq_number(NRF_CLOCK));
    6808:	2005      	movs	r0, #5
    680a:	f7fb fa15 	bl	1c38 <arch_irq_enable>
    p_reg->LFCLKSRC = (uint32_t)(source);
    680e:	f04f 2350 	mov.w	r3, #1342197760	; 0x50005000
    6812:	2201      	movs	r2, #1
    6814:	f8c3 2518 	str.w	r2, [r3, #1304]	; 0x518
}
    6818:	bd08      	pop	{r3, pc}

0000681a <nrfx_clock_start>:
{
    681a:	b508      	push	{r3, lr}
    switch (domain)
    681c:	b110      	cbz	r0, 6824 <nrfx_clock_start+0xa>
    681e:	2801      	cmp	r0, #1
    6820:	d030      	beq.n	6884 <nrfx_clock_start+0x6a>
}
    6822:	bd08      	pop	{r3, pc}
                    (nrf_clock_lfclk_t)((p_reg->LFCLKSTAT & CLOCK_LFCLKSTAT_SRC_Msk)
    6824:	f04f 2250 	mov.w	r2, #1342197760	; 0x50005000
    6828:	f8d2 3418 	ldr.w	r3, [r2, #1048]	; 0x418
            if ((p_reg->LFCLKSTAT & CLOCK_LFCLKSTAT_STATE_Msk)
    682c:	f8d2 1418 	ldr.w	r1, [r2, #1048]	; 0x418
    6830:	03c9      	lsls	r1, r1, #15
    6832:	d40e      	bmi.n	6852 <nrfx_clock_start+0x38>
            return ((p_reg->LFCLKRUN & CLOCK_LFCLKRUN_STATUS_Msk)
    6834:	f8d2 3414 	ldr.w	r3, [r2, #1044]	; 0x414
                else if (nrf_clock_start_task_check(NRF_CLOCK, NRF_CLOCK_DOMAIN_LFCLK))
    6838:	07db      	lsls	r3, r3, #31
    683a:	d513      	bpl.n	6864 <nrfx_clock_start+0x4a>
    return (nrf_clock_lfclk_t)((p_reg->LFCLKSRCCOPY & CLOCK_LFCLKSRCCOPY_SRC_Msk)
    683c:	f8d2 341c 	ldr.w	r3, [r2, #1052]	; 0x41c
    6840:	f003 0303 	and.w	r3, r3, #3
    is_correct_clk = is_correct_clk || (*p_lfclksrc == NRF_CLOCK_LFCLK_RC);
    6844:	3b01      	subs	r3, #1
    6846:	2b01      	cmp	r3, #1
    6848:	d809      	bhi.n	685e <nrfx_clock_start+0x44>
    p_reg->INTENSET = mask;
    684a:	2302      	movs	r3, #2
    684c:	f8c2 3304 	str.w	r3, [r2, #772]	; 0x304
                        break;
    6850:	e7e7      	b.n	6822 <nrfx_clock_start+0x8>
                    (nrf_clock_lfclk_t)((p_reg->LFCLKSTAT & CLOCK_LFCLKSTAT_SRC_Msk)
    6852:	f003 0303 	and.w	r3, r3, #3
    is_correct_clk = is_correct_clk || (*p_lfclksrc == NRF_CLOCK_LFCLK_RC);
    6856:	2b02      	cmp	r3, #2
    6858:	d005      	beq.n	6866 <nrfx_clock_start+0x4c>
    685a:	2b01      	cmp	r3, #1
    685c:	d002      	beq.n	6864 <nrfx_clock_start+0x4a>
        clock_stop(NRF_CLOCK_DOMAIN_LFCLK);
    685e:	2000      	movs	r0, #0
    6860:	f7ff ff73 	bl	674a <clock_stop>
        *p_lfclksrc = clock_initial_lfclksrc_get();
    6864:	2301      	movs	r3, #1
    p_reg->LFCLKSRC = (uint32_t)(source);
    6866:	f04f 2250 	mov.w	r2, #1342197760	; 0x50005000
    686a:	f8c2 3518 	str.w	r3, [r2, #1304]	; 0x518
    *((volatile uint32_t *)((uint8_t *)p_reg + (uint32_t)event)) = 0x0UL;
    686e:	2300      	movs	r3, #0
    6870:	f8c2 3104 	str.w	r3, [r2, #260]	; 0x104
    6874:	f8d2 3104 	ldr.w	r3, [r2, #260]	; 0x104
    p_reg->INTENSET = mask;
    6878:	2302      	movs	r3, #2
    687a:	f8c2 3304 	str.w	r3, [r2, #772]	; 0x304
    *((volatile uint32_t *)((uint8_t *)p_reg + (uint32_t)task)) = 0x1UL;
    687e:	2301      	movs	r3, #1
    6880:	6093      	str	r3, [r2, #8]
}
    6882:	e7ce      	b.n	6822 <nrfx_clock_start+0x8>
    *((volatile uint32_t *)((uint8_t *)p_reg + (uint32_t)event)) = 0x0UL;
    6884:	f04f 2350 	mov.w	r3, #1342197760	; 0x50005000
    6888:	2200      	movs	r2, #0
    688a:	f8c3 2100 	str.w	r2, [r3, #256]	; 0x100
    688e:	f8d3 2100 	ldr.w	r2, [r3, #256]	; 0x100
    p_reg->INTENSET = mask;
    6892:	f8c3 0304 	str.w	r0, [r3, #772]	; 0x304
    *((volatile uint32_t *)((uint8_t *)p_reg + (uint32_t)task)) = 0x1UL;
    6896:	6018      	str	r0, [r3, #0]
}
    6898:	e7c3      	b.n	6822 <nrfx_clock_start+0x8>

0000689a <nrfx_clock_stop>:
    clock_stop(domain);
    689a:	f7ff bf56 	b.w	674a <clock_stop>

0000689e <nrfx_nvmc_flash_size_get>:
}

uint32_t nrfx_nvmc_flash_size_get(void)
{
    return flash_total_size_get();
}
    689e:	f44f 1080 	mov.w	r0, #1048576	; 0x100000
    68a2:	4770      	bx	lr

000068a4 <nrfx_nvmc_flash_page_size_get>:

uint32_t nrfx_nvmc_flash_page_size_get(void)
{
    return flash_page_size_get();
}
    68a4:	f44f 5080 	mov.w	r0, #4096	; 0x1000
    68a8:	4770      	bx	lr

000068aa <nrfx_nvmc_flash_page_count_get>:

uint32_t nrfx_nvmc_flash_page_count_get(void)
{
    return flash_page_count_get();
}
    68aa:	f44f 7080 	mov.w	r0, #256	; 0x100
    68ae:	4770      	bx	lr

000068b0 <z_device_state_init>:

	while (dev < __device_end) {
		z_object_init(dev);
		++dev;
	}
}
    68b0:	4770      	bx	lr

000068b2 <z_device_is_ready>:
{
	/*
	 * if an invalid device pointer is passed as argument, this call
	 * reports the `device` as not ready for usage.
	 */
	if (dev == NULL) {
    68b2:	b140      	cbz	r0, 68c6 <z_device_is_ready+0x14>
		return false;
	}

	return dev->state->initialized && (dev->state->init_res == 0U);
    68b4:	68c3      	ldr	r3, [r0, #12]
    68b6:	7858      	ldrb	r0, [r3, #1]
    68b8:	f010 0001 	ands.w	r0, r0, #1
    68bc:	bf1e      	ittt	ne
    68be:	7818      	ldrbne	r0, [r3, #0]
    68c0:	fab0 f080 	clzne	r0, r0
    68c4:	0940      	lsrne	r0, r0, #5
}
    68c6:	4770      	bx	lr

000068c8 <z_early_memset>:
	(void) memset(dst, c, n);
    68c8:	f7ff bc70 	b.w	61ac <memset>

000068cc <z_early_memcpy>:
	(void) memcpy(dst, src, n);
    68cc:	f7ff bc63 	b.w	6196 <memcpy>

000068d0 <k_is_in_isr>:
  __ASM volatile ("MRS %0, ipsr" : "=r" (result) );
    68d0:	f3ef 8005 	mrs	r0, IPSR
}

bool k_is_in_isr(void)
{
	return arch_is_in_isr();
}
    68d4:	3800      	subs	r0, #0
    68d6:	bf18      	it	ne
    68d8:	2001      	movne	r0, #1
    68da:	4770      	bx	lr

000068dc <z_impl_k_busy_wait>:
#endif

void z_impl_k_busy_wait(uint32_t usec_to_wait)
{
	SYS_PORT_TRACING_FUNC_ENTER(k_thread, busy_wait, usec_to_wait);
	if (usec_to_wait == 0U) {
    68dc:	b108      	cbz	r0, 68e2 <z_impl_k_busy_wait+0x6>
		if ((current_cycles - start_cycles) >= cycles_to_wait) {
			break;
		}
	}
#else
	arch_busy_wait(usec_to_wait);
    68de:	f7fb b8f3 	b.w	1ac8 <arch_busy_wait>
#endif /* CONFIG_ARCH_HAS_CUSTOM_BUSY_WAIT */
	SYS_PORT_TRACING_FUNC_EXIT(k_thread, busy_wait, usec_to_wait);
}
    68e2:	4770      	bx	lr

000068e4 <_OffsetAbsSyms>:

#include <gen_offset.h>

#include "offsets_aarch32.c"

GEN_ABS_SYM_END
    68e4:	4770      	bx	lr

000068e6 <nrf_cc310_bl_ecdsa_verify_secp256r1>:
    68e6:	e92d 41f0 	stmdb	sp!, {r4, r5, r6, r7, r8, lr}
    68ea:	9f06      	ldr	r7, [sp, #24]
    68ec:	4604      	mov	r4, r0
    68ee:	4615      	mov	r5, r2
    68f0:	461e      	mov	r6, r3
    68f2:	f7fd fd4f 	bl	4394 <nrf_cc310_bl_ecdsa_verify_init_secp256r1>
    68f6:	b938      	cbnz	r0, 6908 <nrf_cc310_bl_ecdsa_verify_secp256r1+0x22>
    68f8:	463b      	mov	r3, r7
    68fa:	4632      	mov	r2, r6
    68fc:	4629      	mov	r1, r5
    68fe:	4620      	mov	r0, r4
    6900:	e8bd 41f0 	ldmia.w	sp!, {r4, r5, r6, r7, r8, lr}
    6904:	f7fd bd6c 	b.w	43e0 <nrf_cc310_bl_ecdsa_verify_hash_secp256r1>
    6908:	e8bd 81f0 	ldmia.w	sp!, {r4, r5, r6, r7, r8, pc}

0000690c <PkaInitAndMutexLock>:
    690c:	460a      	mov	r2, r1
    690e:	2100      	movs	r1, #0
    6910:	f7fd bff2 	b.w	48f8 <PkaInitPka>

00006914 <SaSi_PalMemCopy>:
    6914:	f7ff bc3f 	b.w	6196 <memcpy>

00006918 <SaSi_PalMemSet>:
    6918:	f7ff bc48 	b.w	61ac <memset>

0000691c <SaSi_PalMemSetZero>:
    691c:	460a      	mov	r2, r1
    691e:	2100      	movs	r1, #0
    6920:	f7ff bc44 	b.w	61ac <memset>

00006924 <CRYS_COMMON_ReverseMemcpy32>:
    6924:	eb01 0282 	add.w	r2, r1, r2, lsl #2
    6928:	3804      	subs	r0, #4
    692a:	428a      	cmp	r2, r1
    692c:	d101      	bne.n	6932 <CRYS_COMMON_ReverseMemcpy32+0xe>
    692e:	2000      	movs	r0, #0
    6930:	4770      	bx	lr
    6932:	f852 3d04 	ldr.w	r3, [r2, #-4]!
    6936:	ba1b      	rev	r3, r3
    6938:	f840 3f04 	str.w	r3, [r0, #4]!
    693c:	e7f5      	b.n	692a <CRYS_COMMON_ReverseMemcpy32+0x6>
	...
